
========================================================================

** ELF Header Information

    File Name: .\Objects\hello.axf

    Machine class: ELFCLASS32 (32-bit)
    Data encoding: ELFDATA2LSB (Little endian)
    Header version: EV_CURRENT (Current version)
    Operating System ABI: none
    ABI Version: 0
    File Type: ET_EXEC (Executable) (2)
    Machine: EM_ARM (ARM)

    Image Entry point: 0x000000a9
    Flags: EF_ARM_HASENTRY + EF_ARM_ABI_FLOAT_SOFT (0x05000202)

    ARM ELF revision: 5 (ABI version 2)

    Conforms to Soft float procedure-call standard

    Built with
    Component: ARM Compiler 5.06 update 7 (build 960) Tool: armasm [4d35fa]
    Component: ARM Compiler 5.06 update 7 (build 960) Tool: armlink [4d3601]

    Header size: 52 bytes (0x34)
    Program header entry size: 32 bytes (0x20)
    Section header entry size: 40 bytes (0x28)

    Program header entries: 1
    Section header entries: 16

    Program header offset: 165784 (0x00028798)
    Section header offset: 165816 (0x000287b8)

    Section header string table index: 15

========================================================================

** Program header #0

    Type          : PT_LOAD (1)
    File Offset   : 52 (0x34)
    Virtual Addr  : 0x00000000
    Physical Addr : 0x00000000
    Size in file  : 31648 bytes (0x7ba0)
    Size in memory: 33544 bytes (0x8308)
    Flags         : PF_X + PF_W + PF_R + PF_ARM_ENTRY (0x80000007)
    Alignment     : 8


========================================================================

** Section #1

    Name        : ER_IROM1
    Type        : SHT_PROGBITS (0x00000001)
    Flags       : SHF_ALLOC + SHF_EXECINSTR (0x00000006)
    Addr        : 0x00000000
    File Offset : 52 (0x34)
    Size        : 31592 bytes (0x7b68)
    Link        : SHN_UNDEF
    Info        : 0
    Alignment   : 4
    Entry Size  : 0

    $d.realdata
    RESET
    __Vectors
        0x00000000:    200007a0    ...     DCD    536872864
        0x00000004:    000001a9    ....    DCD    425
        0x00000008:    000001b5    ....    DCD    437
        0x0000000c:    000001b7    ....    DCD    439
        0x00000010:    00000000    ....    DCD    0
        0x00000014:    00000000    ....    DCD    0
        0x00000018:    00000000    ....    DCD    0
        0x0000001c:    00000000    ....    DCD    0
        0x00000020:    00000000    ....    DCD    0
        0x00000024:    00000000    ....    DCD    0
        0x00000028:    00000000    ....    DCD    0
        0x0000002c:    000001b9    ....    DCD    441
        0x00000030:    00000000    ....    DCD    0
        0x00000034:    00000000    ....    DCD    0
        0x00000038:    000001bb    ....    DCD    443
        0x0000003c:    00002a89    .*..    DCD    10889
        0x00000040:    00002bfd    .+..    DCD    11261
        0x00000044:    000001bf    ....    DCD    447
        0x00000048:    00002d89    .-..    DCD    11657
        0x0000004c:    000001bf    ....    DCD    447
        0x00000050:    000001bf    ....    DCD    447
        0x00000054:    000001bf    ....    DCD    447
        0x00000058:    000001bf    ....    DCD    447
        0x0000005c:    000001bf    ....    DCD    447
        0x00000060:    000001bf    ....    DCD    447
        0x00000064:    000001bf    ....    DCD    447
        0x00000068:    000001bf    ....    DCD    447
        0x0000006c:    000001bf    ....    DCD    447
        0x00000070:    000001bf    ....    DCD    447
        0x00000074:    000001bf    ....    DCD    447
        0x00000078:    000001bf    ....    DCD    447
        0x0000007c:    000001bf    ....    DCD    447
        0x00000080:    000001bf    ....    DCD    447
        0x00000084:    000001bf    ....    DCD    447
        0x00000088:    000001bf    ....    DCD    447
        0x0000008c:    000001bf    ....    DCD    447
        0x00000090:    000001bf    ....    DCD    447
        0x00000094:    000001bf    ....    DCD    447
        0x00000098:    000001bf    ....    DCD    447
        0x0000009c:    000001bf    ....    DCD    447
        0x000000a0:    000001bf    ....    DCD    447
        0x000000a4:    000001bf    ....    DCD    447
    $t
    !!!main
    __Vectors_End
    __main
        0x000000a8:    f000f802    ....    BL       __scatterload ; 0xb0
        0x000000ac:    f000f850    ..P.    BL       __rt_entry ; 0x150
    !!!scatter
    __scatterload
    __scatterload_rt2
    __scatterload_rt2_thumb_only
        0x000000b0:    a00c        ..      ADR      r0,{pc}+0x34 ; 0xe4
        0x000000b2:    c830        0.      LDM      r0!,{r4,r5}
        0x000000b4:    3808        .8      SUBS     r0,r0,#8
        0x000000b6:    1824        $.      ADDS     r4,r4,r0
        0x000000b8:    182d        -.      ADDS     r5,r5,r0
        0x000000ba:    46a2        .F      MOV      r10,r4
        0x000000bc:    1e67        g.      SUBS     r7,r4,#1
        0x000000be:    46ab        .F      MOV      r11,r5
    __scatterload_null
        0x000000c0:    4654        TF      MOV      r4,r10
        0x000000c2:    465d        ]F      MOV      r5,r11
        0x000000c4:    42ac        .B      CMP      r4,r5
        0x000000c6:    d101        ..      BNE      0xcc ; __scatterload_null + 12
        0x000000c8:    f000f842    ..B.    BL       __rt_entry ; 0x150
        0x000000cc:    467e        ~F      MOV      r6,pc
        0x000000ce:    3e0f        .>      SUBS     r6,r6,#0xf
        0x000000d0:    cc0f        ..      LDM      r4!,{r0-r3}
        0x000000d2:    46b6        .F      MOV      lr,r6
        0x000000d4:    2601        .&      MOVS     r6,#1
        0x000000d6:    4233        3B      TST      r3,r6
        0x000000d8:    d000        ..      BEQ      0xdc ; __scatterload_null + 28
        0x000000da:    1afb        ..      SUBS     r3,r7,r3
        0x000000dc:    46a2        .F      MOV      r10,r4
        0x000000de:    46ab        .F      MOV      r11,r5
        0x000000e0:    4333        3C      ORRS     r3,r3,r6
        0x000000e2:    4718        .G      BX       r3
    $d
        0x000000e4:    00007a48    Hz..    DCD    31304
        0x000000e8:    00007a68    hz..    DCD    31336
    $t
    !!handler_copy
    __scatterload_copy
        0x000000ec:    3a10        .:      SUBS     r2,r2,#0x10
        0x000000ee:    d302        ..      BCC      0xf6 ; __scatterload_copy + 10
        0x000000f0:    c878        x.      LDM      r0!,{r3-r6}
        0x000000f2:    c178        x.      STM      r1!,{r3-r6}
        0x000000f4:    d8fa        ..      BHI      __scatterload_copy ; 0xec
        0x000000f6:    0752        R.      LSLS     r2,r2,#29
        0x000000f8:    d301        ..      BCC      0xfe ; __scatterload_copy + 18
        0x000000fa:    c830        0.      LDM      r0!,{r4,r5}
        0x000000fc:    c130        0.      STM      r1!,{r4,r5}
        0x000000fe:    d501        ..      BPL      0x104 ; __scatterload_copy + 24
        0x00000100:    6804        .h      LDR      r4,[r0,#0]
        0x00000102:    600c        .`      STR      r4,[r1,#0]
        0x00000104:    4770        pG      BX       lr
        0x00000106:    0000        ..      MOVS     r0,r0
    !!handler_zi
    __scatterload_zeroinit
        0x00000108:    2300        .#      MOVS     r3,#0
        0x0000010a:    2400        .$      MOVS     r4,#0
        0x0000010c:    2500        .%      MOVS     r5,#0
        0x0000010e:    2600        .&      MOVS     r6,#0
        0x00000110:    3a10        .:      SUBS     r2,r2,#0x10
        0x00000112:    d301        ..      BCC      0x118 ; __scatterload_zeroinit + 16
        0x00000114:    c178        x.      STM      r1!,{r3-r6}
        0x00000116:    d8fb        ..      BHI      0x110 ; __scatterload_zeroinit + 8
        0x00000118:    0752        R.      LSLS     r2,r2,#29
        0x0000011a:    d300        ..      BCC      0x11e ; __scatterload_zeroinit + 22
        0x0000011c:    c130        0.      STM      r1!,{r4,r5}
        0x0000011e:    d500        ..      BPL      0x122 ; __scatterload_zeroinit + 26
        0x00000120:    600b        .`      STR      r3,[r1,#0]
        0x00000122:    4770        pG      BX       lr
    .ARM.Collect$$_printf_percent$$00000000
    _printf_percent
        0x00000124:    b510        ..      PUSH     {r4,lr}
    .ARM.Collect$$_printf_percent$$00000003
    _printf_f
        0x00000126:    2966        f)      CMP      r1,#0x66
        0x00000128:    d102        ..      BNE      _printf_percent_end ; 0x130
        0x0000012a:    f003fe87    ....    BL       _printf_fp_dec ; 0x3e3c
        0x0000012e:    bd10        ..      POP      {r4,pc}
    .ARM.Collect$$_printf_percent$$00000017
    _printf_percent_end
        0x00000130:    2000        .       MOVS     r0,#0
        0x00000132:    bd10        ..      POP      {r4,pc}
    .ARM.Collect$$libinit$$00000000
    __rt_lib_init
        0x00000134:    b51f        ..      PUSH     {r0-r4,lr}
    .ARM.Collect$$libinit$$00000002
    .ARM.Collect$$libinit$$00000004
    .ARM.Collect$$libinit$$0000000A
    .ARM.Collect$$libinit$$0000000C
    .ARM.Collect$$libinit$$0000000D
    __rt_lib_init_fp_1
    __rt_lib_init_heap_1
    __rt_lib_init_preinit_1
    __rt_lib_init_rand_2
    __rt_lib_init_user_alloc_1
        0x00000136:    f000f907    ....    BL       _rand_init ; 0x348
    .ARM.Collect$$libinit$$0000000E
    .ARM.Collect$$libinit$$0000000F
    __rt_lib_init_lc_common
    __rt_lib_init_rand_1
        0x0000013a:    f000fd51    ..Q.    BL       __rt_locale ; 0xbe0
        0x0000013e:    0004        ..      MOVS     r4,r0
    .ARM.Collect$$libinit$$00000011
    .ARM.Collect$$libinit$$00000013
    .ARM.Collect$$libinit$$00000015
    .ARM.Collect$$libinit$$00000016
    __rt_lib_init_lc_collate_1
    __rt_lib_init_lc_ctype_1
    __rt_lib_init_lc_monetary_1
    __rt_lib_init_lc_numeric_2
        0x00000140:    2000        .       MOVS     r0,#0
        0x00000142:    2100        .!      MOVS     r1,#0
        0x00000144:    f003fd52    ..R.    BL       _get_lc_numeric ; 0x3bec
        0x00000148:    60e0        .`      STR      r0,[r4,#0xc]
    .ARM.Collect$$libinit$$00000017
    .ARM.Collect$$libinit$$00000019
    .ARM.Collect$$libinit$$0000001B
    .ARM.Collect$$libinit$$0000001D
    .ARM.Collect$$libinit$$0000001F
    .ARM.Collect$$libinit$$00000021
    .ARM.Collect$$libinit$$00000023
    .ARM.Collect$$libinit$$00000025
    .ARM.Collect$$libinit$$0000002C
    .ARM.Collect$$libinit$$0000002E
    .ARM.Collect$$libinit$$00000030
    .ARM.Collect$$libinit$$00000032
    .ARM.Collect$$libinit$$00000033
    __rt_lib_init_alloca_1
    __rt_lib_init_argv_1
    __rt_lib_init_atexit_1
    __rt_lib_init_clock_1
    __rt_lib_init_cpp_1
    __rt_lib_init_exceptions_1
    __rt_lib_init_fp_trap_1
    __rt_lib_init_getenv_1
    __rt_lib_init_lc_numeric_1
    __rt_lib_init_lc_time_1
    __rt_lib_init_return
    __rt_lib_init_signal_1
    __rt_lib_init_stdio_1
        0x0000014a:    bd1f        ..      POP      {r0-r4,pc}
    .ARM.Collect$$libshutdown$$00000000
    __rt_lib_shutdown
        0x0000014c:    b510        ..      PUSH     {r4,lr}
    .ARM.Collect$$libshutdown$$00000002
    .ARM.Collect$$libshutdown$$00000004
    .ARM.Collect$$libshutdown$$00000006
    .ARM.Collect$$libshutdown$$00000009
    .ARM.Collect$$libshutdown$$0000000C
    .ARM.Collect$$libshutdown$$0000000E
    .ARM.Collect$$libshutdown$$00000011
    .ARM.Collect$$libshutdown$$00000012
    __rt_lib_shutdown_cpp_1
    __rt_lib_shutdown_fini_1
    __rt_lib_shutdown_fp_trap_1
    __rt_lib_shutdown_heap_1
    __rt_lib_shutdown_return
    __rt_lib_shutdown_signal_1
    __rt_lib_shutdown_stdio_1
    __rt_lib_shutdown_user_alloc_1
        0x0000014e:    bd10        ..      POP      {r4,pc}
    .ARM.Collect$$rtentry$$00000000
    .ARM.Collect$$rtentry$$00000002
    .ARM.Collect$$rtentry$$00000004
    __rt_entry
    __rt_entry_presh_1
    __rt_entry_sh
        0x00000150:    f001f910    ....    BL       __user_setup_stackheap ; 0x1374
        0x00000154:    4611        .F      MOV      r1,r2
    .ARM.Collect$$rtentry$$00000009
    .ARM.Collect$$rtentry$$0000000A
    __rt_entry_li
    __rt_entry_postsh_1
        0x00000156:    f7ffffed    ....    BL       __rt_lib_init ; 0x134
    .ARM.Collect$$rtentry$$0000000C
    .ARM.Collect$$rtentry$$0000000D
    __rt_entry_main
    __rt_entry_postli_1
        0x0000015a:    f003fb89    ....    BL       main ; 0x3870
        0x0000015e:    f001f928    ..(.    BL       exit ; 0x13b2
    .ARM.Collect$$rtexit$$00000000
    __rt_exit
        0x00000162:    b403        ..      PUSH     {r0,r1}
    .ARM.Collect$$rtexit$$00000002
    .ARM.Collect$$rtexit$$00000003
    __rt_exit_ls
    __rt_exit_prels_1
        0x00000164:    f7fffff2    ....    BL       __rt_lib_shutdown ; 0x14c
    .ARM.Collect$$rtexit$$00000004
    __rt_exit_exit
        0x00000168:    bc03        ..      POP      {r0,r1}
        0x0000016a:    f001f96f    ..o.    BL       _sys_exit ; 0x144c
        0x0000016e:    0000        ..      MOVS     r0,r0
    .emb_text
    rand
        0x00000170:    b430        0.      PUSH     {r4,r5}
        0x00000172:    490c        .I      LDR      r1,[pc,#48] ; [0x1a4] = 0x20000434
        0x00000174:    680c        .h      LDR      r4,[r1,#0]
        0x00000176:    684a        Jh      LDR      r2,[r1,#4]
        0x00000178:    6823        #h      LDR      r3,[r4,#0]
        0x0000017a:    6810        .h      LDR      r0,[r2,#0]
        0x0000017c:    18c0        ..      ADDS     r0,r0,r3
        0x0000017e:    6010        .`      STR      r0,[r2,#0]
        0x00000180:    1d24        $.      ADDS     r4,r4,#4
        0x00000182:    1d12        ..      ADDS     r2,r2,#4
        0x00000184:    428c        .B      CMP      r4,r1
        0x00000186:    d207        ..      BCS      0x198 ; rand + 40
        0x00000188:    428a        .B      CMP      r2,r1
        0x0000018a:    d208        ..      BCS      0x19e ; rand + 46
        0x0000018c:    600c        .`      STR      r4,[r1,#0]
        0x0000018e:    604a        J`      STR      r2,[r1,#4]
        0x00000190:    bc30        0.      POP      {r4,r5}
        0x00000192:    0040        @.      LSLS     r0,r0,#1
        0x00000194:    0840        @.      LSRS     r0,r0,#1
        0x00000196:    4770        pG      BX       lr
        0x00000198:    000c        ..      MOVS     r4,r1
        0x0000019a:    3cdc        .<      SUBS     r4,r4,#0xdc
        0x0000019c:    e7f6        ..      B        0x18c ; rand + 28
        0x0000019e:    000a        ..      MOVS     r2,r1
        0x000001a0:    3adc        .:      SUBS     r2,r2,#0xdc
        0x000001a2:    e7f3        ..      B        0x18c ; rand + 28
    $d
        0x000001a4:    20000434    4..     DCD    536871988
    $t
    .text
    Reset_Handler
        0x000001a8:    4808        .H      LDR      r0,[pc,#32] ; [0x1cc] = 0x2a99
        0x000001aa:    4680        .F      MOV      r8,r0
        0x000001ac:    46c1        .F      MOV      r9,r8
        0x000001ae:    4780        .G      BLX      r0
        0x000001b0:    4807        .H      LDR      r0,[pc,#28] ; [0x1d0] = 0xa9
        0x000001b2:    4700        .G      BX       r0
    NMI_Handler
        0x000001b4:    e7fe        ..      B        NMI_Handler ; 0x1b4
    HardFault_Handler
        0x000001b6:    e7fe        ..      B        HardFault_Handler ; 0x1b6
    SVC_Handler
        0x000001b8:    e7fe        ..      B        SVC_Handler ; 0x1b8
    PendSV_Handler
        0x000001ba:    e7fe        ..      B        PendSV_Handler ; 0x1ba
        0x000001bc:    e7fe        ..      B        0x1bc ; PendSV_Handler + 2
    DMA_Handler
    DUALTIMER_HANDLER
    ETHERNET_Handler
    I2S_Handler
    PORT0_0_Handler
    PORT0_10_Handler
    PORT0_11_Handler
    PORT0_12_Handler
    PORT0_13_Handler
    PORT0_14_Handler
    PORT0_15_Handler
    PORT0_1_Handler
    PORT0_2_Handler
    PORT0_3_Handler
    PORT0_4_Handler
    PORT0_5_Handler
    PORT0_6_Handler
    PORT0_7_Handler
    PORT0_8_Handler
    PORT0_9_Handler
    PORT0_COMB_Handler
    PORT1_COMB_Handler
    SPI_ALL_Handler
    TIMER0_Handler
    TIMER1_Handler
    UARTOVF_Handler
    UARTRX2_Handler
    UARTTX0_Handler
    UARTTX1_Handler
    UARTTX2_Handler
        0x000001be:    e7fe        ..      B        DMA_Handler ; 0x1be
    __user_initial_stackheap
        0x000001c0:    4804        .H      LDR      r0,[pc,#16] ; [0x1d4] = 0x200004a0
        0x000001c2:    4905        .I      LDR      r1,[pc,#20] ; [0x1d8] = 0x200007a0
        0x000001c4:    4a05        .J      LDR      r2,[pc,#20] ; [0x1dc] = 0x200005a0
        0x000001c6:    4b06        .K      LDR      r3,[pc,#24] ; [0x1e0] = 0x200005a0
        0x000001c8:    4770        pG      BX       lr
    $d
        0x000001ca:    0000        ..      DCW    0
        0x000001cc:    00002a99    .*..    DCD    10905
        0x000001d0:    000000a9    ....    DCD    169
        0x000001d4:    200004a0    ...     DCD    536872096
        0x000001d8:    200007a0    ...     DCD    536872864
        0x000001dc:    200005a0    ...     DCD    536872352
        0x000001e0:    200005a0    ...     DCD    536872352
    $t
    .text
    __2sprintf
        0x000001e4:    b40f        ..      PUSH     {r0-r3}
        0x000001e6:    b51c        ..      PUSH     {r2-r4,lr}
        0x000001e8:    4b07        .K      LDR      r3,[pc,#28] ; [0x208] = 0x9e5
        0x000001ea:    aa06        ..      ADD      r2,sp,#0x18
        0x000001ec:    447b        {D      ADD      r3,r3,pc
        0x000001ee:    4669        iF      MOV      r1,sp
        0x000001f0:    9000        ..      STR      r0,[sp,#0]
        0x000001f2:    9805        ..      LDR      r0,[sp,#0x14]
        0x000001f4:    f000fcdb    ....    BL       _printf_char_common ; 0xbae
        0x000001f8:    2000        .       MOVS     r0,#0
        0x000001fa:    4669        iF      MOV      r1,sp
        0x000001fc:    f000fcea    ....    BL       _sputc ; 0xbd4
        0x00000200:    bc1c        ..      POP      {r2-r4}
        0x00000202:    bc08        ..      POP      {r3}
        0x00000204:    b004        ..      ADD      sp,sp,#0x10
        0x00000206:    4718        .G      BX       r3
    $d
        0x00000208:    000009e5    ....    DCD    2533
    $t
    .text
    __printf
        0x0000020c:    b5f3        ..      PUSH     {r0,r1,r4-r7,lr}
        0x0000020e:    4604        .F      MOV      r4,r0
        0x00000210:    2000        .       MOVS     r0,#0
        0x00000212:    b081        ..      SUB      sp,sp,#4
        0x00000214:    6220         b      STR      r0,[r4,#0x20]
        0x00000216:    4620         F      MOV      r0,r4
        0x00000218:    68e1        .h      LDR      r1,[r4,#0xc]
        0x0000021a:    4788        .G      BLX      r1
        0x0000021c:    2800        .(      CMP      r0,#0
        0x0000021e:    d07a        z.      BEQ      0x316 ; __printf + 266
        0x00000220:    2825        %(      CMP      r0,#0x25
        0x00000222:    d002        ..      BEQ      0x22a ; __printf + 30
        0x00000224:    6862        bh      LDR      r2,[r4,#4]
        0x00000226:    68a1        .h      LDR      r1,[r4,#8]
        0x00000228:    e071        q.      B        0x30e ; __printf + 258
        0x0000022a:    68e1        .h      LDR      r1,[r4,#0xc]
        0x0000022c:    4620         F      MOV      r0,r4
        0x0000022e:    2500        .%      MOVS     r5,#0
        0x00000230:    4788        .G      BLX      r1
        0x00000232:    4606        .F      MOV      r6,r0
        0x00000234:    2000        .       MOVS     r0,#0
        0x00000236:    61e0        .a      STR      r0,[r4,#0x1c]
        0x00000238:    4607        .F      MOV      r7,r0
        0x0000023a:    61a0        .a      STR      r0,[r4,#0x18]
        0x0000023c:    2e2a        *.      CMP      r6,#0x2a
        0x0000023e:    d00a        ..      BEQ      0x256 ; __printf + 74
        0x00000240:    4630        0F      MOV      r0,r6
        0x00000242:    f003faed    ....    BL       _is_digit ; 0x3820
        0x00000246:    2800        .(      CMP      r0,#0
        0x00000248:    d027        '.      BEQ      0x29a ; __printf + 142
        0x0000024a:    00b8        ..      LSLS     r0,r7,#2
        0x0000024c:    1900        ..      ADDS     r0,r0,r4
        0x0000024e:    3e30        0>      SUBS     r6,r6,#0x30
        0x00000250:    9000        ..      STR      r0,[sp,#0]
        0x00000252:    6186        .a      STR      r6,[r0,#0x18]
        0x00000254:    e019        ..      B        0x28a ; __printf + 126
        0x00000256:    9802        ..      LDR      r0,[sp,#8]
        0x00000258:    00ba        ..      LSLS     r2,r7,#2
        0x0000025a:    1912        ..      ADDS     r2,r2,r4
        0x0000025c:    c802        ..      LDM      r0!,{r1}
        0x0000025e:    6191        .a      STR      r1,[r2,#0x18]
        0x00000260:    9002        ..      STR      r0,[sp,#8]
        0x00000262:    4620         F      MOV      r0,r4
        0x00000264:    68e1        .h      LDR      r1,[r4,#0xc]
        0x00000266:    4788        .G      BLX      r1
        0x00000268:    2f01        ./      CMP      r7,#1
        0x0000026a:    4606        .F      MOV      r6,r0
        0x0000026c:    d117        ..      BNE      0x29e ; __printf + 146
        0x0000026e:    69e0        .i      LDR      r0,[r4,#0x1c]
        0x00000270:    2800        .(      CMP      r0,#0
        0x00000272:    da1f        ..      BGE      0x2b4 ; __printf + 168
        0x00000274:    2020                MOVS     r0,#0x20
        0x00000276:    4385        .C      BICS     r5,r5,r0
        0x00000278:    e01c        ..      B        0x2b4 ; __printf + 168
        0x0000027a:    9800        ..      LDR      r0,[sp,#0]
        0x0000027c:    210a        .!      MOVS     r1,#0xa
        0x0000027e:    6980        .i      LDR      r0,[r0,#0x18]
        0x00000280:    4348        HC      MULS     r0,r1,r0
        0x00000282:    9900        ..      LDR      r1,[sp,#0]
        0x00000284:    1980        ..      ADDS     r0,r0,r6
        0x00000286:    3830        08      SUBS     r0,r0,#0x30
        0x00000288:    6188        .a      STR      r0,[r1,#0x18]
        0x0000028a:    4620         F      MOV      r0,r4
        0x0000028c:    68e1        .h      LDR      r1,[r4,#0xc]
        0x0000028e:    4788        .G      BLX      r1
        0x00000290:    4606        .F      MOV      r6,r0
        0x00000292:    f003fac5    ....    BL       _is_digit ; 0x3820
        0x00000296:    2800        .(      CMP      r0,#0
        0x00000298:    d1ef        ..      BNE      0x27a ; __printf + 110
        0x0000029a:    2f01        ./      CMP      r7,#1
        0x0000029c:    d00a        ..      BEQ      0x2b4 ; __printf + 168
        0x0000029e:    2e2e        ..      CMP      r6,#0x2e
        0x000002a0:    d108        ..      BNE      0x2b4 ; __printf + 168
        0x000002a2:    4620         F      MOV      r0,r4
        0x000002a4:    68e1        .h      LDR      r1,[r4,#0xc]
        0x000002a6:    4788        .G      BLX      r1
        0x000002a8:    4606        .F      MOV      r6,r0
        0x000002aa:    2020                MOVS     r0,#0x20
        0x000002ac:    4305        .C      ORRS     r5,r5,r0
        0x000002ae:    1c7f        ..      ADDS     r7,r7,#1
        0x000002b0:    2f02        ./      CMP      r7,#2
        0x000002b2:    dbc3        ..      BLT      0x23c ; __printf + 48
        0x000002b4:    69a0        .i      LDR      r0,[r4,#0x18]
        0x000002b6:    2800        .(      CMP      r0,#0
        0x000002b8:    da03        ..      BGE      0x2c2 ; __printf + 182
        0x000002ba:    4240        @B      RSBS     r0,r0,#0
        0x000002bc:    61a0        .a      STR      r0,[r4,#0x18]
        0x000002be:    2001        .       MOVS     r0,#1
        0x000002c0:    4305        .C      ORRS     r5,r5,r0
        0x000002c2:    07e8        ..      LSLS     r0,r5,#31
        0x000002c4:    d001        ..      BEQ      0x2ca ; __printf + 190
        0x000002c6:    2010        .       MOVS     r0,#0x10
        0x000002c8:    4385        .C      BICS     r5,r5,r0
        0x000002ca:    2e00        ..      CMP      r6,#0
        0x000002cc:    d023        #.      BEQ      0x316 ; __printf + 266
        0x000002ce:    4630        0F      MOV      r0,r6
        0x000002d0:    3841        A8      SUBS     r0,r0,#0x41
        0x000002d2:    2819        .(      CMP      r0,#0x19
        0x000002d4:    d803        ..      BHI      0x2de ; __printf + 210
        0x000002d6:    2001        .       MOVS     r0,#1
        0x000002d8:    02c0        ..      LSLS     r0,r0,#11
        0x000002da:    4305        .C      ORRS     r5,r5,r0
        0x000002dc:    3620         6      ADDS     r6,r6,#0x20
        0x000002de:    4620         F      MOV      r0,r4
        0x000002e0:    6025        %`      STR      r5,[r4,#0]
        0x000002e2:    4631        1F      MOV      r1,r6
        0x000002e4:    9a02        ..      LDR      r2,[sp,#8]
        0x000002e6:    4615        .F      MOV      r5,r2
        0x000002e8:    f7ffff1c    ....    BL       _printf_percent ; 0x124
        0x000002ec:    2800        .(      CMP      r0,#0
        0x000002ee:    d00b        ..      BEQ      0x308 ; __printf + 252
        0x000002f0:    2801        .(      CMP      r0,#1
        0x000002f2:    d006        ..      BEQ      0x302 ; __printf + 246
        0x000002f4:    1ded        ..      ADDS     r5,r5,#7
        0x000002f6:    08e8        ..      LSRS     r0,r5,#3
        0x000002f8:    00c0        ..      LSLS     r0,r0,#3
        0x000002fa:    3008        .0      ADDS     r0,r0,#8
        0x000002fc:    9002        ..      STR      r0,[sp,#8]
        0x000002fe:    e78a        ..      B        0x216 ; __printf + 10
        0x00000300:    e009        ..      B        0x316 ; __printf + 266
        0x00000302:    1d2d        -.      ADDS     r5,r5,#4
        0x00000304:    9502        ..      STR      r5,[sp,#8]
        0x00000306:    e786        ..      B        0x216 ; __printf + 10
        0x00000308:    6862        bh      LDR      r2,[r4,#4]
        0x0000030a:    4630        0F      MOV      r0,r6
        0x0000030c:    68a1        .h      LDR      r1,[r4,#8]
        0x0000030e:    4790        .G      BLX      r2
        0x00000310:    6a20         j      LDR      r0,[r4,#0x20]
        0x00000312:    1c40        @.      ADDS     r0,r0,#1
        0x00000314:    e77e        ~.      B        0x214 ; __printf + 8
        0x00000316:    6a20         j      LDR      r0,[r4,#0x20]
        0x00000318:    bdfe        ..      POP      {r1-r7,pc}
        0x0000031a:    0000        ..      MOVS     r0,r0
    .text
    srand
        0x0000031c:    4a0b        .J      LDR      r2,[pc,#44] ; [0x34c] = 0x200003d4
        0x0000031e:    b530        0.      PUSH     {r4,r5,lr}
        0x00000320:    4611        .F      MOV      r1,r2
        0x00000322:    4c0b        .L      LDR      r4,[pc,#44] ; [0x350] = 0x66d619e1
        0x00000324:    3160        `1      ADDS     r1,r1,#0x60
        0x00000326:    460b        .F      MOV      r3,r1
        0x00000328:    3bdc        .;      SUBS     r3,r3,#0xdc
        0x0000032a:    c10c        ..      STM      r1!,{r2,r3}
        0x0000032c:    2137        7!      MOVS     r1,#0x37
        0x0000032e:    e006        ..      B        0x33e ; srand + 34
        0x00000330:    0c02        ..      LSRS     r2,r0,#16
        0x00000332:    008d        ..      LSLS     r5,r1,#2
        0x00000334:    1812        ..      ADDS     r2,r2,r0
        0x00000336:    515a        ZQ      STR      r2,[r3,r5]
        0x00000338:    4a06        .J      LDR      r2,[pc,#24] ; [0x354] = 0x10dcd
        0x0000033a:    4350        PC      MULS     r0,r2,r0
        0x0000033c:    1900        ..      ADDS     r0,r0,r4
        0x0000033e:    460a        .F      MOV      r2,r1
        0x00000340:    1e49        I.      SUBS     r1,r1,#1
        0x00000342:    2a00        .*      CMP      r2,#0
        0x00000344:    dcf4        ..      BGT      0x330 ; srand + 20
        0x00000346:    bd30        0.      POP      {r4,r5,pc}
    _rand_init
        0x00000348:    2001        .       MOVS     r0,#1
        0x0000034a:    e7e7        ..      B        srand ; 0x31c
    $d
        0x0000034c:    200003d4    ...     DCD    536871892
        0x00000350:    66d619e1    ...f    DCD    1725307361
        0x00000354:    00010dcd    ....    DCD    69069
    $t
    .text
    __aeabi_uidiv
    __aeabi_uidivmod
        0x00000358:    2200        ."      MOVS     r2,#0
        0x0000035a:    0903        ..      LSRS     r3,r0,#4
        0x0000035c:    428b        .B      CMP      r3,r1
        0x0000035e:    d32c        ,.      BCC      0x3ba ; __aeabi_idiv + 78
        0x00000360:    0a03        ..      LSRS     r3,r0,#8
        0x00000362:    428b        .B      CMP      r3,r1
        0x00000364:    d311        ..      BCC      0x38a ; __aeabi_idiv + 30
        0x00000366:    2300        .#      MOVS     r3,#0
        0x00000368:    469c        .F      MOV      r12,r3
        0x0000036a:    e04e        N.      B        0x40a ; __aeabi_idiv + 158
    __aeabi_idiv
    __aeabi_idivmod
        0x0000036c:    4603        .F      MOV      r3,r0
        0x0000036e:    430b        .C      ORRS     r3,r3,r1
        0x00000370:    d43c        <.      BMI      0x3ec ; __aeabi_idiv + 128
        0x00000372:    2200        ."      MOVS     r2,#0
        0x00000374:    0843        C.      LSRS     r3,r0,#1
        0x00000376:    428b        .B      CMP      r3,r1
        0x00000378:    d331        1.      BCC      0x3de ; __aeabi_idiv + 114
        0x0000037a:    0903        ..      LSRS     r3,r0,#4
        0x0000037c:    428b        .B      CMP      r3,r1
        0x0000037e:    d31c        ..      BCC      0x3ba ; __aeabi_idiv + 78
        0x00000380:    0a03        ..      LSRS     r3,r0,#8
        0x00000382:    428b        .B      CMP      r3,r1
        0x00000384:    d301        ..      BCC      0x38a ; __aeabi_idiv + 30
        0x00000386:    4694        .F      MOV      r12,r2
        0x00000388:    e03f        ?.      B        0x40a ; __aeabi_idiv + 158
        0x0000038a:    09c3        ..      LSRS     r3,r0,#7
        0x0000038c:    428b        .B      CMP      r3,r1
        0x0000038e:    d301        ..      BCC      0x394 ; __aeabi_idiv + 40
        0x00000390:    01cb        ..      LSLS     r3,r1,#7
        0x00000392:    1ac0        ..      SUBS     r0,r0,r3
        0x00000394:    4152        RA      ADCS     r2,r2,r2
        0x00000396:    0983        ..      LSRS     r3,r0,#6
        0x00000398:    428b        .B      CMP      r3,r1
        0x0000039a:    d301        ..      BCC      0x3a0 ; __aeabi_idiv + 52
        0x0000039c:    018b        ..      LSLS     r3,r1,#6
        0x0000039e:    1ac0        ..      SUBS     r0,r0,r3
        0x000003a0:    4152        RA      ADCS     r2,r2,r2
        0x000003a2:    0943        C.      LSRS     r3,r0,#5
        0x000003a4:    428b        .B      CMP      r3,r1
        0x000003a6:    d301        ..      BCC      0x3ac ; __aeabi_idiv + 64
        0x000003a8:    014b        K.      LSLS     r3,r1,#5
        0x000003aa:    1ac0        ..      SUBS     r0,r0,r3
        0x000003ac:    4152        RA      ADCS     r2,r2,r2
        0x000003ae:    0903        ..      LSRS     r3,r0,#4
        0x000003b0:    428b        .B      CMP      r3,r1
        0x000003b2:    d301        ..      BCC      0x3b8 ; __aeabi_idiv + 76
        0x000003b4:    010b        ..      LSLS     r3,r1,#4
        0x000003b6:    1ac0        ..      SUBS     r0,r0,r3
        0x000003b8:    4152        RA      ADCS     r2,r2,r2
        0x000003ba:    08c3        ..      LSRS     r3,r0,#3
        0x000003bc:    428b        .B      CMP      r3,r1
        0x000003be:    d301        ..      BCC      0x3c4 ; __aeabi_idiv + 88
        0x000003c0:    00cb        ..      LSLS     r3,r1,#3
        0x000003c2:    1ac0        ..      SUBS     r0,r0,r3
        0x000003c4:    4152        RA      ADCS     r2,r2,r2
        0x000003c6:    0883        ..      LSRS     r3,r0,#2
        0x000003c8:    428b        .B      CMP      r3,r1
        0x000003ca:    d301        ..      BCC      0x3d0 ; __aeabi_idiv + 100
        0x000003cc:    008b        ..      LSLS     r3,r1,#2
        0x000003ce:    1ac0        ..      SUBS     r0,r0,r3
        0x000003d0:    4152        RA      ADCS     r2,r2,r2
        0x000003d2:    0843        C.      LSRS     r3,r0,#1
        0x000003d4:    428b        .B      CMP      r3,r1
        0x000003d6:    d301        ..      BCC      0x3dc ; __aeabi_idiv + 112
        0x000003d8:    004b        K.      LSLS     r3,r1,#1
        0x000003da:    1ac0        ..      SUBS     r0,r0,r3
        0x000003dc:    4152        RA      ADCS     r2,r2,r2
        0x000003de:    1a41        A.      SUBS     r1,r0,r1
        0x000003e0:    d200        ..      BCS      0x3e4 ; __aeabi_idiv + 120
        0x000003e2:    4601        .F      MOV      r1,r0
        0x000003e4:    4152        RA      ADCS     r2,r2,r2
        0x000003e6:    4610        .F      MOV      r0,r2
        0x000003e8:    4770        pG      BX       lr
        0x000003ea:    e05d        ].      B        0x4a8 ; __aeabi_idiv + 316
        0x000003ec:    0fca        ..      LSRS     r2,r1,#31
        0x000003ee:    d000        ..      BEQ      0x3f2 ; __aeabi_idiv + 134
        0x000003f0:    4249        IB      RSBS     r1,r1,#0
        0x000003f2:    1003        ..      ASRS     r3,r0,#32
        0x000003f4:    d300        ..      BCC      0x3f8 ; __aeabi_idiv + 140
        0x000003f6:    4240        @B      RSBS     r0,r0,#0
        0x000003f8:    4053        S@      EORS     r3,r3,r2
        0x000003fa:    2200        ."      MOVS     r2,#0
        0x000003fc:    469c        .F      MOV      r12,r3
        0x000003fe:    0903        ..      LSRS     r3,r0,#4
        0x00000400:    428b        .B      CMP      r3,r1
        0x00000402:    d32d        -.      BCC      0x460 ; __aeabi_idiv + 244
        0x00000404:    0a03        ..      LSRS     r3,r0,#8
        0x00000406:    428b        .B      CMP      r3,r1
        0x00000408:    d312        ..      BCC      0x430 ; __aeabi_idiv + 196
        0x0000040a:    22fc        ."      MOVS     r2,#0xfc
        0x0000040c:    0189        ..      LSLS     r1,r1,#6
        0x0000040e:    ba12        ..      REV      r2,r2
        0x00000410:    0a03        ..      LSRS     r3,r0,#8
        0x00000412:    428b        .B      CMP      r3,r1
        0x00000414:    d30c        ..      BCC      0x430 ; __aeabi_idiv + 196
        0x00000416:    0189        ..      LSLS     r1,r1,#6
        0x00000418:    1192        ..      ASRS     r2,r2,#6
        0x0000041a:    428b        .B      CMP      r3,r1
        0x0000041c:    d308        ..      BCC      0x430 ; __aeabi_idiv + 196
        0x0000041e:    0189        ..      LSLS     r1,r1,#6
        0x00000420:    1192        ..      ASRS     r2,r2,#6
        0x00000422:    428b        .B      CMP      r3,r1
        0x00000424:    d304        ..      BCC      0x430 ; __aeabi_idiv + 196
        0x00000426:    0189        ..      LSLS     r1,r1,#6
        0x00000428:    d03a        :.      BEQ      0x4a0 ; __aeabi_idiv + 308
        0x0000042a:    1192        ..      ASRS     r2,r2,#6
        0x0000042c:    e000        ..      B        0x430 ; __aeabi_idiv + 196
        0x0000042e:    0989        ..      LSRS     r1,r1,#6
        0x00000430:    09c3        ..      LSRS     r3,r0,#7
        0x00000432:    428b        .B      CMP      r3,r1
        0x00000434:    d301        ..      BCC      0x43a ; __aeabi_idiv + 206
        0x00000436:    01cb        ..      LSLS     r3,r1,#7
        0x00000438:    1ac0        ..      SUBS     r0,r0,r3
        0x0000043a:    4152        RA      ADCS     r2,r2,r2
        0x0000043c:    0983        ..      LSRS     r3,r0,#6
        0x0000043e:    428b        .B      CMP      r3,r1
        0x00000440:    d301        ..      BCC      0x446 ; __aeabi_idiv + 218
        0x00000442:    018b        ..      LSLS     r3,r1,#6
        0x00000444:    1ac0        ..      SUBS     r0,r0,r3
        0x00000446:    4152        RA      ADCS     r2,r2,r2
        0x00000448:    0943        C.      LSRS     r3,r0,#5
        0x0000044a:    428b        .B      CMP      r3,r1
        0x0000044c:    d301        ..      BCC      0x452 ; __aeabi_idiv + 230
        0x0000044e:    014b        K.      LSLS     r3,r1,#5
        0x00000450:    1ac0        ..      SUBS     r0,r0,r3
        0x00000452:    4152        RA      ADCS     r2,r2,r2
        0x00000454:    0903        ..      LSRS     r3,r0,#4
        0x00000456:    428b        .B      CMP      r3,r1
        0x00000458:    d301        ..      BCC      0x45e ; __aeabi_idiv + 242
        0x0000045a:    010b        ..      LSLS     r3,r1,#4
        0x0000045c:    1ac0        ..      SUBS     r0,r0,r3
        0x0000045e:    4152        RA      ADCS     r2,r2,r2
        0x00000460:    08c3        ..      LSRS     r3,r0,#3
        0x00000462:    428b        .B      CMP      r3,r1
        0x00000464:    d301        ..      BCC      0x46a ; __aeabi_idiv + 254
        0x00000466:    00cb        ..      LSLS     r3,r1,#3
        0x00000468:    1ac0        ..      SUBS     r0,r0,r3
        0x0000046a:    4152        RA      ADCS     r2,r2,r2
        0x0000046c:    0883        ..      LSRS     r3,r0,#2
        0x0000046e:    428b        .B      CMP      r3,r1
        0x00000470:    d301        ..      BCC      0x476 ; __aeabi_idiv + 266
        0x00000472:    008b        ..      LSLS     r3,r1,#2
        0x00000474:    1ac0        ..      SUBS     r0,r0,r3
        0x00000476:    4152        RA      ADCS     r2,r2,r2
        0x00000478:    d2d9        ..      BCS      0x42e ; __aeabi_idiv + 194
        0x0000047a:    0843        C.      LSRS     r3,r0,#1
        0x0000047c:    428b        .B      CMP      r3,r1
        0x0000047e:    d301        ..      BCC      0x484 ; __aeabi_idiv + 280
        0x00000480:    004b        K.      LSLS     r3,r1,#1
        0x00000482:    1ac0        ..      SUBS     r0,r0,r3
        0x00000484:    4152        RA      ADCS     r2,r2,r2
        0x00000486:    1a41        A.      SUBS     r1,r0,r1
        0x00000488:    d200        ..      BCS      0x48c ; __aeabi_idiv + 288
        0x0000048a:    4601        .F      MOV      r1,r0
        0x0000048c:    4663        cF      MOV      r3,r12
        0x0000048e:    4152        RA      ADCS     r2,r2,r2
        0x00000490:    105b        [.      ASRS     r3,r3,#1
        0x00000492:    4610        .F      MOV      r0,r2
        0x00000494:    d301        ..      BCC      0x49a ; __aeabi_idiv + 302
        0x00000496:    4240        @B      RSBS     r0,r0,#0
        0x00000498:    2b00        .+      CMP      r3,#0
        0x0000049a:    d500        ..      BPL      0x49e ; __aeabi_idiv + 306
        0x0000049c:    4249        IB      RSBS     r1,r1,#0
        0x0000049e:    4770        pG      BX       lr
        0x000004a0:    4663        cF      MOV      r3,r12
        0x000004a2:    105b        [.      ASRS     r3,r3,#1
        0x000004a4:    d300        ..      BCC      0x4a8 ; __aeabi_idiv + 316
        0x000004a6:    4240        @B      RSBS     r0,r0,#0
        0x000004a8:    b501        ..      PUSH     {r0,lr}
        0x000004aa:    2000        .       MOVS     r0,#0
        0x000004ac:    46c0        .F      MOV      r8,r8
        0x000004ae:    46c0        .F      MOV      r8,r8
        0x000004b0:    bd02        ..      POP      {r1,pc}
    .text
    __use_two_region_memory
        0x000004b2:    4770        pG      BX       lr
    __rt_heap_escrow$2region
        0x000004b4:    4770        pG      BX       lr
    __rt_heap_expand$2region
        0x000004b6:    4770        pG      BX       lr
    .text
    __aeabi_f2d
    _f2d
        0x000004b8:    2101        .!      MOVS     r1,#1
        0x000004ba:    05c9        ..      LSLS     r1,r1,#23
        0x000004bc:    2301        .#      MOVS     r3,#1
        0x000004be:    1841        A.      ADDS     r1,r0,r1
        0x000004c0:    0042        B.      LSLS     r2,r0,#1
        0x000004c2:    061b        ..      LSLS     r3,r3,#24
        0x000004c4:    18d3        ..      ADDS     r3,r2,r3
        0x000004c6:    0e5b        [.      LSRS     r3,r3,#25
        0x000004c8:    d00a        ..      BEQ      0x4e0 ; __aeabi_f2d + 40
        0x000004ca:    10c1        ..      ASRS     r1,r0,#3
        0x000004cc:    2207        ."      MOVS     r2,#7
        0x000004ce:    06d2        ..      LSLS     r2,r2,#27
        0x000004d0:    1889        ..      ADDS     r1,r1,r2
        0x000004d2:    0740        @.      LSLS     r0,r0,#29
        0x000004d4:    4252        RB      RSBS     r2,r2,#0
        0x000004d6:    42d1        .B      CMN      r1,r2
        0x000004d8:    d501        ..      BPL      0x4de ; __aeabi_f2d + 38
        0x000004da:    0052        R.      LSLS     r2,r2,#1
        0x000004dc:    1889        ..      ADDS     r1,r1,r2
        0x000004de:    4770        pG      BX       lr
        0x000004e0:    0209        ..      LSLS     r1,r1,#8
        0x000004e2:    d508        ..      BPL      0x4f6 ; __aeabi_f2d + 62
        0x000004e4:    4601        .F      MOV      r1,r0
        0x000004e6:    2a00        .*      CMP      r2,#0
        0x000004e8:    d003        ..      BEQ      0x4f2 ; __aeabi_f2d + 58
        0x000004ea:    0fc1        ..      LSRS     r1,r0,#31
        0x000004ec:    07c9        ..      LSLS     r1,r1,#31
        0x000004ee:    2000        .       MOVS     r0,#0
        0x000004f0:    4770        pG      BX       lr
        0x000004f2:    4610        .F      MOV      r0,r2
        0x000004f4:    4770        pG      BX       lr
        0x000004f6:    0242        B.      LSLS     r2,r0,#9
        0x000004f8:    d002        ..      BEQ      0x500 ; __aeabi_f2d + 72
        0x000004fa:    2000        .       MOVS     r0,#0
        0x000004fc:    4902        .I      LDR      r1,[pc,#8] ; [0x508] = 0x7ff80000
        0x000004fe:    4770        pG      BX       lr
        0x00000500:    2107        .!      MOVS     r1,#7
        0x00000502:    0509        ..      LSLS     r1,r1,#20
        0x00000504:    4301        .C      ORRS     r1,r1,r0
        0x00000506:    e7f4        ..      B        0x4f2 ; __aeabi_f2d + 58
    $d
        0x00000508:    7ff80000    ....    DCD    2146959360
    $t
    .text
    __aeabi_fdiv
    _fdiv
        0x0000050c:    b5f0        ..      PUSH     {r4-r7,lr}
        0x0000050e:    25ff        .%      MOVS     r5,#0xff
        0x00000510:    042d        -.      LSLS     r5,r5,#16
        0x00000512:    09c6        ..      LSRS     r6,r0,#7
        0x00000514:    09c2        ..      LSRS     r2,r0,#7
        0x00000516:    27ff        .'      MOVS     r7,#0xff
        0x00000518:    4604        .F      MOV      r4,r0
        0x0000051a:    402e        .@      ANDS     r6,r6,r5
        0x0000051c:    3701        .7      ADDS     r7,#1
        0x0000051e:    09cb        ..      LSRS     r3,r1,#7
        0x00000520:    433e        >C      ORRS     r6,r6,r7
        0x00000522:    4048        H@      EORS     r0,r0,r1
        0x00000524:    402a        *@      ANDS     r2,r2,r5
        0x00000526:    402b        +@      ANDS     r3,r3,r5
        0x00000528:    4607        .F      MOV      r7,r0
        0x0000052a:    2a00        .*      CMP      r2,#0
        0x0000052c:    d06b        k.      BEQ      0x606 ; __aeabi_fdiv + 250
        0x0000052e:    2b00        .+      CMP      r3,#0
        0x00000530:    d069        i.      BEQ      0x606 ; __aeabi_fdiv + 250
        0x00000532:    42aa        .B      CMP      r2,r5
        0x00000534:    d067        g.      BEQ      0x606 ; __aeabi_fdiv + 250
        0x00000536:    42ab        .B      CMP      r3,r5
        0x00000538:    d065        e.      BEQ      0x606 ; __aeabi_fdiv + 250
        0x0000053a:    2800        .(      CMP      r0,#0
        0x0000053c:    da00        ..      BGE      0x540 ; __aeabi_fdiv + 52
        0x0000053e:    4632        2F      MOV      r2,r6
        0x00000540:    2501        .%      MOVS     r5,#1
        0x00000542:    05ed        ..      LSLS     r5,r5,#23
        0x00000544:    4329        )C      ORRS     r1,r1,r5
        0x00000546:    432c        ,C      ORRS     r4,r4,r5
        0x00000548:    0209        ..      LSLS     r1,r1,#8
        0x0000054a:    0220         .      LSLS     r0,r4,#8
        0x0000054c:    0a09        ..      LSRS     r1,r1,#8
        0x0000054e:    1ad2        ..      SUBS     r2,r2,r3
        0x00000550:    0c4b        K.      LSRS     r3,r1,#17
        0x00000552:    247f        .$      MOVS     r4,#0x7f
        0x00000554:    1ae3        ..      SUBS     r3,r4,r3
        0x00000556:    4c43        CL      LDR      r4,[pc,#268] ; [0x664] = 0x74fa
        0x00000558:    0a00        ..      LSRS     r0,r0,#8
        0x0000055a:    447c        |D      ADD      r4,r4,pc
        0x0000055c:    5ce3        .\      LDRB     r3,[r4,r3]
        0x0000055e:    247d        }$      MOVS     r4,#0x7d
        0x00000560:    0424        $.      LSLS     r4,r4,#16
        0x00000562:    1912        ..      ADDS     r2,r2,r4
        0x00000564:    1414        ..      ASRS     r4,r2,#16
        0x00000566:    005b        [.      LSLS     r3,r3,#1
        0x00000568:    18a2        ..      ADDS     r2,r4,r2
        0x0000056a:    4288        .B      CMP      r0,r1
        0x0000056c:    d301        ..      BCC      0x572 ; __aeabi_fdiv + 102
        0x0000056e:    1c52        R.      ADDS     r2,r2,#1
        0x00000570:    e000        ..      B        0x574 ; __aeabi_fdiv + 104
        0x00000572:    0040        @.      LSLS     r0,r0,#1
        0x00000574:    4249        IB      RSBS     r1,r1,#0
        0x00000576:    460c        .F      MOV      r4,r1
        0x00000578:    435c        \C      MULS     r4,r3,r4
        0x0000057a:    1124        $.      ASRS     r4,r4,#4
        0x0000057c:    435c        \C      MULS     r4,r3,r4
        0x0000057e:    01db        ..      LSLS     r3,r3,#7
        0x00000580:    1564        d.      ASRS     r4,r4,#21
        0x00000582:    18e3        ..      ADDS     r3,r4,r3
        0x00000584:    0a04        ..      LSRS     r4,r0,#8
        0x00000586:    435c        \C      MULS     r4,r3,r4
        0x00000588:    02c5        ..      LSLS     r5,r0,#11
        0x0000058a:    0d20         .      LSRS     r0,r4,#20
        0x0000058c:    460c        .F      MOV      r4,r1
        0x0000058e:    4344        DC      MULS     r4,r0,r4
        0x00000590:    1964        d.      ADDS     r4,r4,r5
        0x00000592:    0a25        %.      LSRS     r5,r4,#8
        0x00000594:    435d        ]C      MULS     r5,r3,r5
        0x00000596:    0323        #.      LSLS     r3,r4,#12
        0x00000598:    0cec        ..      LSRS     r4,r5,#19
        0x0000059a:    460d        .F      MOV      r5,r1
        0x0000059c:    4365        eC      MULS     r5,r4,r5
        0x0000059e:    0300        ..      LSLS     r0,r0,#12
        0x000005a0:    1900        ..      ADDS     r0,r0,r4
        0x000005a2:    18eb        ..      ADDS     r3,r5,r3
        0x000005a4:    424c        LB      RSBS     r4,r1,#0
        0x000005a6:    42a3        .B      CMP      r3,r4
        0x000005a8:    d301        ..      BCC      0x5ae ; __aeabi_fdiv + 162
        0x000005aa:    185b        [.      ADDS     r3,r3,r1
        0x000005ac:    1c40        @.      ADDS     r0,r0,#1
        0x000005ae:    05d4        ..      LSLS     r4,r2,#23
        0x000005b0:    1820         .      ADDS     r0,r4,r0
        0x000005b2:    2b00        .+      CMP      r3,#0
        0x000005b4:    d007        ..      BEQ      0x5c6 ; __aeabi_fdiv + 186
        0x000005b6:    005b        [.      LSLS     r3,r3,#1
        0x000005b8:    18c9        ..      ADDS     r1,r1,r3
        0x000005ba:    d304        ..      BCC      0x5c6 ; __aeabi_fdiv + 186
        0x000005bc:    1c40        @.      ADDS     r0,r0,#1
        0x000005be:    2900        .)      CMP      r1,#0
        0x000005c0:    d101        ..      BNE      0x5c6 ; __aeabi_fdiv + 186
        0x000005c2:    0840        @.      LSRS     r0,r0,#1
        0x000005c4:    0040        @.      LSLS     r0,r0,#1
        0x000005c6:    213f        ?!      MOVS     r1,#0x3f
        0x000005c8:    0489        ..      LSLS     r1,r1,#18
        0x000005ca:    428a        .B      CMP      r2,r1
        0x000005cc:    d309        ..      BCC      0x5e2 ; __aeabi_fdiv + 214
        0x000005ce:    2a00        .*      CMP      r2,#0
        0x000005d0:    dc08        ..      BGT      0x5e4 ; __aeabi_fdiv + 216
        0x000005d2:    0611        ..      LSLS     r1,r2,#24
        0x000005d4:    0f09        ..      LSRS     r1,r1,#28
        0x000005d6:    d004        ..      BEQ      0x5e2 ; __aeabi_fdiv + 214
        0x000005d8:    2103        .!      MOVS     r1,#3
        0x000005da:    0749        I.      LSLS     r1,r1,#29
        0x000005dc:    1840        @.      ADDS     r0,r0,r1
        0x000005de:    0fc0        ..      LSRS     r0,r0,#31
        0x000005e0:    07c0        ..      LSLS     r0,r0,#31
        0x000005e2:    bdf0        ..      POP      {r4-r7,pc}
        0x000005e4:    2201        ."      MOVS     r2,#1
        0x000005e6:    0041        A.      LSLS     r1,r0,#1
        0x000005e8:    0612        ..      LSLS     r2,r2,#24
        0x000005ea:    1889        ..      ADDS     r1,r1,r2
        0x000005ec:    227f        ."      MOVS     r2,#0x7f
        0x000005ee:    0652        R.      LSLS     r2,r2,#25
        0x000005f0:    4291        .B      CMP      r1,r2
        0x000005f2:    d2f6        ..      BCS      0x5e2 ; __aeabi_fdiv + 214
        0x000005f4:    2105        .!      MOVS     r1,#5
        0x000005f6:    0749        I.      LSLS     r1,r1,#29
        0x000005f8:    42c8        .B      CMN      r0,r1
        0x000005fa:    d501        ..      BPL      0x600 ; __aeabi_fdiv + 244
        0x000005fc:    1090        ..      ASRS     r0,r2,#2
        0x000005fe:    bdf0        ..      POP      {r4-r7,pc}
        0x00000600:    20ff        .       MOVS     r0,#0xff
        0x00000602:    05c0        ..      LSLS     r0,r0,#23
        0x00000604:    bdf0        ..      POP      {r4-r7,pc}
        0x00000606:    2f00        ./      CMP      r7,#0
        0x00000608:    da00        ..      BGE      0x60c ; __aeabi_fdiv + 256
        0x0000060a:    4632        2F      MOV      r2,r6
        0x0000060c:    4816        .H      LDR      r0,[pc,#88] ; [0x668] = 0x7fc00000
        0x0000060e:    42aa        .B      CMP      r2,r5
        0x00000610:    d207        ..      BCS      0x622 ; __aeabi_fdiv + 278
        0x00000612:    42ab        .B      CMP      r3,r5
        0x00000614:    d205        ..      BCS      0x622 ; __aeabi_fdiv + 278
        0x00000616:    0219        ..      LSLS     r1,r3,#8
        0x00000618:    0e09        ..      LSRS     r1,r1,#24
        0x0000061a:    d017        ..      BEQ      0x64c ; __aeabi_fdiv + 320
        0x0000061c:    0ff8        ..      LSRS     r0,r7,#31
        0x0000061e:    07c0        ..      LSLS     r0,r0,#31
        0x00000620:    bdf0        ..      POP      {r4-r7,pc}
        0x00000622:    25ff        .%      MOVS     r5,#0xff
        0x00000624:    0063        c.      LSLS     r3,r4,#1
        0x00000626:    062d        -.      LSLS     r5,r5,#24
        0x00000628:    42ab        .B      CMP      r3,r5
        0x0000062a:    d8f9        ..      BHI      0x620 ; __aeabi_fdiv + 276
        0x0000062c:    0049        I.      LSLS     r1,r1,#1
        0x0000062e:    42a9        .B      CMP      r1,r5
        0x00000630:    d8f6        ..      BHI      0x620 ; __aeabi_fdiv + 276
        0x00000632:    42ab        .B      CMP      r3,r5
        0x00000634:    d101        ..      BNE      0x63a ; __aeabi_fdiv + 302
        0x00000636:    42a9        .B      CMP      r1,r5
        0x00000638:    d0f2        ..      BEQ      0x620 ; __aeabi_fdiv + 276
        0x0000063a:    42a9        .B      CMP      r1,r5
        0x0000063c:    d101        ..      BNE      0x642 ; __aeabi_fdiv + 310
        0x0000063e:    2100        .!      MOVS     r1,#0
        0x00000640:    e001        ..      B        0x646 ; __aeabi_fdiv + 314
        0x00000642:    0061        a.      LSLS     r1,r4,#1
        0x00000644:    0849        I.      LSRS     r1,r1,#1
        0x00000646:    05d0        ..      LSLS     r0,r2,#23
        0x00000648:    4308        .C      ORRS     r0,r0,r1
        0x0000064a:    bdf0        ..      POP      {r4-r7,pc}
        0x0000064c:    0211        ..      LSLS     r1,r2,#8
        0x0000064e:    0e09        ..      LSRS     r1,r1,#24
        0x00000650:    d0fb        ..      BEQ      0x64a ; __aeabi_fdiv + 318
        0x00000652:    20ff        .       MOVS     r0,#0xff
        0x00000654:    4302        .C      ORRS     r2,r2,r0
        0x00000656:    05d0        ..      LSLS     r0,r2,#23
        0x00000658:    bdf0        ..      POP      {r4-r7,pc}
    _frdiv
        0x0000065a:    460a        .F      MOV      r2,r1
        0x0000065c:    4601        .F      MOV      r1,r0
        0x0000065e:    4610        .F      MOV      r0,r2
        0x00000660:    e754        T.      B        __aeabi_fdiv ; 0x50c
    $d
        0x00000662:    0000        ..      DCW    0
        0x00000664:    000074fa    .t..    DCD    29946
        0x00000668:    7fc00000    ....    DCD    2143289344
    $t
    .text
    __aeabi_f2iz
    _ffix
        0x0000066c:    b510        ..      PUSH     {r4,lr}
        0x0000066e:    4601        .F      MOV      r1,r0
        0x00000670:    249e        .$      MOVS     r4,#0x9e
        0x00000672:    0200        ..      LSLS     r0,r0,#8
        0x00000674:    15ca        ..      ASRS     r2,r1,#23
        0x00000676:    07a3        ..      LSLS     r3,r4,#30
        0x00000678:    2a00        .*      CMP      r2,#0
        0x0000067a:    d002        ..      BEQ      0x682 ; __aeabi_f2iz + 22
        0x0000067c:    4318        .C      ORRS     r0,r0,r3
        0x0000067e:    2a00        .*      CMP      r2,#0
        0x00000680:    db04        ..      BLT      0x68c ; __aeabi_f2iz + 32
        0x00000682:    1aa2        ..      SUBS     r2,r4,r2
        0x00000684:    2a00        .*      CMP      r2,#0
        0x00000686:    dd0c        ..      BLE      0x6a2 ; __aeabi_f2iz + 54
        0x00000688:    40d0        .@      LSRS     r0,r0,r2
        0x0000068a:    bd10        ..      POP      {r4,pc}
        0x0000068c:    0612        ..      LSLS     r2,r2,#24
        0x0000068e:    0e12        ..      LSRS     r2,r2,#24
        0x00000690:    d101        ..      BNE      0x696 ; __aeabi_f2iz + 42
        0x00000692:    0040        @.      LSLS     r0,r0,#1
        0x00000694:    0840        @.      LSRS     r0,r0,#1
        0x00000696:    1aa2        ..      SUBS     r2,r4,r2
        0x00000698:    d403        ..      BMI      0x6a2 ; __aeabi_f2iz + 54
        0x0000069a:    40d0        .@      LSRS     r0,r0,r2
        0x0000069c:    4240        @B      RSBS     r0,r0,#0
        0x0000069e:    2800        .(      CMP      r0,#0
        0x000006a0:    ddf3        ..      BLE      0x68a ; __aeabi_f2iz + 30
        0x000006a2:    22ff        ."      MOVS     r2,#0xff
        0x000006a4:    0048        H.      LSLS     r0,r1,#1
        0x000006a6:    0612        ..      LSLS     r2,r2,#24
        0x000006a8:    4290        .B      CMP      r0,r2
        0x000006aa:    d901        ..      BLS      0x6b0 ; __aeabi_f2iz + 68
        0x000006ac:    2000        .       MOVS     r0,#0
        0x000006ae:    bd10        ..      POP      {r4,pc}
        0x000006b0:    17c8        ..      ASRS     r0,r1,#31
        0x000006b2:    43c0        .C      MVNS     r0,r0
        0x000006b4:    4058        X@      EORS     r0,r0,r3
        0x000006b6:    bd10        ..      POP      {r4,pc}
    .text
    __aeabi_f2uiz
    _ffixu
        0x000006b8:    0201        ..      LSLS     r1,r0,#8
        0x000006ba:    15c2        ..      ASRS     r2,r0,#23
        0x000006bc:    d004        ..      BEQ      0x6c8 ; __aeabi_f2uiz + 16
        0x000006be:    2301        .#      MOVS     r3,#1
        0x000006c0:    07db        ..      LSLS     r3,r3,#31
        0x000006c2:    4319        .C      ORRS     r1,r1,r3
        0x000006c4:    2a00        .*      CMP      r2,#0
        0x000006c6:    db0a        ..      BLT      0x6de ; __aeabi_f2uiz + 38
        0x000006c8:    239e        .#      MOVS     r3,#0x9e
        0x000006ca:    1a9a        ..      SUBS     r2,r3,r2
        0x000006cc:    d402        ..      BMI      0x6d4 ; __aeabi_f2uiz + 28
        0x000006ce:    4608        .F      MOV      r0,r1
        0x000006d0:    40d0        .@      LSRS     r0,r0,r2
        0x000006d2:    4770        pG      BX       lr
        0x000006d4:    22ff        ."      MOVS     r2,#0xff
        0x000006d6:    0041        A.      LSLS     r1,r0,#1
        0x000006d8:    0612        ..      LSLS     r2,r2,#24
        0x000006da:    4291        .B      CMP      r1,r2
        0x000006dc:    d901        ..      BLS      0x6e2 ; __aeabi_f2uiz + 42
        0x000006de:    2000        .       MOVS     r0,#0
        0x000006e0:    4770        pG      BX       lr
        0x000006e2:    17c0        ..      ASRS     r0,r0,#31
        0x000006e4:    43c0        .C      MVNS     r0,r0
        0x000006e6:    4770        pG      BX       lr
    .text
    __aeabi_i2f_normalise
        0x000006e8:    221f        ."      MOVS     r2,#0x1f
        0x000006ea:    0c03        ..      LSRS     r3,r0,#16
        0x000006ec:    d102        ..      BNE      0x6f4 ; __aeabi_i2f_normalise + 12
        0x000006ee:    220f        ."      MOVS     r2,#0xf
        0x000006f0:    0400        ..      LSLS     r0,r0,#16
        0x000006f2:    d01c        ..      BEQ      0x72e ; __aeabi_i2f_normalise + 70
        0x000006f4:    0e03        ..      LSRS     r3,r0,#24
        0x000006f6:    d101        ..      BNE      0x6fc ; __aeabi_i2f_normalise + 20
        0x000006f8:    0200        ..      LSLS     r0,r0,#8
        0x000006fa:    3a08        .:      SUBS     r2,r2,#8
        0x000006fc:    0f03        ..      LSRS     r3,r0,#28
        0x000006fe:    d101        ..      BNE      0x704 ; __aeabi_i2f_normalise + 28
        0x00000700:    0100        ..      LSLS     r0,r0,#4
        0x00000702:    1f12        ..      SUBS     r2,r2,#4
        0x00000704:    0f83        ..      LSRS     r3,r0,#30
        0x00000706:    d101        ..      BNE      0x70c ; __aeabi_i2f_normalise + 36
        0x00000708:    0080        ..      LSLS     r0,r0,#2
        0x0000070a:    1e92        ..      SUBS     r2,r2,#2
        0x0000070c:    2800        .(      CMP      r0,#0
        0x0000070e:    db01        ..      BLT      0x714 ; __aeabi_i2f_normalise + 44
        0x00000710:    0040        @.      LSLS     r0,r0,#1
        0x00000712:    1e52        R.      SUBS     r2,r2,#1
        0x00000714:    05d2        ..      LSLS     r2,r2,#23
        0x00000716:    1851        Q.      ADDS     r1,r2,r1
        0x00000718:    1202        ..      ASRS     r2,r0,#8
        0x0000071a:    1851        Q.      ADDS     r1,r2,r1
        0x0000071c:    2219        ."      MOVS     r2,#0x19
        0x0000071e:    4090        .@      LSLS     r0,r0,r2
        0x00000720:    d304        ..      BCC      0x72c ; __aeabi_i2f_normalise + 68
        0x00000722:    1c49        I.      ADDS     r1,r1,#1
        0x00000724:    2800        .(      CMP      r0,#0
        0x00000726:    d101        ..      BNE      0x72c ; __aeabi_i2f_normalise + 68
        0x00000728:    0849        I.      LSRS     r1,r1,#1
        0x0000072a:    0049        I.      LSLS     r1,r1,#1
        0x0000072c:    4608        .F      MOV      r0,r1
        0x0000072e:    4770        pG      BX       lr
    __aeabi_i2f
    _fflt
        0x00000730:    0fc1        ..      LSRS     r1,r0,#31
        0x00000732:    07c9        ..      LSLS     r1,r1,#31
        0x00000734:    d000        ..      BEQ      0x738 ; __aeabi_i2f + 8
        0x00000736:    4240        @B      RSBS     r0,r0,#0
        0x00000738:    2201        ."      MOVS     r2,#1
        0x0000073a:    0792        ..      LSLS     r2,r2,#30
        0x0000073c:    4311        .C      ORRS     r1,r1,r2
        0x0000073e:    e7d3        ..      B        __aeabi_i2f_normalise ; 0x6e8
    __aeabi_ui2f
    _ffltu
        0x00000740:    2101        .!      MOVS     r1,#1
        0x00000742:    0789        ..      LSLS     r1,r1,#30
        0x00000744:    e7d0        ..      B        __aeabi_i2f_normalise ; 0x6e8
        0x00000746:    0000        ..      MOVS     r0,r0
    .text
    __ARM_scalbnf
        0x00000748:    b510        ..      PUSH     {r4,lr}
        0x0000074a:    22ff        ."      MOVS     r2,#0xff
        0x0000074c:    0dc3        ..      LSRS     r3,r0,#23
        0x0000074e:    4013        .@      ANDS     r3,r3,r2
        0x00000750:    d009        ..      BEQ      0x766 ; __ARM_scalbnf + 30
        0x00000752:    405a        Z@      EORS     r2,r2,r3
        0x00000754:    d007        ..      BEQ      0x766 ; __ARM_scalbnf + 30
        0x00000756:    4291        .B      CMP      r1,r2
        0x00000758:    da05        ..      BGE      0x766 ; __ARM_scalbnf + 30
        0x0000075a:    425c        \B      RSBS     r4,r3,#0
        0x0000075c:    42a1        .B      CMP      r1,r4
        0x0000075e:    dd02        ..      BLE      0x766 ; __ARM_scalbnf + 30
        0x00000760:    05c9        ..      LSLS     r1,r1,#23
        0x00000762:    1808        ..      ADDS     r0,r1,r0
        0x00000764:    bd10        ..      POP      {r4,pc}
        0x00000766:    0fc4        ..      LSRS     r4,r0,#31
        0x00000768:    07e4        ..      LSLS     r4,r4,#31
        0x0000076a:    2b00        .+      CMP      r3,#0
        0x0000076c:    d006        ..      BEQ      0x77c ; __ARM_scalbnf + 52
        0x0000076e:    2a00        .*      CMP      r2,#0
        0x00000770:    d006        ..      BEQ      0x780 ; __ARM_scalbnf + 56
        0x00000772:    2900        .)      CMP      r1,#0
        0x00000774:    db02        ..      BLT      0x77c ; __ARM_scalbnf + 52
        0x00000776:    20ff        .       MOVS     r0,#0xff
        0x00000778:    05c0        ..      LSLS     r0,r0,#23
        0x0000077a:    4304        .C      ORRS     r4,r4,r0
        0x0000077c:    4620         F      MOV      r0,r4
        0x0000077e:    bd10        ..      POP      {r4,pc}
        0x00000780:    0241        A.      LSLS     r1,r0,#9
        0x00000782:    d0fc        ..      BEQ      0x77e ; __ARM_scalbnf + 54
        0x00000784:    4800        .H      LDR      r0,[pc,#0] ; [0x788] = 0x7fc00000
        0x00000786:    bd10        ..      POP      {r4,pc}
    $d
        0x00000788:    7fc00000    ....    DCD    2143289344
    $t
    .text
    __lib_sel_fp_printf
        0x0000078c:    4770        pG      BX       lr
    _fp_digits
        0x0000078e:    b5ff        ..      PUSH     {r0-r7,lr}
        0x00000790:    460c        .F      MOV      r4,r1
        0x00000792:    461e        .F      MOV      r6,r3
        0x00000794:    b08f        ..      SUB      sp,sp,#0x3c
        0x00000796:    ca03        ..      LDM      r2!,{r0,r1}
        0x00000798:    9008        ..      STR      r0,[sp,#0x20]
        0x0000079a:    9109        ..      STR      r1,[sp,#0x24]
        0x0000079c:    004f        O.      LSLS     r7,r1,#1
        0x0000079e:    0d7d        }.      LSRS     r5,r7,#21
        0x000007a0:    d100        ..      BNE      0x7a4 ; _fp_digits + 22
        0x000007a2:    1e6d        m.      SUBS     r5,r5,#1
        0x000007a4:    2100        .!      MOVS     r1,#0
        0x000007a6:    4608        .F      MOV      r0,r1
        0x000007a8:    2000        .       MOVS     r0,#0
        0x000007aa:    46c0        .F      MOV      r8,r8
        0x000007ac:    2103        .!      MOVS     r1,#3
        0x000007ae:    9a09        ..      LDR      r2,[sp,#0x24]
        0x000007b0:    0589        ..      LSLS     r1,r1,#22
        0x000007b2:    4008        .@      ANDS     r0,r0,r1
        0x000007b4:    2a00        .*      CMP      r2,#0
        0x000007b6:    da03        ..      BGE      0x7c0 ; _fp_digits + 50
        0x000007b8:    0082        ..      LSLS     r2,r0,#2
        0x000007ba:    1880        ..      ADDS     r0,r0,r2
        0x000007bc:    0840        @.      LSRS     r0,r0,#1
        0x000007be:    4008        .@      ANDS     r0,r0,r1
        0x000007c0:    0d80        ..      LSRS     r0,r0,#22
        0x000007c2:    2801        .(      CMP      r0,#1
        0x000007c4:    900a        ..      STR      r0,[sp,#0x28]
        0x000007c6:    dd02        ..      BLE      0x7ce ; _fp_digits + 64
        0x000007c8:    2000        .       MOVS     r0,#0
        0x000007ca:    43c0        .C      MVNS     r0,r0
        0x000007cc:    900a        ..      STR      r0,[sp,#0x28]
        0x000007ce:    9808        ..      LDR      r0,[sp,#0x20]
        0x000007d0:    4307        .C      ORRS     r7,r7,r0
        0x000007d2:    d00d        ..      BEQ      0x7f0 ; _fp_digits + 98
        0x000007d4:    48f0        .H      LDR      r0,[pc,#960] ; [0xb98] = 0xfffffc01
        0x000007d6:    49f1        .I      LDR      r1,[pc,#964] ; [0xb9c] = 0x4d10
        0x000007d8:    1828        (.      ADDS     r0,r5,r0
        0x000007da:    4348        HC      MULS     r0,r1,r0
        0x000007dc:    1407        ..      ASRS     r7,r0,#16
        0x000007de:    9818        ..      LDR      r0,[sp,#0x60]
        0x000007e0:    2800        .(      CMP      r0,#0
        0x000007e2:    d01d        ..      BEQ      0x820 ; _fp_digits + 146
        0x000007e4:    4275        uB      RSBS     r5,r6,#0
        0x000007e6:    1e29        ).      SUBS     r1,r5,#0
        0x000007e8:    dd1d        ..      BLE      0x826 ; _fp_digits + 152
        0x000007ea:    980a        ..      LDR      r0,[sp,#0x28]
        0x000007ec:    4242        BB      RSBS     r2,r0,#0
        0x000007ee:    e01b        ..      B        0x828 ; _fp_digits + 154
        0x000007f0:    9818        ..      LDR      r0,[sp,#0x60]
        0x000007f2:    2801        .(      CMP      r0,#1
        0x000007f4:    d002        ..      BEQ      0x7fc ; _fp_digits + 110
        0x000007f6:    2000        .       MOVS     r0,#0
        0x000007f8:    2130        0!      MOVS     r1,#0x30
        0x000007fa:    e004        ..      B        0x806 ; _fp_digits + 120
        0x000007fc:    2000        .       MOVS     r0,#0
        0x000007fe:    43f2        .C      MVNS     r2,r6
        0x00000800:    e005        ..      B        0x80e ; _fp_digits + 128
        0x00000802:    5421        !T      STRB     r1,[r4,r0]
        0x00000804:    1c40        @.      ADDS     r0,r0,#1
        0x00000806:    42b0        .B      CMP      r0,r6
        0x00000808:    dbfb        ..      BLT      0x802 ; _fp_digits + 116
        0x0000080a:    4630        0F      MOV      r0,r6
        0x0000080c:    2200        ."      MOVS     r2,#0
        0x0000080e:    9b18        ..      LDR      r3,[sp,#0x60]
        0x00000810:    2100        .!      MOVS     r1,#0
        0x00000812:    5421        !T      STRB     r1,[r4,r0]
        0x00000814:    990f        ..      LDR      r1,[sp,#0x3c]
        0x00000816:    608b        .`      STR      r3,[r1,#8]
        0x00000818:    600a        .`      STR      r2,[r1,#0]
        0x0000081a:    6048        H`      STR      r0,[r1,#4]
        0x0000081c:    b013        ..      ADD      sp,sp,#0x4c
        0x0000081e:    bdf0        ..      POP      {r4-r7,pc}
        0x00000820:    1bbd        ..      SUBS     r5,r7,r6
        0x00000822:    1c6d        m.      ADDS     r5,r5,#1
        0x00000824:    e7df        ..      B        0x7e6 ; _fp_digits + 88
        0x00000826:    9a0a        ..      LDR      r2,[sp,#0x28]
        0x00000828:    2900        .)      CMP      r1,#0
        0x0000082a:    da00        ..      BGE      0x82e ; _fp_digits + 160
        0x0000082c:    4269        iB      RSBS     r1,r5,#0
        0x0000082e:    a80b        ..      ADD      r0,sp,#0x2c
        0x00000830:    f000fa5c    ..\.    BL       _btod_etento ; 0xcec
        0x00000834:    ab0b        ..      ADD      r3,sp,#0x2c
        0x00000836:    cb07        ..      LDM      r3!,{r0-r2}
        0x00000838:    ab03        ..      ADD      r3,sp,#0xc
        0x0000083a:    c307        ..      STM      r3!,{r0-r2}
        0x0000083c:    9908        ..      LDR      r1,[sp,#0x20]
        0x0000083e:    9809        ..      LDR      r0,[sp,#0x24]
        0x00000840:    f000fac0    ....    BL       _btod_d2e ; 0xdc4
        0x00000844:    466b        kF      MOV      r3,sp
        0x00000846:    c307        ..      STM      r3!,{r0-r2}
        0x00000848:    4601        .F      MOV      r1,r0
        0x0000084a:    48d5        .H      LDR      r0,[pc,#852] ; [0xba0] = 0xffffdfe1
        0x0000084c:    1809        ..      ADDS     r1,r1,r0
        0x0000084e:    2d00        .-      CMP      r5,#0
        0x00000850:    9100        ..      STR      r1,[sp,#0]
        0x00000852:    dd0b        ..      BLE      0x86c ; _fp_digits + 222
        0x00000854:    49d2        .I      LDR      r1,[pc,#840] ; [0xba0] = 0xffffdfe1
        0x00000856:    9803        ..      LDR      r0,[sp,#0xc]
        0x00000858:    9a0a        ..      LDR      r2,[sp,#0x28]
        0x0000085a:    4249        IB      RSBS     r1,r1,#0
        0x0000085c:    1840        @.      ADDS     r0,r0,r1
        0x0000085e:    2300        .#      MOVS     r3,#0
        0x00000860:    a903        ..      ADD      r1,sp,#0xc
        0x00000862:    9003        ..      STR      r0,[sp,#0xc]
        0x00000864:    4668        hF      MOV      r0,sp
        0x00000866:    f000fd1d    ....    BL       _btod_ediv ; 0x12a4
        0x0000086a:    e008        ..      B        0x87e ; _fp_digits + 240
        0x0000086c:    9903        ..      LDR      r1,[sp,#0xc]
        0x0000086e:    9a0a        ..      LDR      r2,[sp,#0x28]
        0x00000870:    2300        .#      MOVS     r3,#0
        0x00000872:    1808        ..      ADDS     r0,r1,r0
        0x00000874:    a903        ..      ADD      r1,sp,#0xc
        0x00000876:    9003        ..      STR      r0,[sp,#0xc]
        0x00000878:    4668        hF      MOV      r0,sp
        0x0000087a:    f000fcbd    ....    BL       _btod_emul ; 0x11f8
        0x0000087e:    466b        kF      MOV      r3,sp
        0x00000880:    c307        ..      STM      r3!,{r0-r2}
        0x00000882:    0400        ..      LSLS     r0,r0,#16
        0x00000884:    0c00        ..      LSRS     r0,r0,#16
        0x00000886:    d003        ..      BEQ      0x890 ; _fp_digits + 258
        0x00000888:    2000        .       MOVS     r0,#0
        0x0000088a:    43c0        .C      MVNS     r0,r0
        0x0000088c:    0841        A.      LSRS     r1,r0,#1
        0x0000088e:    e000        ..      B        0x892 ; _fp_digits + 260
        0x00000890:    4610        .F      MOV      r0,r2
        0x00000892:    9a18        ..      LDR      r2,[sp,#0x60]
        0x00000894:    2a00        .*      CMP      r2,#0
        0x00000896:    d003        ..      BEQ      0x8a0 ; _fp_digits + 274
        0x00000898:    2200        ."      MOVS     r2,#0
        0x0000089a:    9200        ..      STR      r2,[sp,#0]
        0x0000089c:    4615        .F      MOV      r5,r2
        0x0000089e:    e01e        ..      B        0x8de ; _fp_digits + 336
        0x000008a0:    1e75        u.      SUBS     r5,r6,#1
        0x000008a2:    d405        ..      BMI      0x8b0 ; _fp_digits + 290
        0x000008a4:    f000f9a0    ....    BL       _ll_udiv10 ; 0xbe8
        0x000008a8:    3230        02      ADDS     r2,r2,#0x30
        0x000008aa:    5562        bU      STRB     r2,[r4,r5]
        0x000008ac:    1e6d        m.      SUBS     r5,r5,#1
        0x000008ae:    d5f9        ..      BPL      0x8a4 ; _fp_digits + 278
        0x000008b0:    2201        ."      MOVS     r2,#1
        0x000008b2:    4308        .C      ORRS     r0,r0,r1
        0x000008b4:    9607        ..      STR      r6,[sp,#0x1c]
        0x000008b6:    d002        ..      BEQ      0x8be ; _fp_digits + 304
        0x000008b8:    2200        ."      MOVS     r2,#0
        0x000008ba:    1c7f        ..      ADDS     r7,r7,#1
        0x000008bc:    e004        ..      B        0x8c8 ; _fp_digits + 314
        0x000008be:    7820         x      LDRB     r0,[r4,#0]
        0x000008c0:    2830        0(      CMP      r0,#0x30
        0x000008c2:    d101        ..      BNE      0x8c8 ; _fp_digits + 314
        0x000008c4:    2200        ."      MOVS     r2,#0
        0x000008c6:    1e7f        ..      SUBS     r7,r7,#1
        0x000008c8:    2a00        .*      CMP      r2,#0
        0x000008ca:    9706        ..      STR      r7,[sp,#0x18]
        0x000008cc:    d087        ..      BEQ      0x7de ; _fp_digits + 80
        0x000008ce:    e01e        ..      B        0x90e ; _fp_digits + 384
        0x000008d0:    2d11        .-      CMP      r5,#0x11
        0x000008d2:    da07        ..      BGE      0x8e4 ; _fp_digits + 342
        0x000008d4:    f000f988    ....    BL       _ll_udiv10 ; 0xbe8
        0x000008d8:    3230        02      ADDS     r2,r2,#0x30
        0x000008da:    5562        bU      STRB     r2,[r4,r5]
        0x000008dc:    1c6d        m.      ADDS     r5,r5,#1
        0x000008de:    4602        .F      MOV      r2,r0
        0x000008e0:    430a        .C      ORRS     r2,r2,r1
        0x000008e2:    d1f5        ..      BNE      0x8d0 ; _fp_digits + 322
        0x000008e4:    4308        .C      ORRS     r0,r0,r1
        0x000008e6:    d003        ..      BEQ      0x8f0 ; _fp_digits + 354
        0x000008e8:    9800        ..      LDR      r0,[sp,#0]
        0x000008ea:    2800        .(      CMP      r0,#0
        0x000008ec:    d019        ..      BEQ      0x922 ; _fp_digits + 404
        0x000008ee:    e00e        ..      B        0x90e ; _fp_digits + 384
        0x000008f0:    2100        .!      MOVS     r1,#0
        0x000008f2:    1e68        h.      SUBS     r0,r5,#1
        0x000008f4:    e005        ..      B        0x902 ; _fp_digits + 372
        0x000008f6:    5c23        #\      LDRB     r3,[r4,r0]
        0x000008f8:    5c62        b\      LDRB     r2,[r4,r1]
        0x000008fa:    5463        cT      STRB     r3,[r4,r1]
        0x000008fc:    5422        "T      STRB     r2,[r4,r0]
        0x000008fe:    1e40        @.      SUBS     r0,r0,#1
        0x00000900:    1c49        I.      ADDS     r1,r1,#1
        0x00000902:    4281        .B      CMP      r1,r0
        0x00000904:    dbf7        ..      BLT      0x8f6 ; _fp_digits + 360
        0x00000906:    1ba8        ..      SUBS     r0,r5,r6
        0x00000908:    1e40        @.      SUBS     r0,r0,#1
        0x0000090a:    9507        ..      STR      r5,[sp,#0x1c]
        0x0000090c:    9006        ..      STR      r0,[sp,#0x18]
        0x0000090e:    9a07        ..      LDR      r2,[sp,#0x1c]
        0x00000910:    9918        ..      LDR      r1,[sp,#0x60]
        0x00000912:    2000        .       MOVS     r0,#0
        0x00000914:    54a0        .T      STRB     r0,[r4,r2]
        0x00000916:    980f        ..      LDR      r0,[sp,#0x3c]
        0x00000918:    9b07        ..      LDR      r3,[sp,#0x1c]
        0x0000091a:    9a06        ..      LDR      r2,[sp,#0x18]
        0x0000091c:    6081        .`      STR      r1,[r0,#8]
        0x0000091e:    c00c        ..      STM      r0!,{r2,r3}
        0x00000920:    e77c        |.      B        0x81c ; _fp_digits + 142
        0x00000922:    2611        .&      MOVS     r6,#0x11
        0x00000924:    2000        .       MOVS     r0,#0
        0x00000926:    9018        ..      STR      r0,[sp,#0x60]
        0x00000928:    e759        Y.      B        0x7de ; _fp_digits + 80
    _printf_fp_dec_real
        0x0000092a:    1dd2        ..      ADDS     r2,r2,#7
        0x0000092c:    b5f0        ..      PUSH     {r4-r7,lr}
        0x0000092e:    460d        .F      MOV      r5,r1
        0x00000930:    4604        .F      MOV      r4,r0
        0x00000932:    08d1        ..      LSRS     r1,r2,#3
        0x00000934:    b093        ..      SUB      sp,sp,#0x4c
        0x00000936:    00c9        ..      LSLS     r1,r1,#3
        0x00000938:    c903        ..      LDM      r1,{r0,r1}
        0x0000093a:    900c        ..      STR      r0,[sp,#0x30]
        0x0000093c:    910d        ..      STR      r1,[sp,#0x34]
        0x0000093e:    f002ff59    ..Y.    BL       __ARM_fpclassify ; 0x37f4
        0x00000942:    4602        .F      MOV      r2,r0
        0x00000944:    980d        ..      LDR      r0,[sp,#0x34]
        0x00000946:    0fc0        ..      LSRS     r0,r0,#31
        0x00000948:    d001        ..      BEQ      0x94e ; _printf_fp_dec_real + 36
        0x0000094a:    202d        -       MOVS     r0,#0x2d
        0x0000094c:    e007        ..      B        0x95e ; _printf_fp_dec_real + 52
        0x0000094e:    6820         h      LDR      r0,[r4,#0]
        0x00000950:    0781        ..      LSLS     r1,r0,#30
        0x00000952:    d501        ..      BPL      0x958 ; _printf_fp_dec_real + 46
        0x00000954:    202b        +       MOVS     r0,#0x2b
        0x00000956:    e002        ..      B        0x95e ; _printf_fp_dec_real + 52
        0x00000958:    0740        @.      LSLS     r0,r0,#29
        0x0000095a:    0fc0        ..      LSRS     r0,r0,#31
        0x0000095c:    0140        @.      LSLS     r0,r0,#5
        0x0000095e:    2a03        .*      CMP      r2,#3
        0x00000960:    900f        ..      STR      r0,[sp,#0x3c]
        0x00000962:    d001        ..      BEQ      0x968 ; _printf_fp_dec_real + 62
        0x00000964:    2a07        .*      CMP      r2,#7
        0x00000966:    db05        ..      BLT      0x974 ; _printf_fp_dec_real + 74
        0x00000968:    4603        .F      MOV      r3,r0
        0x0000096a:    4629        )F      MOV      r1,r5
        0x0000096c:    4620         F      MOV      r0,r4
        0x0000096e:    f000f979    ..y.    BL       _printf_fp_infnan ; 0xc64
        0x00000972:    e10e        ..      B        0xb92 ; _printf_fp_dec_real + 616
        0x00000974:    7820         x      LDRB     r0,[r4,#0]
        0x00000976:    0680        ..      LSLS     r0,r0,#26
        0x00000978:    d501        ..      BPL      0x97e ; _printf_fp_dec_real + 84
        0x0000097a:    69e7        .i      LDR      r7,[r4,#0x1c]
        0x0000097c:    e000        ..      B        0x980 ; _printf_fp_dec_real + 86
        0x0000097e:    2706        .'      MOVS     r7,#6
        0x00000980:    4628        (F      MOV      r0,r5
        0x00000982:    2d65        e-      CMP      r5,#0x65
        0x00000984:    d004        ..      BEQ      0x990 ; _printf_fp_dec_real + 102
        0x00000986:    2866        f(      CMP      r0,#0x66
        0x00000988:    d014        ..      BEQ      0x9b4 ; _printf_fp_dec_real + 138
        0x0000098a:    2d67        g-      CMP      r5,#0x67
        0x0000098c:    d169        i.      BNE      0xa62 ; _printf_fp_dec_real + 312
        0x0000098e:    e02d        -.      B        0x9ec ; _printf_fp_dec_real + 194
        0x00000990:    2000        .       MOVS     r0,#0
        0x00000992:    2f11        ./      CMP      r7,#0x11
        0x00000994:    9000        ..      STR      r0,[sp,#0]
        0x00000996:    db01        ..      BLT      0x99c ; _printf_fp_dec_real + 114
        0x00000998:    2311        .#      MOVS     r3,#0x11
        0x0000099a:    e000        ..      B        0x99e ; _printf_fp_dec_real + 116
        0x0000099c:    1c7b        {.      ADDS     r3,r7,#1
        0x0000099e:    aa0c        ..      ADD      r2,sp,#0x30
        0x000009a0:    a903        ..      ADD      r1,sp,#0xc
        0x000009a2:    a810        ..      ADD      r0,sp,#0x40
        0x000009a4:    f7fffef3    ....    BL       _fp_digits ; 0x78e
        0x000009a8:    9911        ..      LDR      r1,[sp,#0x44]
        0x000009aa:    2600        .&      MOVS     r6,#0
        0x000009ac:    9810        ..      LDR      r0,[sp,#0x40]
        0x000009ae:    1c7d        }.      ADDS     r5,r7,#1
        0x000009b0:    910e        ..      STR      r1,[sp,#0x38]
        0x000009b2:    e042        B.      B        0xa3a ; _printf_fp_dec_real + 272
        0x000009b4:    2001        .       MOVS     r0,#1
        0x000009b6:    463b        ;F      MOV      r3,r7
        0x000009b8:    aa0c        ..      ADD      r2,sp,#0x30
        0x000009ba:    07c0        ..      LSLS     r0,r0,#31
        0x000009bc:    900b        ..      STR      r0,[sp,#0x2c]
        0x000009be:    2001        .       MOVS     r0,#1
        0x000009c0:    9000        ..      STR      r0,[sp,#0]
        0x000009c2:    a903        ..      ADD      r1,sp,#0xc
        0x000009c4:    a810        ..      ADD      r0,sp,#0x40
        0x000009c6:    f7fffee2    ....    BL       _fp_digits ; 0x78e
        0x000009ca:    9d11        ..      LDR      r5,[sp,#0x44]
        0x000009cc:    9812        ..      LDR      r0,[sp,#0x48]
        0x000009ce:    9910        ..      LDR      r1,[sp,#0x40]
        0x000009d0:    2600        .&      MOVS     r6,#0
        0x000009d2:    2800        .(      CMP      r0,#0
        0x000009d4:    950e        ..      STR      r5,[sp,#0x38]
        0x000009d6:    d101        ..      BNE      0x9dc ; _printf_fp_dec_real + 178
        0x000009d8:    1c78        x.      ADDS     r0,r7,#1
        0x000009da:    180d        ..      ADDS     r5,r1,r0
        0x000009dc:    1b78        x.      SUBS     r0,r7,r5
        0x000009de:    d402        ..      BMI      0x9e6 ; _printf_fp_dec_real + 188
        0x000009e0:    4246        FB      RSBS     r6,r0,#0
        0x000009e2:    1c7d        }.      ADDS     r5,r7,#1
        0x000009e4:    1e76        v.      SUBS     r6,r6,#1
        0x000009e6:    1be8        ..      SUBS     r0,r5,r7
        0x000009e8:    9000        ..      STR      r0,[sp,#0]
        0x000009ea:    e03a        :.      B        0xa62 ; _printf_fp_dec_real + 312
        0x000009ec:    2f01        ./      CMP      r7,#1
        0x000009ee:    da00        ..      BGE      0x9f2 ; _printf_fp_dec_real + 200
        0x000009f0:    2701        .'      MOVS     r7,#1
        0x000009f2:    2000        .       MOVS     r0,#0
        0x000009f4:    2f11        ./      CMP      r7,#0x11
        0x000009f6:    9000        ..      STR      r0,[sp,#0]
        0x000009f8:    dd01        ..      BLE      0x9fe ; _printf_fp_dec_real + 212
        0x000009fa:    2311        .#      MOVS     r3,#0x11
        0x000009fc:    e000        ..      B        0xa00 ; _printf_fp_dec_real + 214
        0x000009fe:    463b        ;F      MOV      r3,r7
        0x00000a00:    aa0c        ..      ADD      r2,sp,#0x30
        0x00000a02:    a903        ..      ADD      r1,sp,#0xc
        0x00000a04:    a810        ..      ADD      r0,sp,#0x40
        0x00000a06:    f7fffec2    ....    BL       _fp_digits ; 0x78e
        0x00000a0a:    9911        ..      LDR      r1,[sp,#0x44]
        0x00000a0c:    463d        =F      MOV      r5,r7
        0x00000a0e:    9810        ..      LDR      r0,[sp,#0x40]
        0x00000a10:    2600        .&      MOVS     r6,#0
        0x00000a12:    910e        ..      STR      r1,[sp,#0x38]
        0x00000a14:    7821        !x      LDRB     r1,[r4,#0]
        0x00000a16:    0709        ..      LSLS     r1,r1,#28
        0x00000a18:    d40b        ..      BMI      0xa32 ; _printf_fp_dec_real + 264
        0x00000a1a:    990e        ..      LDR      r1,[sp,#0x38]
        0x00000a1c:    42a9        .B      CMP      r1,r5
        0x00000a1e:    da00        ..      BGE      0xa22 ; _printf_fp_dec_real + 248
        0x00000a20:    460d        .F      MOV      r5,r1
        0x00000a22:    a903        ..      ADD      r1,sp,#0xc
        0x00000a24:    2d01        .-      CMP      r5,#1
        0x00000a26:    dd04        ..      BLE      0xa32 ; _printf_fp_dec_real + 264
        0x00000a28:    194a        J.      ADDS     r2,r1,r5
        0x00000a2a:    3a20         :      SUBS     r2,r2,#0x20
        0x00000a2c:    7fd2        ..      LDRB     r2,[r2,#0x1f]
        0x00000a2e:    2a30        0*      CMP      r2,#0x30
        0x00000a30:    d006        ..      BEQ      0xa40 ; _printf_fp_dec_real + 278
        0x00000a32:    42b8        .B      CMP      r0,r7
        0x00000a34:    da01        ..      BGE      0xa3a ; _printf_fp_dec_real + 272
        0x00000a36:    1d01        ..      ADDS     r1,r0,#4
        0x00000a38:    da04        ..      BGE      0xa44 ; _printf_fp_dec_real + 282
        0x00000a3a:    2101        .!      MOVS     r1,#1
        0x00000a3c:    9100        ..      STR      r1,[sp,#0]
        0x00000a3e:    e00f        ..      B        0xa60 ; _printf_fp_dec_real + 310
        0x00000a40:    1e6d        m.      SUBS     r5,r5,#1
        0x00000a42:    e7ef        ..      B        0xa24 ; _printf_fp_dec_real + 250
        0x00000a44:    2800        .(      CMP      r0,#0
        0x00000a46:    dc02        ..      BGT      0xa4e ; _printf_fp_dec_real + 292
        0x00000a48:    1986        ..      ADDS     r6,r0,r6
        0x00000a4a:    1a2d        -.      SUBS     r5,r5,r0
        0x00000a4c:    e003        ..      B        0xa56 ; _printf_fp_dec_real + 300
        0x00000a4e:    1c41        A.      ADDS     r1,r0,#1
        0x00000a50:    42a9        .B      CMP      r1,r5
        0x00000a52:    dd00        ..      BLE      0xa56 ; _printf_fp_dec_real + 300
        0x00000a54:    460d        .F      MOV      r5,r1
        0x00000a56:    1b80        ..      SUBS     r0,r0,r6
        0x00000a58:    1c40        @.      ADDS     r0,r0,#1
        0x00000a5a:    9000        ..      STR      r0,[sp,#0]
        0x00000a5c:    2001        .       MOVS     r0,#1
        0x00000a5e:    07c0        ..      LSLS     r0,r0,#31
        0x00000a60:    900b        ..      STR      r0,[sp,#0x2c]
        0x00000a62:    7820         x      LDRB     r0,[r4,#0]
        0x00000a64:    0700        ..      LSLS     r0,r0,#28
        0x00000a66:    d405        ..      BMI      0xa74 ; _printf_fp_dec_real + 330
        0x00000a68:    9800        ..      LDR      r0,[sp,#0]
        0x00000a6a:    42a8        .B      CMP      r0,r5
        0x00000a6c:    db02        ..      BLT      0xa74 ; _printf_fp_dec_real + 330
        0x00000a6e:    2000        .       MOVS     r0,#0
        0x00000a70:    43c0        .C      MVNS     r0,r0
        0x00000a72:    9000        ..      STR      r0,[sp,#0]
        0x00000a74:    4669        iF      MOV      r1,sp
        0x00000a76:    2000        .       MOVS     r0,#0
        0x00000a78:    72c8        .r      STRB     r0,[r1,#0xb]
        0x00000a7a:    980b        ..      LDR      r0,[sp,#0x2c]
        0x00000a7c:    2101        .!      MOVS     r1,#1
        0x00000a7e:    af02        ..      ADD      r7,sp,#8
        0x00000a80:    3703        .7      ADDS     r7,#3
        0x00000a82:    07c9        ..      LSLS     r1,r1,#31
        0x00000a84:    4288        .B      CMP      r0,r1
        0x00000a86:    d025        %.      BEQ      0xad4 ; _printf_fp_dec_real + 426
        0x00000a88:    2002        .       MOVS     r0,#2
        0x00000a8a:    9010        ..      STR      r0,[sp,#0x40]
        0x00000a8c:    202b        +       MOVS     r0,#0x2b
        0x00000a8e:    9011        ..      STR      r0,[sp,#0x44]
        0x00000a90:    980b        ..      LDR      r0,[sp,#0x2c]
        0x00000a92:    2800        .(      CMP      r0,#0
        0x00000a94:    da0b        ..      BGE      0xaae ; _printf_fp_dec_real + 388
        0x00000a96:    4240        @B      RSBS     r0,r0,#0
        0x00000a98:    900b        ..      STR      r0,[sp,#0x2c]
        0x00000a9a:    202d        -       MOVS     r0,#0x2d
        0x00000a9c:    9011        ..      STR      r0,[sp,#0x44]
        0x00000a9e:    e006        ..      B        0xaae ; _printf_fp_dec_real + 388
        0x00000aa0:    980b        ..      LDR      r0,[sp,#0x2c]
        0x00000aa2:    f000fc4f    ..O.    BL       __rt_udiv10 ; 0x1344
        0x00000aa6:    3130        01      ADDS     r1,r1,#0x30
        0x00000aa8:    1e7f        ..      SUBS     r7,r7,#1
        0x00000aaa:    900b        ..      STR      r0,[sp,#0x2c]
        0x00000aac:    7039        9p      STRB     r1,[r7,#0]
        0x00000aae:    9910        ..      LDR      r1,[sp,#0x40]
        0x00000ab0:    1e48        H.      SUBS     r0,r1,#1
        0x00000ab2:    2900        .)      CMP      r1,#0
        0x00000ab4:    9010        ..      STR      r0,[sp,#0x40]
        0x00000ab6:    dcf3        ..      BGT      0xaa0 ; _printf_fp_dec_real + 374
        0x00000ab8:    980b        ..      LDR      r0,[sp,#0x2c]
        0x00000aba:    2800        .(      CMP      r0,#0
        0x00000abc:    d1f0        ..      BNE      0xaa0 ; _printf_fp_dec_real + 374
        0x00000abe:    9811        ..      LDR      r0,[sp,#0x44]
        0x00000ac0:    1e7f        ..      SUBS     r7,r7,#1
        0x00000ac2:    7038        8p      STRB     r0,[r7,#0]
        0x00000ac4:    8820         .      LDRH     r0,[r4,#0]
        0x00000ac6:    0500        ..      LSLS     r0,r0,#20
        0x00000ac8:    d501        ..      BPL      0xace ; _printf_fp_dec_real + 420
        0x00000aca:    2045        E       MOVS     r0,#0x45
        0x00000acc:    e000        ..      B        0xad0 ; _printf_fp_dec_real + 422
        0x00000ace:    2065        e       MOVS     r0,#0x65
        0x00000ad0:    1e7f        ..      SUBS     r7,r7,#1
        0x00000ad2:    7038        8p      STRB     r0,[r7,#0]
        0x00000ad4:    a801        ..      ADD      r0,sp,#4
        0x00000ad6:    1bc0        ..      SUBS     r0,r0,r7
        0x00000ad8:    1dc0        ..      ADDS     r0,r0,#7
        0x00000ada:    900b        ..      STR      r0,[sp,#0x2c]
        0x00000adc:    980f        ..      LDR      r0,[sp,#0x3c]
        0x00000ade:    2800        .(      CMP      r0,#0
        0x00000ae0:    d000        ..      BEQ      0xae4 ; _printf_fp_dec_real + 442
        0x00000ae2:    2001        .       MOVS     r0,#1
        0x00000ae4:    1941        A.      ADDS     r1,r0,r5
        0x00000ae6:    9800        ..      LDR      r0,[sp,#0]
        0x00000ae8:    17c0        ..      ASRS     r0,r0,#31
        0x00000aea:    1809        ..      ADDS     r1,r1,r0
        0x00000aec:    980b        ..      LDR      r0,[sp,#0x2c]
        0x00000aee:    1808        ..      ADDS     r0,r1,r0
        0x00000af0:    69a1        .i      LDR      r1,[r4,#0x18]
        0x00000af2:    1a08        ..      SUBS     r0,r1,r0
        0x00000af4:    1e40        @.      SUBS     r0,r0,#1
        0x00000af6:    61a0        .a      STR      r0,[r4,#0x18]
        0x00000af8:    7820         x      LDRB     r0,[r4,#0]
        0x00000afa:    06c0        ..      LSLS     r0,r0,#27
        0x00000afc:    d402        ..      BMI      0xb04 ; _printf_fp_dec_real + 474
        0x00000afe:    4620         F      MOV      r0,r4
        0x00000b00:    46c0        .F      MOV      r8,r8
        0x00000b02:    46c0        .F      MOV      r8,r8
        0x00000b04:    980f        ..      LDR      r0,[sp,#0x3c]
        0x00000b06:    2800        .(      CMP      r0,#0
        0x00000b08:    d005        ..      BEQ      0xb16 ; _printf_fp_dec_real + 492
        0x00000b0a:    6862        bh      LDR      r2,[r4,#4]
        0x00000b0c:    68a1        .h      LDR      r1,[r4,#8]
        0x00000b0e:    4790        .G      BLX      r2
        0x00000b10:    6a20         j      LDR      r0,[r4,#0x20]
        0x00000b12:    1c40        @.      ADDS     r0,r0,#1
        0x00000b14:    6220         b      STR      r0,[r4,#0x20]
        0x00000b16:    7820         x      LDRB     r0,[r4,#0]
        0x00000b18:    06c0        ..      LSLS     r0,r0,#27
        0x00000b1a:    d525        %.      BPL      0xb68 ; _printf_fp_dec_real + 574
        0x00000b1c:    4620         F      MOV      r0,r4
        0x00000b1e:    46c0        .F      MOV      r8,r8
        0x00000b20:    46c0        .F      MOV      r8,r8
        0x00000b22:    e021        !.      B        0xb68 ; _printf_fp_dec_real + 574
        0x00000b24:    2e00        ..      CMP      r6,#0
        0x00000b26:    db07        ..      BLT      0xb38 ; _printf_fp_dec_real + 526
        0x00000b28:    980e        ..      LDR      r0,[sp,#0x38]
        0x00000b2a:    42b0        .B      CMP      r0,r6
        0x00000b2c:    dd04        ..      BLE      0xb38 ; _printf_fp_dec_real + 526
        0x00000b2e:    a803        ..      ADD      r0,sp,#0xc
        0x00000b30:    6862        bh      LDR      r2,[r4,#4]
        0x00000b32:    5d80        .]      LDRB     r0,[r0,r6]
        0x00000b34:    68a1        .h      LDR      r1,[r4,#8]
        0x00000b36:    e002        ..      B        0xb3e ; _printf_fp_dec_real + 532
        0x00000b38:    6862        bh      LDR      r2,[r4,#4]
        0x00000b3a:    68a1        .h      LDR      r1,[r4,#8]
        0x00000b3c:    2030        0       MOVS     r0,#0x30
        0x00000b3e:    4790        .G      BLX      r2
        0x00000b40:    6a20         j      LDR      r0,[r4,#0x20]
        0x00000b42:    1c76        v.      ADDS     r6,r6,#1
        0x00000b44:    1c40        @.      ADDS     r0,r0,#1
        0x00000b46:    6220         b      STR      r0,[r4,#0x20]
        0x00000b48:    9800        ..      LDR      r0,[sp,#0]
        0x00000b4a:    1e40        @.      SUBS     r0,r0,#1
        0x00000b4c:    2800        .(      CMP      r0,#0
        0x00000b4e:    9000        ..      STR      r0,[sp,#0]
        0x00000b50:    d10a        ..      BNE      0xb68 ; _printf_fp_dec_real + 574
        0x00000b52:    f000f845    ..E.    BL       __rt_locale ; 0xbe0
        0x00000b56:    68c0        .h      LDR      r0,[r0,#0xc]
        0x00000b58:    6862        bh      LDR      r2,[r4,#4]
        0x00000b5a:    6801        .h      LDR      r1,[r0,#0]
        0x00000b5c:    5c40        @\      LDRB     r0,[r0,r1]
        0x00000b5e:    68a1        .h      LDR      r1,[r4,#8]
        0x00000b60:    4790        .G      BLX      r2
        0x00000b62:    6a20         j      LDR      r0,[r4,#0x20]
        0x00000b64:    1c40        @.      ADDS     r0,r0,#1
        0x00000b66:    6220         b      STR      r0,[r4,#0x20]
        0x00000b68:    4628        (F      MOV      r0,r5
        0x00000b6a:    1e6d        m.      SUBS     r5,r5,#1
        0x00000b6c:    2800        .(      CMP      r0,#0
        0x00000b6e:    dcd9        ..      BGT      0xb24 ; _printf_fp_dec_real + 506
        0x00000b70:    e007        ..      B        0xb82 ; _printf_fp_dec_real + 600
        0x00000b72:    6862        bh      LDR      r2,[r4,#4]
        0x00000b74:    7838        8x      LDRB     r0,[r7,#0]
        0x00000b76:    68a1        .h      LDR      r1,[r4,#8]
        0x00000b78:    1c7f        ..      ADDS     r7,r7,#1
        0x00000b7a:    4790        .G      BLX      r2
        0x00000b7c:    6a20         j      LDR      r0,[r4,#0x20]
        0x00000b7e:    1c40        @.      ADDS     r0,r0,#1
        0x00000b80:    6220         b      STR      r0,[r4,#0x20]
        0x00000b82:    990b        ..      LDR      r1,[sp,#0x2c]
        0x00000b84:    1e48        H.      SUBS     r0,r1,#1
        0x00000b86:    2900        .)      CMP      r1,#0
        0x00000b88:    900b        ..      STR      r0,[sp,#0x2c]
        0x00000b8a:    dcf2        ..      BGT      0xb72 ; _printf_fp_dec_real + 584
        0x00000b8c:    4620         F      MOV      r0,r4
        0x00000b8e:    46c0        .F      MOV      r8,r8
        0x00000b90:    46c0        .F      MOV      r8,r8
        0x00000b92:    2003        .       MOVS     r0,#3
        0x00000b94:    e642        B.      B        0x81c ; _fp_digits + 142
    $d
        0x00000b96:    0000        ..      DCW    0
        0x00000b98:    fffffc01    ....    DCD    4294966273
        0x00000b9c:    00004d10    .M..    DCD    19728
        0x00000ba0:    ffffdfe1    ....    DCD    4294959073
    $t
    .text
    _printf_input_char
        0x00000ba4:    6901        .i      LDR      r1,[r0,#0x10]
        0x00000ba6:    1c4a        J.      ADDS     r2,r1,#1
        0x00000ba8:    6102        .a      STR      r2,[r0,#0x10]
        0x00000baa:    7808        .x      LDRB     r0,[r1,#0]
        0x00000bac:    4770        pG      BX       lr
    _printf_char_common
        0x00000bae:    b500        ..      PUSH     {lr}
        0x00000bb0:    b08f        ..      SUB      sp,sp,#0x3c
        0x00000bb2:    9102        ..      STR      r1,[sp,#8]
        0x00000bb4:    2100        .!      MOVS     r1,#0
        0x00000bb6:    9105        ..      STR      r1,[sp,#0x14]
        0x00000bb8:    4905        .I      LDR      r1,[pc,#20] ; [0xbd0] = 0xffffffe5
        0x00000bba:    9301        ..      STR      r3,[sp,#4]
        0x00000bbc:    4479        yD      ADD      r1,r1,pc
        0x00000bbe:    9103        ..      STR      r1,[sp,#0xc]
        0x00000bc0:    4611        .F      MOV      r1,r2
        0x00000bc2:    9004        ..      STR      r0,[sp,#0x10]
        0x00000bc4:    4668        hF      MOV      r0,sp
        0x00000bc6:    f7fffb21    ..!.    BL       __printf ; 0x20c
        0x00000bca:    b00f        ..      ADD      sp,sp,#0x3c
        0x00000bcc:    bd00        ..      POP      {pc}
    $d
        0x00000bce:    0000        ..      DCW    0
        0x00000bd0:    ffffffe5    ....    DCD    4294967269
    $t
    .text
    _sputc
        0x00000bd4:    680a        .h      LDR      r2,[r1,#0]
        0x00000bd6:    7010        .p      STRB     r0,[r2,#0]
        0x00000bd8:    1c52        R.      ADDS     r2,r2,#1
        0x00000bda:    600a        .`      STR      r2,[r1,#0]
        0x00000bdc:    4770        pG      BX       lr
        0x00000bde:    0000        ..      MOVS     r0,r0
    .text
    __rt_locale
        0x00000be0:    4800        .H      LDR      r0,[pc,#0] ; [0xbe4] = 0x2000045c
        0x00000be2:    4770        pG      BX       lr
    $d
        0x00000be4:    2000045c    \..     DCD    536872028
    $t
    .text
    _ll_udiv10
        0x00000be8:    460b        .F      MOV      r3,r1
        0x00000bea:    b570        p.      PUSH     {r4-r6,lr}
        0x00000bec:    4602        .F      MOV      r2,r0
        0x00000bee:    0789        ..      LSLS     r1,r1,#30
        0x00000bf0:    0880        ..      LSRS     r0,r0,#2
        0x00000bf2:    4308        .C      ORRS     r0,r0,r1
        0x00000bf4:    4619        .F      MOV      r1,r3
        0x00000bf6:    089d        ..      LSRS     r5,r3,#2
        0x00000bf8:    1a14        ..      SUBS     r4,r2,r0
        0x00000bfa:    41a9        .A      SBCS     r1,r1,r5
        0x00000bfc:    0925        %.      LSRS     r5,r4,#4
        0x00000bfe:    0708        ..      LSLS     r0,r1,#28
        0x00000c00:    4305        .C      ORRS     r5,r5,r0
        0x00000c02:    0908        ..      LSRS     r0,r1,#4
        0x00000c04:    192c        ,.      ADDS     r4,r5,r4
        0x00000c06:    4148        HA      ADCS     r0,r0,r1
        0x00000c08:    0a25        %.      LSRS     r5,r4,#8
        0x00000c0a:    0601        ..      LSLS     r1,r0,#24
        0x00000c0c:    430d        .C      ORRS     r5,r5,r1
        0x00000c0e:    0a01        ..      LSRS     r1,r0,#8
        0x00000c10:    192c        ,.      ADDS     r4,r5,r4
        0x00000c12:    4141        AA      ADCS     r1,r1,r0
        0x00000c14:    0c20         .      LSRS     r0,r4,#16
        0x00000c16:    040d        ..      LSLS     r5,r1,#16
        0x00000c18:    4328        (C      ORRS     r0,r0,r5
        0x00000c1a:    0c0d        ..      LSRS     r5,r1,#16
        0x00000c1c:    1900        ..      ADDS     r0,r0,r4
        0x00000c1e:    414d        MA      ADCS     r5,r5,r1
        0x00000c20:    2100        .!      MOVS     r1,#0
        0x00000c22:    1940        @.      ADDS     r0,r0,r5
        0x00000c24:    414d        MA      ADCS     r5,r5,r1
        0x00000c26:    08c0        ..      LSRS     r0,r0,#3
        0x00000c28:    0769        i.      LSLS     r1,r5,#29
        0x00000c2a:    4308        .C      ORRS     r0,r0,r1
        0x00000c2c:    08e9        ..      LSRS     r1,r5,#3
        0x00000c2e:    0f84        ..      LSRS     r4,r0,#30
        0x00000c30:    008d        ..      LSLS     r5,r1,#2
        0x00000c32:    4325        %C      ORRS     r5,r5,r4
        0x00000c34:    0084        ..      LSLS     r4,r0,#2
        0x00000c36:    1824        $.      ADDS     r4,r4,r0
        0x00000c38:    414d        MA      ADCS     r5,r5,r1
        0x00000c3a:    1924        $.      ADDS     r4,r4,r4
        0x00000c3c:    416d        mA      ADCS     r5,r5,r5
        0x00000c3e:    1b12        ..      SUBS     r2,r2,r4
        0x00000c40:    41ab        .A      SBCS     r3,r3,r5
        0x00000c42:    e007        ..      B        0xc54 ; _ll_udiv10 + 108
        0x00000c44:    2509        .%      MOVS     r5,#9
        0x00000c46:    43ed        .C      MVNS     r5,r5
        0x00000c48:    112c        ,.      ASRS     r4,r5,#4
        0x00000c4a:    1952        R.      ADDS     r2,r2,r5
        0x00000c4c:    4163        cA      ADCS     r3,r3,r4
        0x00000c4e:    2400        .$      MOVS     r4,#0
        0x00000c50:    1c40        @.      ADDS     r0,r0,#1
        0x00000c52:    4161        aA      ADCS     r1,r1,r4
        0x00000c54:    461c        .F      MOV      r4,r3
        0x00000c56:    250a        .%      MOVS     r5,#0xa
        0x00000c58:    2600        .&      MOVS     r6,#0
        0x00000c5a:    1b55        U.      SUBS     r5,r2,r5
        0x00000c5c:    41b4        .A      SBCS     r4,r4,r6
        0x00000c5e:    d2f1        ..      BCS      0xc44 ; _ll_udiv10 + 92
        0x00000c60:    bd70        p.      POP      {r4-r6,pc}
        0x00000c62:    0000        ..      MOVS     r0,r0
    .text
    _printf_fp_infnan
        0x00000c64:    b5f8        ..      PUSH     {r3-r7,lr}
        0x00000c66:    461f        .F      MOV      r7,r3
        0x00000c68:    4604        .F      MOV      r4,r0
        0x00000c6a:    2301        .#      MOVS     r3,#1
        0x00000c6c:    6800        .h      LDR      r0,[r0,#0]
        0x00000c6e:    02db        ..      LSLS     r3,r3,#11
        0x00000c70:    2603        .&      MOVS     r6,#3
        0x00000c72:    4601        .F      MOV      r1,r0
        0x00000c74:    4018        .@      ANDS     r0,r0,r3
        0x00000c76:    2a07        .*      CMP      r2,#7
        0x00000c78:    db05        ..      BLT      0xc86 ; _printf_fp_infnan + 34
        0x00000c7a:    2800        .(      CMP      r0,#0
        0x00000c7c:    d001        ..      BEQ      0xc82 ; _printf_fp_infnan + 30
        0x00000c7e:    a517        ..      ADR      r5,{pc}+0x5e ; 0xcdc
        0x00000c80:    e006        ..      B        0xc90 ; _printf_fp_infnan + 44
        0x00000c82:    a517        ..      ADR      r5,{pc}+0x5e ; 0xce0
        0x00000c84:    e004        ..      B        0xc90 ; _printf_fp_infnan + 44
        0x00000c86:    2800        .(      CMP      r0,#0
        0x00000c88:    d001        ..      BEQ      0xc8e ; _printf_fp_infnan + 42
        0x00000c8a:    a516        ..      ADR      r5,{pc}+0x5a ; 0xce4
        0x00000c8c:    e000        ..      B        0xc90 ; _printf_fp_infnan + 44
        0x00000c8e:    a516        ..      ADR      r5,{pc}+0x5a ; 0xce8
        0x00000c90:    2010        .       MOVS     r0,#0x10
        0x00000c92:    4381        .C      BICS     r1,r1,r0
        0x00000c94:    6021        !`      STR      r1,[r4,#0]
        0x00000c96:    69a0        .i      LDR      r0,[r4,#0x18]
        0x00000c98:    1ec0        ..      SUBS     r0,r0,#3
        0x00000c9a:    2f00        ./      CMP      r7,#0
        0x00000c9c:    61a0        .a      STR      r0,[r4,#0x18]
        0x00000c9e:    d001        ..      BEQ      0xca4 ; _printf_fp_infnan + 64
        0x00000ca0:    1e40        @.      SUBS     r0,r0,#1
        0x00000ca2:    61a0        .a      STR      r0,[r4,#0x18]
        0x00000ca4:    4620         F      MOV      r0,r4
        0x00000ca6:    46c0        .F      MOV      r8,r8
        0x00000ca8:    46c0        .F      MOV      r8,r8
        0x00000caa:    2f00        ./      CMP      r7,#0
        0x00000cac:    d009        ..      BEQ      0xcc2 ; _printf_fp_infnan + 94
        0x00000cae:    4638        8F      MOV      r0,r7
        0x00000cb0:    6862        bh      LDR      r2,[r4,#4]
        0x00000cb2:    68a1        .h      LDR      r1,[r4,#8]
        0x00000cb4:    4790        .G      BLX      r2
        0x00000cb6:    6a20         j      LDR      r0,[r4,#0x20]
        0x00000cb8:    1c40        @.      ADDS     r0,r0,#1
        0x00000cba:    6220         b      STR      r0,[r4,#0x20]
        0x00000cbc:    1cc0        ..      ADDS     r0,r0,#3
        0x00000cbe:    6220         b      STR      r0,[r4,#0x20]
        0x00000cc0:    e006        ..      B        0xcd0 ; _printf_fp_infnan + 108
        0x00000cc2:    6a20         j      LDR      r0,[r4,#0x20]
        0x00000cc4:    e7fa        ..      B        0xcbc ; _printf_fp_infnan + 88
        0x00000cc6:    6862        bh      LDR      r2,[r4,#4]
        0x00000cc8:    7828        (x      LDRB     r0,[r5,#0]
        0x00000cca:    68a1        .h      LDR      r1,[r4,#8]
        0x00000ccc:    1c6d        m.      ADDS     r5,r5,#1
        0x00000cce:    4790        .G      BLX      r2
        0x00000cd0:    1e76        v.      SUBS     r6,r6,#1
        0x00000cd2:    d2f8        ..      BCS      0xcc6 ; _printf_fp_infnan + 98
        0x00000cd4:    4620         F      MOV      r0,r4
        0x00000cd6:    46c0        .F      MOV      r8,r8
        0x00000cd8:    46c0        .F      MOV      r8,r8
        0x00000cda:    bdf8        ..      POP      {r3-r7,pc}
    $d
        0x00000cdc:    004e414e    NAN.    DCD    5128526
        0x00000ce0:    006e616e    nan.    DCD    7233902
        0x00000ce4:    00464e49    INF.    DCD    4607561
        0x00000ce8:    00666e69    inf.    DCD    6712937
    $t
    .text
    _btod_etento
        0x00000cec:    b5f7        ..      PUSH     {r0-r2,r4-r7,lr}
        0x00000cee:    4616        .F      MOV      r6,r2
        0x00000cf0:    b08a        ..      SUB      sp,sp,#0x28
        0x00000cf2:    4833        3H      LDR      r0,[pc,#204] ; [0xdc0] = 0x6da0
        0x00000cf4:    4478        xD      ADD      r0,r0,pc
        0x00000cf6:    466c        lF      MOV      r4,sp
        0x00000cf8:    4603        .F      MOV      r3,r0
        0x00000cfa:    337c        |3      ADDS     r3,r3,#0x7c
        0x00000cfc:    6fc0        .o      LDR      r0,[r0,#0x7c]
        0x00000cfe:    685a        Zh      LDR      r2,[r3,#4]
        0x00000d00:    689b        .h      LDR      r3,[r3,#8]
        0x00000d02:    c40d        ..      STM      r4!,{r0,r2,r3}
        0x00000d04:    482e        .H      LDR      r0,[pc,#184] ; [0xdc0] = 0x6da0
        0x00000d06:    4478        xD      ADD      r0,r0,pc
        0x00000d08:    3076        v0      ADDS     r0,r0,#0x76
        0x00000d0a:    ac03        ..      ADD      r4,sp,#0xc
        0x00000d0c:    c80d        ..      LDM      r0,{r0,r2,r3}
        0x00000d0e:    c40d        ..      STM      r4!,{r0,r2,r3}
        0x00000d10:    2037        7       MOVS     r0,#0x37
        0x00000d12:    01c0        ..      LSLS     r0,r0,#7
        0x00000d14:    1808        ..      ADDS     r0,r1,r0
        0x00000d16:    2137        7!      MOVS     r1,#0x37
        0x00000d18:    301b        .0      ADDS     r0,r0,#0x1b
        0x00000d1a:    f7fffb27    ..'.    BL       __aeabi_idiv ; 0x36c
        0x00000d1e:    4605        .F      MOV      r5,r0
        0x00000d20:    460c        .F      MOV      r4,r1
        0x00000d22:    3d80        .=      SUBS     r5,r5,#0x80
        0x00000d24:    3c1b        .<      SUBS     r4,r4,#0x1b
        0x00000d26:    d502        ..      BPL      0xd2e ; _btod_etento + 66
        0x00000d28:    4264        dB      RSBS     r4,r4,#0
        0x00000d2a:    2001        .       MOVS     r0,#1
        0x00000d2c:    e000        ..      B        0xd30 ; _btod_etento + 68
        0x00000d2e:    2000        .       MOVS     r0,#0
        0x00000d30:    2700        .'      MOVS     r7,#0
        0x00000d32:    9009        ..      STR      r0,[sp,#0x24]
        0x00000d34:    e010        ..      B        0xd58 ; _btod_etento + 108
        0x00000d36:    07e0        ..      LSLS     r0,r4,#31
        0x00000d38:    d00c        ..      BEQ      0xd54 ; _btod_etento + 104
        0x00000d3a:    200c        .       MOVS     r0,#0xc
        0x00000d3c:    4920         I      LDR      r1,[pc,#128] ; [0xdc0] = 0x6da0
        0x00000d3e:    4378        xC      MULS     r0,r7,r0
        0x00000d40:    4479        yD      ADD      r1,r1,pc
        0x00000d42:    4632        2F      MOV      r2,r6
        0x00000d44:    394c        L9      SUBS     r1,r1,#0x4c
        0x00000d46:    1841        A.      ADDS     r1,r0,r1
        0x00000d48:    4668        hF      MOV      r0,sp
        0x00000d4a:    2301        .#      MOVS     r3,#1
        0x00000d4c:    f000fa54    ..T.    BL       _btod_emul ; 0x11f8
        0x00000d50:    466b        kF      MOV      r3,sp
        0x00000d52:    c307        ..      STM      r3!,{r0-r2}
        0x00000d54:    1064        d.      ASRS     r4,r4,#1
        0x00000d56:    1c7f        ..      ADDS     r7,r7,#1
        0x00000d58:    2c00        .,      CMP      r4,#0
        0x00000d5a:    d1ec        ..      BNE      0xd36 ; _btod_etento + 74
        0x00000d5c:    4f18        .O      LDR      r7,[pc,#96] ; [0xdc0] = 0x6da0
        0x00000d5e:    447f        .D      ADD      r7,r7,pc
        0x00000d60:    3f2e        .?      SUBS     r7,r7,#0x2e
        0x00000d62:    e016        ..      B        0xd92 ; _btod_etento + 166
        0x00000d64:    07e8        ..      LSLS     r0,r5,#31
        0x00000d66:    d012        ..      BEQ      0xd8e ; _btod_etento + 162
        0x00000d68:    0120         .      LSLS     r0,r4,#4
        0x00000d6a:    19c0        ..      ADDS     r0,r0,r7
        0x00000d6c:    c80e        ..      LDM      r0!,{r1-r3}
        0x00000d6e:    9106        ..      STR      r1,[sp,#0x18]
        0x00000d70:    9308        ..      STR      r3,[sp,#0x20]
        0x00000d72:    9207        ..      STR      r2,[sp,#0x1c]
        0x00000d74:    6800        .h      LDR      r0,[r0,#0]
        0x00000d76:    42f0        .B      CMN      r0,r6
        0x00000d78:    d101        ..      BNE      0xd7e ; _btod_etento + 146
        0x00000d7a:    1998        ..      ADDS     r0,r3,r6
        0x00000d7c:    9008        ..      STR      r0,[sp,#0x20]
        0x00000d7e:    4632        2F      MOV      r2,r6
        0x00000d80:    2301        .#      MOVS     r3,#1
        0x00000d82:    a906        ..      ADD      r1,sp,#0x18
        0x00000d84:    a803        ..      ADD      r0,sp,#0xc
        0x00000d86:    f000fa37    ..7.    BL       _btod_emul ; 0x11f8
        0x00000d8a:    ab03        ..      ADD      r3,sp,#0xc
        0x00000d8c:    c307        ..      STM      r3!,{r0-r2}
        0x00000d8e:    106d        m.      ASRS     r5,r5,#1
        0x00000d90:    1c64        d.      ADDS     r4,r4,#1
        0x00000d92:    2d00        .-      CMP      r5,#0
        0x00000d94:    d1e6        ..      BNE      0xd64 ; _btod_etento + 120
        0x00000d96:    9809        ..      LDR      r0,[sp,#0x24]
        0x00000d98:    2800        .(      CMP      r0,#0
        0x00000d9a:    d006        ..      BEQ      0xdaa ; _btod_etento + 190
        0x00000d9c:    4632        2F      MOV      r2,r6
        0x00000d9e:    4669        iF      MOV      r1,sp
        0x00000da0:    2301        .#      MOVS     r3,#1
        0x00000da2:    a803        ..      ADD      r0,sp,#0xc
        0x00000da4:    f000fa7e    ..~.    BL       _btod_ediv ; 0x12a4
        0x00000da8:    e005        ..      B        0xdb6 ; _btod_etento + 202
        0x00000daa:    2301        .#      MOVS     r3,#1
        0x00000dac:    4632        2F      MOV      r2,r6
        0x00000dae:    4669        iF      MOV      r1,sp
        0x00000db0:    a803        ..      ADD      r0,sp,#0xc
        0x00000db2:    f000fa21    ..!.    BL       _btod_emul ; 0x11f8
        0x00000db6:    9b0a        ..      LDR      r3,[sp,#0x28]
        0x00000db8:    c307        ..      STM      r3!,{r0-r2}
        0x00000dba:    b00d        ..      ADD      sp,sp,#0x34
        0x00000dbc:    bdf0        ..      POP      {r4-r7,pc}
    $d
        0x00000dbe:    0000        ..      DCW    0
        0x00000dc0:    00006da0    .m..    DCD    28064
    $t
    .text
    _btod_d2e
        0x00000dc4:    4603        .F      MOV      r3,r0
        0x00000dc6:    0040        @.      LSLS     r0,r0,#1
        0x00000dc8:    460a        .F      MOV      r2,r1
        0x00000dca:    b510        ..      PUSH     {r4,lr}
        0x00000dcc:    0d40        @.      LSRS     r0,r0,#21
        0x00000dce:    d00b        ..      BEQ      0xde8 ; _btod_d2e + 36
        0x00000dd0:    2101        .!      MOVS     r1,#1
        0x00000dd2:    07c9        ..      LSLS     r1,r1,#31
        0x00000dd4:    240f        .$      MOVS     r4,#0xf
        0x00000dd6:    02a4        ..      LSLS     r4,r4,#10
        0x00000dd8:    1900        ..      ADDS     r0,r0,r4
        0x00000dda:    031c        ..      LSLS     r4,r3,#12
        0x00000ddc:    0864        d.      LSRS     r4,r4,#1
        0x00000dde:    4321        !C      ORRS     r1,r1,r4
        0x00000de0:    0d54        T.      LSRS     r4,r2,#21
        0x00000de2:    4321        !C      ORRS     r1,r1,r4
        0x00000de4:    02d2        ..      LSLS     r2,r2,#11
        0x00000de6:    e007        ..      B        0xdf8 ; _btod_d2e + 52
        0x00000de8:    2100        .!      MOVS     r1,#0
        0x00000dea:    2001        .       MOVS     r0,#1
        0x00000dec:    e7f2        ..      B        0xdd4 ; _btod_d2e + 16
        0x00000dee:    0fd4        ..      LSRS     r4,r2,#31
        0x00000df0:    0049        I.      LSLS     r1,r1,#1
        0x00000df2:    4321        !C      ORRS     r1,r1,r4
        0x00000df4:    0052        R.      LSLS     r2,r2,#1
        0x00000df6:    1e40        @.      SUBS     r0,r0,#1
        0x00000df8:    2900        .)      CMP      r1,#0
        0x00000dfa:    daf8        ..      BGE      0xdee ; _btod_d2e + 42
        0x00000dfc:    0fdb        ..      LSRS     r3,r3,#31
        0x00000dfe:    07db        ..      LSLS     r3,r3,#31
        0x00000e00:    4318        .C      ORRS     r0,r0,r3
        0x00000e02:    bd10        ..      POP      {r4,pc}
    btod_internal_mul
        0x00000e04:    b5ff        ..      PUSH     {r0-r7,lr}
        0x00000e06:    460d        .F      MOV      r5,r1
        0x00000e08:    4614        .F      MOV      r4,r2
        0x00000e0a:    b085        ..      SUB      sp,sp,#0x14
        0x00000e0c:    6848        Hh      LDR      r0,[r1,#4]
        0x00000e0e:    6851        Qh      LDR      r1,[r2,#4]
        0x00000e10:    f002fcd8    ....    BL       __ARM_common_ll_muluu ; 0x37c4
        0x00000e14:    9100        ..      STR      r1,[sp,#0]
        0x00000e16:    9001        ..      STR      r0,[sp,#4]
        0x00000e18:    68a8        .h      LDR      r0,[r5,#8]
        0x00000e1a:    68a1        .h      LDR      r1,[r4,#8]
        0x00000e1c:    f002fcd2    ....    BL       __ARM_common_ll_muluu ; 0x37c4
        0x00000e20:    9102        ..      STR      r1,[sp,#8]
        0x00000e22:    9003        ..      STR      r0,[sp,#0xc]
        0x00000e24:    68a8        .h      LDR      r0,[r5,#8]
        0x00000e26:    6861        ah      LDR      r1,[r4,#4]
        0x00000e28:    f002fccc    ....    BL       __ARM_common_ll_muluu ; 0x37c4
        0x00000e2c:    9a02        ..      LDR      r2,[sp,#8]
        0x00000e2e:    1812        ..      ADDS     r2,r2,r0
        0x00000e30:    4282        .B      CMP      r2,r0
        0x00000e32:    9202        ..      STR      r2,[sp,#8]
        0x00000e34:    d201        ..      BCS      0xe3a ; btod_internal_mul + 54
        0x00000e36:    2001        .       MOVS     r0,#1
        0x00000e38:    e000        ..      B        0xe3c ; btod_internal_mul + 56
        0x00000e3a:    2000        .       MOVS     r0,#0
        0x00000e3c:    9a01        ..      LDR      r2,[sp,#4]
        0x00000e3e:    180b        ..      ADDS     r3,r1,r0
        0x00000e40:    18d2        ..      ADDS     r2,r2,r3
        0x00000e42:    2800        .(      CMP      r0,#0
        0x00000e44:    9201        ..      STR      r2,[sp,#4]
        0x00000e46:    d002        ..      BEQ      0xe4e ; btod_internal_mul + 74
        0x00000e48:    428a        .B      CMP      r2,r1
        0x00000e4a:    d902        ..      BLS      0xe52 ; btod_internal_mul + 78
        0x00000e4c:    e003        ..      B        0xe56 ; btod_internal_mul + 82
        0x00000e4e:    428a        .B      CMP      r2,r1
        0x00000e50:    d201        ..      BCS      0xe56 ; btod_internal_mul + 82
        0x00000e52:    2001        .       MOVS     r0,#1
        0x00000e54:    e000        ..      B        0xe58 ; btod_internal_mul + 84
        0x00000e56:    2000        .       MOVS     r0,#0
        0x00000e58:    9900        ..      LDR      r1,[sp,#0]
        0x00000e5a:    1808        ..      ADDS     r0,r1,r0
        0x00000e5c:    9000        ..      STR      r0,[sp,#0]
        0x00000e5e:    6868        hh      LDR      r0,[r5,#4]
        0x00000e60:    68a1        .h      LDR      r1,[r4,#8]
        0x00000e62:    f002fcaf    ....    BL       __ARM_common_ll_muluu ; 0x37c4
        0x00000e66:    9a02        ..      LDR      r2,[sp,#8]
        0x00000e68:    1812        ..      ADDS     r2,r2,r0
        0x00000e6a:    4282        .B      CMP      r2,r0
        0x00000e6c:    9202        ..      STR      r2,[sp,#8]
        0x00000e6e:    d201        ..      BCS      0xe74 ; btod_internal_mul + 112
        0x00000e70:    2001        .       MOVS     r0,#1
        0x00000e72:    e000        ..      B        0xe76 ; btod_internal_mul + 114
        0x00000e74:    2000        .       MOVS     r0,#0
        0x00000e76:    9a01        ..      LDR      r2,[sp,#4]
        0x00000e78:    180b        ..      ADDS     r3,r1,r0
        0x00000e7a:    18d2        ..      ADDS     r2,r2,r3
        0x00000e7c:    2800        .(      CMP      r0,#0
        0x00000e7e:    9201        ..      STR      r2,[sp,#4]
        0x00000e80:    d002        ..      BEQ      0xe88 ; btod_internal_mul + 132
        0x00000e82:    428a        .B      CMP      r2,r1
        0x00000e84:    d902        ..      BLS      0xe8c ; btod_internal_mul + 136
        0x00000e86:    e003        ..      B        0xe90 ; btod_internal_mul + 140
        0x00000e88:    428a        .B      CMP      r2,r1
        0x00000e8a:    d201        ..      BCS      0xe90 ; btod_internal_mul + 140
        0x00000e8c:    2001        .       MOVS     r0,#1
        0x00000e8e:    e000        ..      B        0xe92 ; btod_internal_mul + 142
        0x00000e90:    2000        .       MOVS     r0,#0
        0x00000e92:    9900        ..      LDR      r1,[sp,#0]
        0x00000e94:    1808        ..      ADDS     r0,r1,r0
        0x00000e96:    9000        ..      STR      r0,[sp,#0]
        0x00000e98:    6828        (h      LDR      r0,[r5,#0]
        0x00000e9a:    6821        !h      LDR      r1,[r4,#0]
        0x00000e9c:    0040        @.      LSLS     r0,r0,#1
        0x00000e9e:    0049        I.      LSLS     r1,r1,#1
        0x00000ea0:    0840        @.      LSRS     r0,r0,#1
        0x00000ea2:    0849        I.      LSRS     r1,r1,#1
        0x00000ea4:    1840        @.      ADDS     r0,r0,r1
        0x00000ea6:    49fa        .I      LDR      r1,[pc,#1000] ; [0x1290] = 0xffffc002
        0x00000ea8:    1847        G.      ADDS     r7,r0,r1
        0x00000eaa:    e014        ..      B        0xed6 ; btod_internal_mul + 210
        0x00000eac:    9901        ..      LDR      r1,[sp,#4]
        0x00000eae:    0040        @.      LSLS     r0,r0,#1
        0x00000eb0:    0fc9        ..      LSRS     r1,r1,#31
        0x00000eb2:    4308        .C      ORRS     r0,r0,r1
        0x00000eb4:    9000        ..      STR      r0,[sp,#0]
        0x00000eb6:    9801        ..      LDR      r0,[sp,#4]
        0x00000eb8:    9902        ..      LDR      r1,[sp,#8]
        0x00000eba:    0040        @.      LSLS     r0,r0,#1
        0x00000ebc:    0fc9        ..      LSRS     r1,r1,#31
        0x00000ebe:    4308        .C      ORRS     r0,r0,r1
        0x00000ec0:    9001        ..      STR      r0,[sp,#4]
        0x00000ec2:    9802        ..      LDR      r0,[sp,#8]
        0x00000ec4:    9903        ..      LDR      r1,[sp,#0xc]
        0x00000ec6:    0040        @.      LSLS     r0,r0,#1
        0x00000ec8:    0fc9        ..      LSRS     r1,r1,#31
        0x00000eca:    4308        .C      ORRS     r0,r0,r1
        0x00000ecc:    9002        ..      STR      r0,[sp,#8]
        0x00000ece:    9803        ..      LDR      r0,[sp,#0xc]
        0x00000ed0:    0040        @.      LSLS     r0,r0,#1
        0x00000ed2:    1e7f        ..      SUBS     r7,r7,#1
        0x00000ed4:    9003        ..      STR      r0,[sp,#0xc]
        0x00000ed6:    9800        ..      LDR      r0,[sp,#0]
        0x00000ed8:    2800        .(      CMP      r0,#0
        0x00000eda:    dae7        ..      BGE      0xeac ; btod_internal_mul + 168
        0x00000edc:    9808        ..      LDR      r0,[sp,#0x20]
        0x00000ede:    2800        .(      CMP      r0,#0
        0x00000ee0:    d001        ..      BEQ      0xee6 ; btod_internal_mul + 226
        0x00000ee2:    4eec        .N      LDR      r6,[pc,#944] ; [0x1294] = 0x3c01
        0x00000ee4:    e000        ..      B        0xee8 ; btod_internal_mul + 228
        0x00000ee6:    2600        .&      MOVS     r6,#0
        0x00000ee8:    42b7        .B      CMP      r7,r6
        0x00000eea:    da01        ..      BGE      0xef0 ; btod_internal_mul + 236
        0x00000eec:    2001        .       MOVS     r0,#1
        0x00000eee:    e000        ..      B        0xef2 ; btod_internal_mul + 238
        0x00000ef0:    2000        .       MOVS     r0,#0
        0x00000ef2:    2800        .(      CMP      r0,#0
        0x00000ef4:    9004        ..      STR      r0,[sp,#0x10]
        0x00000ef6:    d02a        *.      BEQ      0xf4e ; btod_internal_mul + 330
        0x00000ef8:    1bf7        ..      SUBS     r7,r6,r7
        0x00000efa:    06f8        ..      LSLS     r0,r7,#27
        0x00000efc:    0ec0        ..      LSRS     r0,r0,#27
        0x00000efe:    d015        ..      BEQ      0xf2c ; btod_internal_mul + 296
        0x00000f00:    9b02        ..      LDR      r3,[sp,#8]
        0x00000f02:    2120         !      MOVS     r1,#0x20
        0x00000f04:    1a09        ..      SUBS     r1,r1,r0
        0x00000f06:    9a03        ..      LDR      r2,[sp,#0xc]
        0x00000f08:    408b        .@      LSLS     r3,r3,r1
        0x00000f0a:    431a        .C      ORRS     r2,r2,r3
        0x00000f0c:    9203        ..      STR      r2,[sp,#0xc]
        0x00000f0e:    9a02        ..      LDR      r2,[sp,#8]
        0x00000f10:    9b01        ..      LDR      r3,[sp,#4]
        0x00000f12:    40c2        .@      LSRS     r2,r2,r0
        0x00000f14:    408b        .@      LSLS     r3,r3,r1
        0x00000f16:    431a        .C      ORRS     r2,r2,r3
        0x00000f18:    9202        ..      STR      r2,[sp,#8]
        0x00000f1a:    9a01        ..      LDR      r2,[sp,#4]
        0x00000f1c:    9b00        ..      LDR      r3,[sp,#0]
        0x00000f1e:    40c2        .@      LSRS     r2,r2,r0
        0x00000f20:    408b        .@      LSLS     r3,r3,r1
        0x00000f22:    9900        ..      LDR      r1,[sp,#0]
        0x00000f24:    431a        .C      ORRS     r2,r2,r3
        0x00000f26:    9201        ..      STR      r2,[sp,#4]
        0x00000f28:    40c1        .@      LSRS     r1,r1,r0
        0x00000f2a:    9100        ..      STR      r1,[sp,#0]
        0x00000f2c:    117b        {.      ASRS     r3,r7,#5
        0x00000f2e:    d00d        ..      BEQ      0xf4c ; btod_internal_mul + 328
        0x00000f30:    466f        oF      MOV      r7,sp
        0x00000f32:    2003        .       MOVS     r0,#3
        0x00000f34:    1ac1        ..      SUBS     r1,r0,r3
        0x00000f36:    d503        ..      BPL      0xf40 ; btod_internal_mul + 316
        0x00000f38:    2100        .!      MOVS     r1,#0
        0x00000f3a:    0082        ..      LSLS     r2,r0,#2
        0x00000f3c:    50b9        .P      STR      r1,[r7,r2]
        0x00000f3e:    e003        ..      B        0xf48 ; btod_internal_mul + 324
        0x00000f40:    008a        ..      LSLS     r2,r1,#2
        0x00000f42:    0081        ..      LSLS     r1,r0,#2
        0x00000f44:    58ba        .X      LDR      r2,[r7,r2]
        0x00000f46:    507a        zP      STR      r2,[r7,r1]
        0x00000f48:    1e40        @.      SUBS     r0,r0,#1
        0x00000f4a:    d5f3        ..      BPL      0xf34 ; btod_internal_mul + 304
        0x00000f4c:    4637        7F      MOV      r7,r6
        0x00000f4e:    9803        ..      LDR      r0,[sp,#0xc]
        0x00000f50:    9902        ..      LDR      r1,[sp,#8]
        0x00000f52:    2800        .(      CMP      r0,#0
        0x00000f54:    d000        ..      BEQ      0xf58 ; btod_internal_mul + 340
        0x00000f56:    2001        .       MOVS     r0,#1
        0x00000f58:    4301        .C      ORRS     r1,r1,r0
        0x00000f5a:    9808        ..      LDR      r0,[sp,#0x20]
        0x00000f5c:    9102        ..      STR      r1,[sp,#8]
        0x00000f5e:    2800        .(      CMP      r0,#0
        0x00000f60:    4608        .F      MOV      r0,r1
        0x00000f62:    d00c        ..      BEQ      0xf7e ; btod_internal_mul + 378
        0x00000f64:    2800        .(      CMP      r0,#0
        0x00000f66:    d000        ..      BEQ      0xf6a ; btod_internal_mul + 358
        0x00000f68:    2001        .       MOVS     r0,#1
        0x00000f6a:    9901        ..      LDR      r1,[sp,#4]
        0x00000f6c:    9a01        ..      LDR      r2,[sp,#4]
        0x00000f6e:    0549        I.      LSLS     r1,r1,#21
        0x00000f70:    4308        .C      ORRS     r0,r0,r1
        0x00000f72:    2101        .!      MOVS     r1,#1
        0x00000f74:    0ad2        ..      LSRS     r2,r2,#11
        0x00000f76:    02c9        ..      LSLS     r1,r1,#11
        0x00000f78:    02d2        ..      LSLS     r2,r2,#11
        0x00000f7a:    9201        ..      STR      r2,[sp,#4]
        0x00000f7c:    e000        ..      B        0xf80 ; btod_internal_mul + 380
        0x00000f7e:    2101        .!      MOVS     r1,#1
        0x00000f80:    9b0e        ..      LDR      r3,[sp,#0x38]
        0x00000f82:    2201        ."      MOVS     r2,#1
        0x00000f84:    07d2        ..      LSLS     r2,r2,#31
        0x00000f86:    2b01        .+      CMP      r3,#1
        0x00000f88:    d002        ..      BEQ      0xf90 ; btod_internal_mul + 396
        0x00000f8a:    2b00        .+      CMP      r3,#0
        0x00000f8c:    d003        ..      BEQ      0xf96 ; btod_internal_mul + 402
        0x00000f8e:    e013        ..      B        0xfb8 ; btod_internal_mul + 436
        0x00000f90:    2800        .(      CMP      r0,#0
        0x00000f92:    d107        ..      BNE      0xfa4 ; btod_internal_mul + 416
        0x00000f94:    e020         .      B        0xfd8 ; btod_internal_mul + 468
        0x00000f96:    4290        .B      CMP      r0,r2
        0x00000f98:    d804        ..      BHI      0xfa4 ; btod_internal_mul + 416
        0x00000f9a:    4290        .B      CMP      r0,r2
        0x00000f9c:    d10c        ..      BNE      0xfb8 ; btod_internal_mul + 436
        0x00000f9e:    9b01        ..      LDR      r3,[sp,#4]
        0x00000fa0:    420b        .B      TST      r3,r1
        0x00000fa2:    d009        ..      BEQ      0xfb8 ; btod_internal_mul + 436
        0x00000fa4:    9b01        ..      LDR      r3,[sp,#4]
        0x00000fa6:    1859        Y.      ADDS     r1,r3,r1
        0x00000fa8:    9101        ..      STR      r1,[sp,#4]
        0x00000faa:    d105        ..      BNE      0xfb8 ; btod_internal_mul + 436
        0x00000fac:    9900        ..      LDR      r1,[sp,#0]
        0x00000fae:    1c49        I.      ADDS     r1,r1,#1
        0x00000fb0:    9100        ..      STR      r1,[sp,#0]
        0x00000fb2:    d101        ..      BNE      0xfb8 ; btod_internal_mul + 436
        0x00000fb4:    1c7f        ..      ADDS     r7,r7,#1
        0x00000fb6:    9200        ..      STR      r2,[sp,#0]
        0x00000fb8:    2800        .(      CMP      r0,#0
        0x00000fba:    d00d        ..      BEQ      0xfd8 ; btod_internal_mul + 468
        0x00000fbc:    2110        .!      MOVS     r1,#0x10
        0x00000fbe:    4608        .F      MOV      r0,r1
        0x00000fc0:    2000        .       MOVS     r0,#0
        0x00000fc2:    46c0        .F      MOV      r8,r8
        0x00000fc4:    9804        ..      LDR      r0,[sp,#0x10]
        0x00000fc6:    2800        .(      CMP      r0,#0
        0x00000fc8:    d006        ..      BEQ      0xfd8 ; btod_internal_mul + 468
        0x00000fca:    980f        ..      LDR      r0,[sp,#0x3c]
        0x00000fcc:    2800        .(      CMP      r0,#0
        0x00000fce:    d003        ..      BEQ      0xfd8 ; btod_internal_mul + 468
        0x00000fd0:    2108        .!      MOVS     r1,#8
        0x00000fd2:    4608        .F      MOV      r0,r1
        0x00000fd4:    2000        .       MOVS     r0,#0
        0x00000fd6:    46c0        .F      MOV      r8,r8
        0x00000fd8:    6828        (h      LDR      r0,[r5,#0]
        0x00000fda:    6821        !h      LDR      r1,[r4,#0]
        0x00000fdc:    9b01        ..      LDR      r3,[sp,#4]
        0x00000fde:    9a00        ..      LDR      r2,[sp,#0]
        0x00000fe0:    4048        H@      EORS     r0,r0,r1
        0x00000fe2:    0fc1        ..      LSRS     r1,r0,#31
        0x00000fe4:    9805        ..      LDR      r0,[sp,#0x14]
        0x00000fe6:    07c9        ..      LSLS     r1,r1,#31
        0x00000fe8:    4339        9C      ORRS     r1,r1,r7
        0x00000fea:    c00e        ..      STM      r0!,{r1-r3}
        0x00000fec:    b009        ..      ADD      sp,sp,#0x24
        0x00000fee:    bdf0        ..      POP      {r4-r7,pc}
    btod_internal_div
        0x00000ff0:    b5ff        ..      PUSH     {r0-r7,lr}
        0x00000ff2:    b087        ..      SUB      sp,sp,#0x1c
        0x00000ff4:    9a09        ..      LDR      r2,[sp,#0x24]
        0x00000ff6:    9808        ..      LDR      r0,[sp,#0x20]
        0x00000ff8:    9908        ..      LDR      r1,[sp,#0x20]
        0x00000ffa:    6853        Sh      LDR      r3,[r2,#4]
        0x00000ffc:    6892        .h      LDR      r2,[r2,#8]
        0x00000ffe:    6840        @h      LDR      r0,[r0,#4]
        0x00001000:    6889        .h      LDR      r1,[r1,#8]
        0x00001002:    4696        .F      MOV      lr,r2
        0x00001004:    2200        ."      MOVS     r2,#0
        0x00001006:    9303        ..      STR      r3,[sp,#0xc]
        0x00001008:    4617        .F      MOV      r7,r2
        0x0000100a:    4694        .F      MOV      r12,r2
        0x0000100c:    9a08        ..      LDR      r2,[sp,#0x20]
        0x0000100e:    6812        .h      LDR      r2,[r2,#0]
        0x00001010:    0053        S.      LSLS     r3,r2,#1
        0x00001012:    9a09        ..      LDR      r2,[sp,#0x24]
        0x00001014:    085b        [.      LSRS     r3,r3,#1
        0x00001016:    6812        .h      LDR      r2,[r2,#0]
        0x00001018:    0052        R.      LSLS     r2,r2,#1
        0x0000101a:    0852        R.      LSRS     r2,r2,#1
        0x0000101c:    1a9a        ..      SUBS     r2,r3,r2
        0x0000101e:    4b9e        .K      LDR      r3,[pc,#632] ; [0x1298] = 0x3fff
        0x00001020:    18d4        ..      ADDS     r4,r2,r3
        0x00001022:    9a0a        ..      LDR      r2,[sp,#0x28]
        0x00001024:    2a00        .*      CMP      r2,#0
        0x00001026:    d001        ..      BEQ      0x102c ; btod_internal_div + 60
        0x00001028:    2235        5"      MOVS     r2,#0x35
        0x0000102a:    e000        ..      B        0x102e ; btod_internal_div + 62
        0x0000102c:    2240        @"      MOVS     r2,#0x40
        0x0000102e:    9206        ..      STR      r2,[sp,#0x18]
        0x00001030:    2200        ."      MOVS     r2,#0
        0x00001032:    2301        .#      MOVS     r3,#1
        0x00001034:    4615        .F      MOV      r5,r2
        0x00001036:    9204        ..      STR      r2,[sp,#0x10]
        0x00001038:    07db        ..      LSLS     r3,r3,#31
        0x0000103a:    9305        ..      STR      r3,[sp,#0x14]
        0x0000103c:    e024        $.      B        0x1088 ; btod_internal_div + 152
        0x0000103e:    2d00        .-      CMP      r5,#0
        0x00001040:    d105        ..      BNE      0x104e ; btod_internal_div + 94
        0x00001042:    4675        uF      MOV      r5,lr
        0x00001044:    4603        .F      MOV      r3,r0
        0x00001046:    9e03        ..      LDR      r6,[sp,#0xc]
        0x00001048:    1b4d        M.      SUBS     r5,r1,r5
        0x0000104a:    41b3        .A      SBCS     r3,r3,r6
        0x0000104c:    d309        ..      BCC      0x1062 ; btod_internal_div + 114
        0x0000104e:    4675        uF      MOV      r5,lr
        0x00001050:    4666        fF      MOV      r6,r12
        0x00001052:    9b03        ..      LDR      r3,[sp,#0xc]
        0x00001054:    1b49        I.      SUBS     r1,r1,r5
        0x00001056:    9d04        ..      LDR      r5,[sp,#0x10]
        0x00001058:    4198        .A      SBCS     r0,r0,r3
        0x0000105a:    9b05        ..      LDR      r3,[sp,#0x14]
        0x0000105c:    1975        u.      ADDS     r5,r6,r5
        0x0000105e:    46ac        .F      MOV      r12,r5
        0x00001060:    415f        _A      ADCS     r7,r7,r3
        0x00001062:    4663        cF      MOV      r3,r12
        0x00001064:    433b        ;C      ORRS     r3,r3,r7
        0x00001066:    d008        ..      BEQ      0x107a ; btod_internal_div + 138
        0x00001068:    9b05        ..      LDR      r3,[sp,#0x14]
        0x0000106a:    9e04        ..      LDR      r6,[sp,#0x10]
        0x0000106c:    07dd        ..      LSLS     r5,r3,#31
        0x0000106e:    0876        v.      LSRS     r6,r6,#1
        0x00001070:    432e        .C      ORRS     r6,r6,r5
        0x00001072:    085b        [.      LSRS     r3,r3,#1
        0x00001074:    9604        ..      STR      r6,[sp,#0x10]
        0x00001076:    9305        ..      STR      r3,[sp,#0x14]
        0x00001078:    e001        ..      B        0x107e ; btod_internal_div + 142
        0x0000107a:    1e52        R.      SUBS     r2,r2,#1
        0x0000107c:    1e64        d.      SUBS     r4,r4,#1
        0x0000107e:    0fc5        ..      LSRS     r5,r0,#31
        0x00001080:    07ed        ..      LSLS     r5,r5,#31
        0x00001082:    1849        I.      ADDS     r1,r1,r1
        0x00001084:    4140        @A      ADCS     r0,r0,r0
        0x00001086:    1c52        R.      ADDS     r2,r2,#1
        0x00001088:    9b06        ..      LDR      r3,[sp,#0x18]
        0x0000108a:    429a        .B      CMP      r2,r3
        0x0000108c:    dbd7        ..      BLT      0x103e ; btod_internal_div + 78
        0x0000108e:    2d00        .-      CMP      r5,#0
        0x00001090:    d104        ..      BNE      0x109c ; btod_internal_div + 172
        0x00001092:    4675        uF      MOV      r5,lr
        0x00001094:    9a03        ..      LDR      r2,[sp,#0xc]
        0x00001096:    1a6b        k.      SUBS     r3,r5,r1
        0x00001098:    4182        .A      SBCS     r2,r2,r0
        0x0000109a:    d201        ..      BCS      0x10a0 ; btod_internal_div + 176
        0x0000109c:    2003        .       MOVS     r0,#3
        0x0000109e:    e00c        ..      B        0x10ba ; btod_internal_div + 202
        0x000010a0:    9a03        ..      LDR      r2,[sp,#0xc]
        0x000010a2:    460b        .F      MOV      r3,r1
        0x000010a4:    406b        k@      EORS     r3,r3,r5
        0x000010a6:    4042        B@      EORS     r2,r2,r0
        0x000010a8:    4313        .C      ORRS     r3,r3,r2
        0x000010aa:    d003        ..      BEQ      0x10b4 ; btod_internal_div + 196
        0x000010ac:    4301        .C      ORRS     r1,r1,r0
        0x000010ae:    d003        ..      BEQ      0x10b8 ; btod_internal_div + 200
        0x000010b0:    2001        .       MOVS     r0,#1
        0x000010b2:    e002        ..      B        0x10ba ; btod_internal_div + 202
        0x000010b4:    2002        .       MOVS     r0,#2
        0x000010b6:    e000        ..      B        0x10ba ; btod_internal_div + 202
        0x000010b8:    2000        .       MOVS     r0,#0
        0x000010ba:    4661        aF      MOV      r1,r12
        0x000010bc:    9101        ..      STR      r1,[sp,#4]
        0x000010be:    2100        .!      MOVS     r1,#0
        0x000010c0:    9700        ..      STR      r7,[sp,#0]
        0x000010c2:    9102        ..      STR      r1,[sp,#8]
        0x000010c4:    990a        ..      LDR      r1,[sp,#0x28]
        0x000010c6:    2900        .)      CMP      r1,#0
        0x000010c8:    d005        ..      BEQ      0x10d6 ; btod_internal_div + 230
        0x000010ca:    4661        aF      MOV      r1,r12
        0x000010cc:    0240        @.      LSLS     r0,r0,#9
        0x000010ce:    4301        .C      ORRS     r1,r1,r0
        0x000010d0:    4b70        pK      LDR      r3,[pc,#448] ; [0x1294] = 0x3c01
        0x000010d2:    9101        ..      STR      r1,[sp,#4]
        0x000010d4:    e002        ..      B        0x10dc ; btod_internal_div + 236
        0x000010d6:    0780        ..      LSLS     r0,r0,#30
        0x000010d8:    2300        .#      MOVS     r3,#0
        0x000010da:    9002        ..      STR      r0,[sp,#8]
        0x000010dc:    429c        .B      CMP      r4,r3
        0x000010de:    da01        ..      BGE      0x10e4 ; btod_internal_div + 244
        0x000010e0:    2001        .       MOVS     r0,#1
        0x000010e2:    e000        ..      B        0x10e6 ; btod_internal_div + 246
        0x000010e4:    2000        .       MOVS     r0,#0
        0x000010e6:    0007        ..      MOVS     r7,r0
        0x000010e8:    d03a        :.      BEQ      0x1160 ; btod_internal_div + 368
        0x000010ea:    1b1a        ..      SUBS     r2,r3,r4
        0x000010ec:    06d0        ..      LSLS     r0,r2,#27
        0x000010ee:    0ec0        ..      LSRS     r0,r0,#27
        0x000010f0:    d015        ..      BEQ      0x111e ; btod_internal_div + 302
        0x000010f2:    9d02        ..      LDR      r5,[sp,#8]
        0x000010f4:    2120         !      MOVS     r1,#0x20
        0x000010f6:    9c01        ..      LDR      r4,[sp,#4]
        0x000010f8:    1a09        ..      SUBS     r1,r1,r0
        0x000010fa:    40c5        .@      LSRS     r5,r5,r0
        0x000010fc:    408c        .@      LSLS     r4,r4,r1
        0x000010fe:    4325        %C      ORRS     r5,r5,r4
        0x00001100:    9c02        ..      LDR      r4,[sp,#8]
        0x00001102:    408c        .@      LSLS     r4,r4,r1
        0x00001104:    d000        ..      BEQ      0x1108 ; btod_internal_div + 280
        0x00001106:    2401        .$      MOVS     r4,#1
        0x00001108:    4325        %C      ORRS     r5,r5,r4
        0x0000110a:    9c01        ..      LDR      r4,[sp,#4]
        0x0000110c:    9502        ..      STR      r5,[sp,#8]
        0x0000110e:    9d00        ..      LDR      r5,[sp,#0]
        0x00001110:    40c4        .@      LSRS     r4,r4,r0
        0x00001112:    408d        .@      LSLS     r5,r5,r1
        0x00001114:    9900        ..      LDR      r1,[sp,#0]
        0x00001116:    432c        ,C      ORRS     r4,r4,r5
        0x00001118:    9401        ..      STR      r4,[sp,#4]
        0x0000111a:    40c1        .@      LSRS     r1,r1,r0
        0x0000111c:    9100        ..      STR      r1,[sp,#0]
        0x0000111e:    1154        T.      ASRS     r4,r2,#5
        0x00001120:    d01d        ..      BEQ      0x115e ; btod_internal_div + 366
        0x00001122:    466d        mF      MOV      r5,sp
        0x00001124:    2102        .!      MOVS     r1,#2
        0x00001126:    2200        ."      MOVS     r2,#0
        0x00001128:    2902        .)      CMP      r1,#2
        0x0000112a:    d10c        ..      BNE      0x1146 ; btod_internal_div + 342
        0x0000112c:    2003        .       MOVS     r0,#3
        0x0000112e:    1b00        ..      SUBS     r0,r0,r4
        0x00001130:    e007        ..      B        0x1142 ; btod_internal_div + 338
        0x00001132:    2800        .(      CMP      r0,#0
        0x00001134:    db04        ..      BLT      0x1140 ; btod_internal_div + 336
        0x00001136:    0086        ..      LSLS     r6,r0,#2
        0x00001138:    59ae        .Y      LDR      r6,[r5,r6]
        0x0000113a:    2e00        ..      CMP      r6,#0
        0x0000113c:    d000        ..      BEQ      0x1140 ; btod_internal_div + 336
        0x0000113e:    2201        ."      MOVS     r2,#1
        0x00001140:    1c40        @.      ADDS     r0,r0,#1
        0x00001142:    2803        .(      CMP      r0,#3
        0x00001144:    dbf5        ..      BLT      0x1132 ; btod_internal_div + 322
        0x00001146:    1b08        ..      SUBS     r0,r1,r4
        0x00001148:    d502        ..      BPL      0x1150 ; btod_internal_div + 352
        0x0000114a:    0088        ..      LSLS     r0,r1,#2
        0x0000114c:    502a        *P      STR      r2,[r5,r0]
        0x0000114e:    e004        ..      B        0x115a ; btod_internal_div + 362
        0x00001150:    0080        ..      LSLS     r0,r0,#2
        0x00001152:    5828        (X      LDR      r0,[r5,r0]
        0x00001154:    4310        .C      ORRS     r0,r0,r2
        0x00001156:    008a        ..      LSLS     r2,r1,#2
        0x00001158:    50a8        .P      STR      r0,[r5,r2]
        0x0000115a:    1e49        I.      SUBS     r1,r1,#1
        0x0000115c:    d5e3        ..      BPL      0x1126 ; btod_internal_div + 310
        0x0000115e:    461c        .F      MOV      r4,r3
        0x00001160:    980a        ..      LDR      r0,[sp,#0x28]
        0x00001162:    2800        .(      CMP      r0,#0
        0x00001164:    9802        ..      LDR      r0,[sp,#8]
        0x00001166:    d00c        ..      BEQ      0x1182 ; btod_internal_div + 402
        0x00001168:    2800        .(      CMP      r0,#0
        0x0000116a:    d000        ..      BEQ      0x116e ; btod_internal_div + 382
        0x0000116c:    2001        .       MOVS     r0,#1
        0x0000116e:    9901        ..      LDR      r1,[sp,#4]
        0x00001170:    9a01        ..      LDR      r2,[sp,#4]
        0x00001172:    0549        I.      LSLS     r1,r1,#21
        0x00001174:    4308        .C      ORRS     r0,r0,r1
        0x00001176:    2101        .!      MOVS     r1,#1
        0x00001178:    0ad2        ..      LSRS     r2,r2,#11
        0x0000117a:    02c9        ..      LSLS     r1,r1,#11
        0x0000117c:    02d2        ..      LSLS     r2,r2,#11
        0x0000117e:    9201        ..      STR      r2,[sp,#4]
        0x00001180:    e000        ..      B        0x1184 ; btod_internal_div + 404
        0x00001182:    2101        .!      MOVS     r1,#1
        0x00001184:    9b10        ..      LDR      r3,[sp,#0x40]
        0x00001186:    2201        ."      MOVS     r2,#1
        0x00001188:    07d2        ..      LSLS     r2,r2,#31
        0x0000118a:    2b01        .+      CMP      r3,#1
        0x0000118c:    d002        ..      BEQ      0x1194 ; btod_internal_div + 420
        0x0000118e:    2b00        .+      CMP      r3,#0
        0x00001190:    d003        ..      BEQ      0x119a ; btod_internal_div + 426
        0x00001192:    e013        ..      B        0x11bc ; btod_internal_div + 460
        0x00001194:    2800        .(      CMP      r0,#0
        0x00001196:    d107        ..      BNE      0x11a8 ; btod_internal_div + 440
        0x00001198:    e01f        ..      B        0x11da ; btod_internal_div + 490
        0x0000119a:    4290        .B      CMP      r0,r2
        0x0000119c:    d804        ..      BHI      0x11a8 ; btod_internal_div + 440
        0x0000119e:    4290        .B      CMP      r0,r2
        0x000011a0:    d10c        ..      BNE      0x11bc ; btod_internal_div + 460
        0x000011a2:    9b01        ..      LDR      r3,[sp,#4]
        0x000011a4:    420b        .B      TST      r3,r1
        0x000011a6:    d009        ..      BEQ      0x11bc ; btod_internal_div + 460
        0x000011a8:    9b01        ..      LDR      r3,[sp,#4]
        0x000011aa:    1859        Y.      ADDS     r1,r3,r1
        0x000011ac:    9101        ..      STR      r1,[sp,#4]
        0x000011ae:    d105        ..      BNE      0x11bc ; btod_internal_div + 460
        0x000011b0:    9900        ..      LDR      r1,[sp,#0]
        0x000011b2:    1c49        I.      ADDS     r1,r1,#1
        0x000011b4:    9100        ..      STR      r1,[sp,#0]
        0x000011b6:    d101        ..      BNE      0x11bc ; btod_internal_div + 460
        0x000011b8:    1c64        d.      ADDS     r4,r4,#1
        0x000011ba:    9200        ..      STR      r2,[sp,#0]
        0x000011bc:    2800        .(      CMP      r0,#0
        0x000011be:    d00c        ..      BEQ      0x11da ; btod_internal_div + 490
        0x000011c0:    2110        .!      MOVS     r1,#0x10
        0x000011c2:    4608        .F      MOV      r0,r1
        0x000011c4:    2000        .       MOVS     r0,#0
        0x000011c6:    46c0        .F      MOV      r8,r8
        0x000011c8:    2f00        ./      CMP      r7,#0
        0x000011ca:    d006        ..      BEQ      0x11da ; btod_internal_div + 490
        0x000011cc:    9811        ..      LDR      r0,[sp,#0x44]
        0x000011ce:    2800        .(      CMP      r0,#0
        0x000011d0:    d003        ..      BEQ      0x11da ; btod_internal_div + 490
        0x000011d2:    2108        .!      MOVS     r1,#8
        0x000011d4:    4608        .F      MOV      r0,r1
        0x000011d6:    2000        .       MOVS     r0,#0
        0x000011d8:    46c0        .F      MOV      r8,r8
        0x000011da:    9808        ..      LDR      r0,[sp,#0x20]
        0x000011dc:    9909        ..      LDR      r1,[sp,#0x24]
        0x000011de:    9a01        ..      LDR      r2,[sp,#4]
        0x000011e0:    9b00        ..      LDR      r3,[sp,#0]
        0x000011e2:    6800        .h      LDR      r0,[r0,#0]
        0x000011e4:    6809        .h      LDR      r1,[r1,#0]
        0x000011e6:    4048        H@      EORS     r0,r0,r1
        0x000011e8:    0fc1        ..      LSRS     r1,r0,#31
        0x000011ea:    9807        ..      LDR      r0,[sp,#0x1c]
        0x000011ec:    07c9        ..      LSLS     r1,r1,#31
        0x000011ee:    4321        !C      ORRS     r1,r1,r4
        0x000011f0:    6082        .`      STR      r2,[r0,#8]
        0x000011f2:    c00a        ..      STM      r0!,{r1,r3}
        0x000011f4:    b00b        ..      ADD      sp,sp,#0x2c
        0x000011f6:    bdf0        ..      POP      {r4-r7,pc}
    _btod_emul
        0x000011f8:    b500        ..      PUSH     {lr}
        0x000011fa:    b085        ..      SUB      sp,sp,#0x14
        0x000011fc:    9301        ..      STR      r3,[sp,#4]
        0x000011fe:    9200        ..      STR      r2,[sp,#0]
        0x00001200:    460a        .F      MOV      r2,r1
        0x00001202:    4601        .F      MOV      r1,r0
        0x00001204:    2300        .#      MOVS     r3,#0
        0x00001206:    a802        ..      ADD      r0,sp,#8
        0x00001208:    f7fffdfc    ....    BL       btod_internal_mul ; 0xe04
        0x0000120c:    a802        ..      ADD      r0,sp,#8
        0x0000120e:    c807        ..      LDM      r0,{r0-r2}
        0x00001210:    b005        ..      ADD      sp,sp,#0x14
        0x00001212:    bd00        ..      POP      {pc}
    _btod_emuld
        0x00001214:    b5ff        ..      PUSH     {r0-r7,lr}
        0x00001216:    460a        .F      MOV      r2,r1
        0x00001218:    461f        .F      MOV      r7,r3
        0x0000121a:    b085        ..      SUB      sp,sp,#0x14
        0x0000121c:    9907        ..      LDR      r1,[sp,#0x1c]
        0x0000121e:    9301        ..      STR      r3,[sp,#4]
        0x00001220:    2301        .#      MOVS     r3,#1
        0x00001222:    9100        ..      STR      r1,[sp,#0]
        0x00001224:    4601        .F      MOV      r1,r0
        0x00001226:    a802        ..      ADD      r0,sp,#8
        0x00001228:    f7fffdec    ....    BL       btod_internal_mul ; 0xe04
        0x0000122c:    9902        ..      LDR      r1,[sp,#8]
        0x0000122e:    9803        ..      LDR      r0,[sp,#0xc]
        0x00001230:    9e04        ..      LDR      r6,[sp,#0x10]
        0x00001232:    0fca        ..      LSRS     r2,r1,#31
        0x00001234:    0049        I.      LSLS     r1,r1,#1
        0x00001236:    07d2        ..      LSLS     r2,r2,#31
        0x00001238:    9200        ..      STR      r2,[sp,#0]
        0x0000123a:    220f        ."      MOVS     r2,#0xf
        0x0000123c:    0849        I.      LSRS     r1,r1,#1
        0x0000123e:    0292        ..      LSLS     r2,r2,#10
        0x00001240:    1a8c        ..      SUBS     r4,r1,r2
        0x00001242:    2100        .!      MOVS     r1,#0
        0x00001244:    2800        .(      CMP      r0,#0
        0x00001246:    db00        ..      BLT      0x124a ; _btod_emuld + 54
        0x00001248:    460c        .F      MOV      r4,r1
        0x0000124a:    0045        E.      LSLS     r5,r0,#1
        0x0000124c:    4813        .H      LDR      r0,[pc,#76] ; [0x129c] = 0x7ff
        0x0000124e:    086d        m.      LSRS     r5,r5,#1
        0x00001250:    4284        .B      CMP      r4,r0
        0x00001252:    d314        ..      BCC      0x127e ; _btod_emuld + 106
        0x00001254:    9a07        ..      LDR      r2,[sp,#0x1c]
        0x00001256:    2a00        .*      CMP      r2,#0
        0x00001258:    da04        ..      BGE      0x1264 ; _btod_emuld + 80
        0x0000125a:    1e44        D.      SUBS     r4,r0,#1
        0x0000125c:    2600        .&      MOVS     r6,#0
        0x0000125e:    4d10        .M      LDR      r5,[pc,#64] ; [0x12a0] = 0x7fffffff
        0x00001260:    43f6        .C      MVNS     r6,r6
        0x00001262:    e002        ..      B        0x126a ; _btod_emuld + 86
        0x00001264:    4604        .F      MOV      r4,r0
        0x00001266:    460d        .F      MOV      r5,r1
        0x00001268:    460e        .F      MOV      r6,r1
        0x0000126a:    2110        .!      MOVS     r1,#0x10
        0x0000126c:    4608        .F      MOV      r0,r1
        0x0000126e:    2000        .       MOVS     r0,#0
        0x00001270:    46c0        .F      MOV      r8,r8
        0x00001272:    2f00        ./      CMP      r7,#0
        0x00001274:    d003        ..      BEQ      0x127e ; _btod_emuld + 106
        0x00001276:    2104        .!      MOVS     r1,#4
        0x00001278:    4608        .F      MOV      r0,r1
        0x0000127a:    2000        .       MOVS     r0,#0
        0x0000127c:    46c0        .F      MOV      r8,r8
        0x0000127e:    0520         .      LSLS     r0,r4,#20
        0x00001280:    0ae9        ..      LSRS     r1,r5,#11
        0x00001282:    4308        .C      ORRS     r0,r0,r1
        0x00001284:    9900        ..      LDR      r1,[sp,#0]
        0x00001286:    4308        .C      ORRS     r0,r0,r1
        0x00001288:    0569        i.      LSLS     r1,r5,#21
        0x0000128a:    0af2        ..      LSRS     r2,r6,#11
        0x0000128c:    4311        .C      ORRS     r1,r1,r2
        0x0000128e:    e6ad        ..      B        0xfec ; btod_internal_mul + 488
    $d
        0x00001290:    ffffc002    ....    DCD    4294950914
        0x00001294:    00003c01    .<..    DCD    15361
        0x00001298:    00003fff    .?..    DCD    16383
        0x0000129c:    000007ff    ....    DCD    2047
        0x000012a0:    7fffffff    ....    DCD    2147483647
    $t
    _btod_ediv
        0x000012a4:    b500        ..      PUSH     {lr}
        0x000012a6:    b085        ..      SUB      sp,sp,#0x14
        0x000012a8:    9301        ..      STR      r3,[sp,#4]
        0x000012aa:    9200        ..      STR      r2,[sp,#0]
        0x000012ac:    460a        .F      MOV      r2,r1
        0x000012ae:    4601        .F      MOV      r1,r0
        0x000012b0:    2300        .#      MOVS     r3,#0
        0x000012b2:    a802        ..      ADD      r0,sp,#8
        0x000012b4:    f7fffe9c    ....    BL       btod_internal_div ; 0xff0
        0x000012b8:    a802        ..      ADD      r0,sp,#8
        0x000012ba:    c807        ..      LDM      r0,{r0-r2}
        0x000012bc:    e7a8        ..      B        0x1210 ; _btod_emul + 24
    _btod_edivd
        0x000012be:    b5ff        ..      PUSH     {r0-r7,lr}
        0x000012c0:    460a        .F      MOV      r2,r1
        0x000012c2:    461f        .F      MOV      r7,r3
        0x000012c4:    b085        ..      SUB      sp,sp,#0x14
        0x000012c6:    9907        ..      LDR      r1,[sp,#0x1c]
        0x000012c8:    9301        ..      STR      r3,[sp,#4]
        0x000012ca:    2301        .#      MOVS     r3,#1
        0x000012cc:    9100        ..      STR      r1,[sp,#0]
        0x000012ce:    4601        .F      MOV      r1,r0
        0x000012d0:    a802        ..      ADD      r0,sp,#8
        0x000012d2:    f7fffe8d    ....    BL       btod_internal_div ; 0xff0
        0x000012d6:    9902        ..      LDR      r1,[sp,#8]
        0x000012d8:    9803        ..      LDR      r0,[sp,#0xc]
        0x000012da:    9e04        ..      LDR      r6,[sp,#0x10]
        0x000012dc:    0fca        ..      LSRS     r2,r1,#31
        0x000012de:    0049        I.      LSLS     r1,r1,#1
        0x000012e0:    07d2        ..      LSLS     r2,r2,#31
        0x000012e2:    9200        ..      STR      r2,[sp,#0]
        0x000012e4:    220f        ."      MOVS     r2,#0xf
        0x000012e6:    0849        I.      LSRS     r1,r1,#1
        0x000012e8:    0292        ..      LSLS     r2,r2,#10
        0x000012ea:    1a8c        ..      SUBS     r4,r1,r2
        0x000012ec:    2100        .!      MOVS     r1,#0
        0x000012ee:    2800        .(      CMP      r0,#0
        0x000012f0:    db00        ..      BLT      0x12f4 ; _btod_edivd + 54
        0x000012f2:    460c        .F      MOV      r4,r1
        0x000012f4:    0045        E.      LSLS     r5,r0,#1
        0x000012f6:    4811        .H      LDR      r0,[pc,#68] ; [0x133c] = 0x7ff
        0x000012f8:    086d        m.      LSRS     r5,r5,#1
        0x000012fa:    4284        .B      CMP      r4,r0
        0x000012fc:    d314        ..      BCC      0x1328 ; _btod_edivd + 106
        0x000012fe:    9a07        ..      LDR      r2,[sp,#0x1c]
        0x00001300:    2a00        .*      CMP      r2,#0
        0x00001302:    da04        ..      BGE      0x130e ; _btod_edivd + 80
        0x00001304:    1e44        D.      SUBS     r4,r0,#1
        0x00001306:    2600        .&      MOVS     r6,#0
        0x00001308:    4d0d        .M      LDR      r5,[pc,#52] ; [0x1340] = 0x7fffffff
        0x0000130a:    43f6        .C      MVNS     r6,r6
        0x0000130c:    e002        ..      B        0x1314 ; _btod_edivd + 86
        0x0000130e:    4604        .F      MOV      r4,r0
        0x00001310:    460d        .F      MOV      r5,r1
        0x00001312:    460e        .F      MOV      r6,r1
        0x00001314:    2110        .!      MOVS     r1,#0x10
        0x00001316:    4608        .F      MOV      r0,r1
        0x00001318:    2000        .       MOVS     r0,#0
        0x0000131a:    46c0        .F      MOV      r8,r8
        0x0000131c:    2f00        ./      CMP      r7,#0
        0x0000131e:    d003        ..      BEQ      0x1328 ; _btod_edivd + 106
        0x00001320:    2104        .!      MOVS     r1,#4
        0x00001322:    4608        .F      MOV      r0,r1
        0x00001324:    2000        .       MOVS     r0,#0
        0x00001326:    46c0        .F      MOV      r8,r8
        0x00001328:    0520         .      LSLS     r0,r4,#20
        0x0000132a:    0ae9        ..      LSRS     r1,r5,#11
        0x0000132c:    4308        .C      ORRS     r0,r0,r1
        0x0000132e:    9900        ..      LDR      r1,[sp,#0]
        0x00001330:    4308        .C      ORRS     r0,r0,r1
        0x00001332:    0569        i.      LSLS     r1,r5,#21
        0x00001334:    0af2        ..      LSRS     r2,r6,#11
        0x00001336:    4311        .C      ORRS     r1,r1,r2
        0x00001338:    e658        X.      B        0xfec ; btod_internal_mul + 488
    $d
        0x0000133a:    0000        ..      DCW    0
        0x0000133c:    000007ff    ....    DCD    2047
        0x00001340:    7fffffff    ....    DCD    2147483647
    $t
    .text
    __rt_udiv10
        0x00001344:    4601        .F      MOV      r1,r0
        0x00001346:    0880        ..      LSRS     r0,r0,#2
        0x00001348:    1a08        ..      SUBS     r0,r1,r0
        0x0000134a:    0902        ..      LSRS     r2,r0,#4
        0x0000134c:    1810        ..      ADDS     r0,r2,r0
        0x0000134e:    0a02        ..      LSRS     r2,r0,#8
        0x00001350:    1810        ..      ADDS     r0,r2,r0
        0x00001352:    0c02        ..      LSRS     r2,r0,#16
        0x00001354:    1810        ..      ADDS     r0,r2,r0
        0x00001356:    08c0        ..      LSRS     r0,r0,#3
        0x00001358:    0082        ..      LSLS     r2,r0,#2
        0x0000135a:    1812        ..      ADDS     r2,r2,r0
        0x0000135c:    0052        R.      LSLS     r2,r2,#1
        0x0000135e:    1a89        ..      SUBS     r1,r1,r2
        0x00001360:    e001        ..      B        0x1366 ; __rt_udiv10 + 34
        0x00001362:    1c40        @.      ADDS     r0,r0,#1
        0x00001364:    390a        .9      SUBS     r1,r1,#0xa
        0x00001366:    290a        .)      CMP      r1,#0xa
        0x00001368:    d2fb        ..      BCS      0x1362 ; __rt_udiv10 + 30
        0x0000136a:    4770        pG      BX       lr
    .text
    __user_libspace
    __user_perproc_libspace
    __user_perthread_libspace
        0x0000136c:    4800        .H      LDR      r0,[pc,#0] ; [0x1370] = 0x2000043c
        0x0000136e:    4770        pG      BX       lr
    $d
        0x00001370:    2000043c    <..     DCD    536871996
    $t
    .text
    __user_setup_stackheap
        0x00001374:    4675        uF      MOV      r5,lr
        0x00001376:    f7fffff9    ....    BL       __user_libspace ; 0x136c
        0x0000137a:    46ae        .F      MOV      lr,r5
        0x0000137c:    0005        ..      MOVS     r5,r0
        0x0000137e:    4669        iF      MOV      r1,sp
        0x00001380:    4653        SF      MOV      r3,r10
        0x00001382:    08c0        ..      LSRS     r0,r0,#3
        0x00001384:    00c0        ..      LSLS     r0,r0,#3
        0x00001386:    4685        .F      MOV      sp,r0
        0x00001388:    b018        ..      ADD      sp,sp,#0x60
        0x0000138a:    b520         .      PUSH     {r5,lr}
        0x0000138c:    f7feff18    ....    BL       __user_initial_stackheap ; 0x1c0
        0x00001390:    bc60        `.      POP      {r5,r6}
        0x00001392:    2700        .'      MOVS     r7,#0
        0x00001394:    0849        I.      LSRS     r1,r1,#1
        0x00001396:    46b6        .F      MOV      lr,r6
        0x00001398:    2600        .&      MOVS     r6,#0
        0x0000139a:    c5c0        ..      STM      r5!,{r6,r7}
        0x0000139c:    c5c0        ..      STM      r5!,{r6,r7}
        0x0000139e:    c5c0        ..      STM      r5!,{r6,r7}
        0x000013a0:    c5c0        ..      STM      r5!,{r6,r7}
        0x000013a2:    c5c0        ..      STM      r5!,{r6,r7}
        0x000013a4:    c5c0        ..      STM      r5!,{r6,r7}
        0x000013a6:    c5c0        ..      STM      r5!,{r6,r7}
        0x000013a8:    c5c0        ..      STM      r5!,{r6,r7}
        0x000013aa:    3d40        @=      SUBS     r5,r5,#0x40
        0x000013ac:    0049        I.      LSLS     r1,r1,#1
        0x000013ae:    468d        .F      MOV      sp,r1
        0x000013b0:    4770        pG      BX       lr
    .text
    exit
        0x000013b2:    b510        ..      PUSH     {r4,lr}
        0x000013b4:    4604        .F      MOV      r4,r0
        0x000013b6:    46c0        .F      MOV      r8,r8
        0x000013b8:    46c0        .F      MOV      r8,r8
        0x000013ba:    4620         F      MOV      r0,r4
        0x000013bc:    f7fefed1    ....    BL       __rt_exit ; 0x162
        0x000013c0:    bd10        ..      POP      {r4,pc}
        0x000013c2:    0000        ..      MOVS     r0,r0
    .text
    strcmp
        0x000013c4:    4602        .F      MOV      r2,r0
        0x000013c6:    b570        p.      PUSH     {r4-r6,lr}
        0x000013c8:    430a        .C      ORRS     r2,r2,r1
        0x000013ca:    0792        ..      LSLS     r2,r2,#30
        0x000013cc:    d12a        *.      BNE      0x1424 ; strcmp + 96
        0x000013ce:    4d1e        .M      LDR      r5,[pc,#120] ; [0x1448] = 0x1010101
        0x000013d0:    01ee        ..      LSLS     r6,r5,#7
        0x000013d2:    c804        ..      LDM      r0!,{r2}
        0x000013d4:    c908        ..      LDM      r1!,{r3}
        0x000013d6:    1b54        T.      SUBS     r4,r2,r5
        0x000013d8:    4394        .C      BICS     r4,r4,r2
        0x000013da:    4034        4@      ANDS     r4,r4,r6
        0x000013dc:    d017        ..      BEQ      0x140e ; strcmp + 74
        0x000013de:    b2d0        ..      UXTB     r0,r2
        0x000013e0:    b2d9        ..      UXTB     r1,r3
        0x000013e2:    1a40        @.      SUBS     r0,r0,r1
        0x000013e4:    0621        !.      LSLS     r1,r4,#24
        0x000013e6:    4301        .C      ORRS     r1,r1,r0
        0x000013e8:    d110        ..      BNE      0x140c ; strcmp + 72
        0x000013ea:    b290        ..      UXTH     r0,r2
        0x000013ec:    b299        ..      UXTH     r1,r3
        0x000013ee:    1a40        @.      SUBS     r0,r0,r1
        0x000013f0:    0421        !.      LSLS     r1,r4,#16
        0x000013f2:    4301        .C      ORRS     r1,r1,r0
        0x000013f4:    d10a        ..      BNE      0x140c ; strcmp + 72
        0x000013f6:    0210        ..      LSLS     r0,r2,#8
        0x000013f8:    0219        ..      LSLS     r1,r3,#8
        0x000013fa:    0a00        ..      LSRS     r0,r0,#8
        0x000013fc:    0a09        ..      LSRS     r1,r1,#8
        0x000013fe:    1a40        @.      SUBS     r0,r0,r1
        0x00001400:    0221        !.      LSLS     r1,r4,#8
        0x00001402:    4301        .C      ORRS     r1,r1,r0
        0x00001404:    d102        ..      BNE      0x140c ; strcmp + 72
        0x00001406:    0e10        ..      LSRS     r0,r2,#24
        0x00001408:    0e19        ..      LSRS     r1,r3,#24
        0x0000140a:    1a40        @.      SUBS     r0,r0,r1
        0x0000140c:    bd70        p.      POP      {r4-r6,pc}
        0x0000140e:    429a        .B      CMP      r2,r3
        0x00001410:    d0df        ..      BEQ      0x13d2 ; strcmp + 14
        0x00001412:    ba10        ..      REV      r0,r2
        0x00001414:    ba19        ..      REV      r1,r3
        0x00001416:    4288        .B      CMP      r0,r1
        0x00001418:    d901        ..      BLS      0x141e ; strcmp + 90
        0x0000141a:    2001        .       MOVS     r0,#1
        0x0000141c:    bd70        p.      POP      {r4-r6,pc}
        0x0000141e:    2000        .       MOVS     r0,#0
        0x00001420:    43c0        .C      MVNS     r0,r0
        0x00001422:    bd70        p.      POP      {r4-r6,pc}
        0x00001424:    7802        .x      LDRB     r2,[r0,#0]
        0x00001426:    780b        .x      LDRB     r3,[r1,#0]
        0x00001428:    1c40        @.      ADDS     r0,r0,#1
        0x0000142a:    1c49        I.      ADDS     r1,r1,#1
        0x0000142c:    2a00        .*      CMP      r2,#0
        0x0000142e:    d009        ..      BEQ      0x1444 ; strcmp + 128
        0x00001430:    429a        .B      CMP      r2,r3
        0x00001432:    d107        ..      BNE      0x1444 ; strcmp + 128
        0x00001434:    7802        .x      LDRB     r2,[r0,#0]
        0x00001436:    780b        .x      LDRB     r3,[r1,#0]
        0x00001438:    1c40        @.      ADDS     r0,r0,#1
        0x0000143a:    1c49        I.      ADDS     r1,r1,#1
        0x0000143c:    2a00        .*      CMP      r2,#0
        0x0000143e:    d001        ..      BEQ      0x1444 ; strcmp + 128
        0x00001440:    429a        .B      CMP      r2,r3
        0x00001442:    d0ef        ..      BEQ      0x1424 ; strcmp + 96
        0x00001444:    1ad0        ..      SUBS     r0,r2,r3
        0x00001446:    bd70        p.      POP      {r4-r6,pc}
    $d
        0x00001448:    01010101    ....    DCD    16843009
    $t
    .text
    _sys_exit
        0x0000144c:    4901        .I      LDR      r1,[pc,#4] ; [0x1454] = 0x20026
        0x0000144e:    2018        .       MOVS     r0,#0x18
        0x00001450:    beab        ..      BKPT     #0xab
        0x00001452:    e7fe        ..      B        0x1452 ; _sys_exit + 6
    $d
        0x00001454:    00020026    &...    DCD    131110
    $t
    .text
    __I$use$semihosting
    __use_no_semihosting_swi
        0x00001458:    4770        pG      BX       lr
    .text
    __semihosting_library_function
        0x0000145a:    0000        ..      MOVS     r0,r0
    i.APP_Display
    APP_Display
        0x0000145c:    b510        ..      PUSH     {r4,lr}
        0x0000145e:    f7fff96f    ..o.    BL       __aeabi_ui2f ; 0x740
        0x00001462:    4908        .I      LDR      r1,[pc,#32] ; [0x1484] = 0x41200000
        0x00001464:    f7fff852    ..R.    BL       __aeabi_fdiv ; 0x50c
        0x00001468:    f7fff826    ..&.    BL       __aeabi_f2d ; 0x4b8
        0x0000146c:    4602        .F      MOV      r2,r0
        0x0000146e:    460b        .F      MOV      r3,r1
        0x00001470:    a105        ..      ADR      r1,{pc}+0x18 ; 0x1488
        0x00001472:    4807        .H      LDR      r0,[pc,#28] ; [0x1490] = 0x20000018
        0x00001474:    f7fefeb6    ....    BL       __2sprintf ; 0x1e4
        0x00001478:    2105        .!      MOVS     r1,#5
        0x0000147a:    4805        .H      LDR      r0,[pc,#20] ; [0x1490] = 0x20000018
        0x0000147c:    f000f80a    ....    BL       CMSDK_SendString ; 0x1494
        0x00001480:    bd10        ..      POP      {r4,pc}
    $d
        0x00001482:    0000        ..      DCW    0
        0x00001484:    41200000    .. A    DCD    1092616192
        0x00001488:    66312e25    %.1f    DCD    1714499109
        0x0000148c:    00000000    ....    DCD    0
        0x00001490:    20000018    ...     DCD    536870936
    $t
    i.CMSDK_SendString
    CMSDK_SendString
        0x00001494:    b530        0.      PUSH     {r4,r5,lr}
        0x00001496:    4604        .F      MOV      r4,r0
        0x00001498:    2300        .#      MOVS     r3,#0
        0x0000149a:    4d05        .M      LDR      r5,[pc,#20] ; [0x14b0] = 0x40005000
        0x0000149c:    e004        ..      B        0x14a8 ; CMSDK_SendString + 20
        0x0000149e:    4628        (F      MOV      r0,r5
        0x000014a0:    f000f815    ....    BL       CMSDK_uart_SendChar ; 0x14ce
        0x000014a4:    1c5b        [.      ADDS     r3,r3,#1
        0x000014a6:    b2db        ..      UXTB     r3,r3
        0x000014a8:    5ce1        .\      LDRB     r1,[r4,r3]
        0x000014aa:    2900        .)      CMP      r1,#0
        0x000014ac:    d1f7        ..      BNE      0x149e ; CMSDK_SendString + 10
        0x000014ae:    bd30        0.      POP      {r4,r5,pc}
    $d
        0x000014b0:    40005000    .P.@    DCD    1073762304
    $t
    i.CMSDK_gpio_SetOutEnable
    CMSDK_gpio_SetOutEnable
        0x000014b4:    2a01        .*      CMP      r2,#1
        0x000014b6:    d003        ..      BEQ      0x14c0 ; CMSDK_gpio_SetOutEnable + 12
        0x000014b8:    6902        .i      LDR      r2,[r0,#0x10]
        0x000014ba:    438a        .C      BICS     r2,r2,r1
        0x000014bc:    6102        .a      STR      r2,[r0,#0x10]
        0x000014be:    4770        pG      BX       lr
        0x000014c0:    6902        .i      LDR      r2,[r0,#0x10]
        0x000014c2:    430a        .C      ORRS     r2,r2,r1
        0x000014c4:    6102        .a      STR      r2,[r0,#0x10]
        0x000014c6:    4770        pG      BX       lr
    i.CMSDK_uart_ClearRxIRQ
    CMSDK_uart_ClearRxIRQ
        0x000014c8:    2102        .!      MOVS     r1,#2
        0x000014ca:    60c1        .`      STR      r1,[r0,#0xc]
        0x000014cc:    4770        pG      BX       lr
    i.CMSDK_uart_SendChar
    CMSDK_uart_SendChar
        0x000014ce:    6842        Bh      LDR      r2,[r0,#4]
        0x000014d0:    07d2        ..      LSLS     r2,r2,#31
        0x000014d2:    d1fc        ..      BNE      CMSDK_uart_SendChar ; 0x14ce
        0x000014d4:    6001        .`      STR      r1,[r0,#0]
        0x000014d6:    4770        pG      BX       lr
    i.CMSDK_uart_init
    CMSDK_uart_init
        0x000014d8:    b5f0        ..      PUSH     {r4-r7,lr}
        0x000014da:    ad05        ..      ADD      r5,sp,#0x14
        0x000014dc:    cde0        ..      LDM      r5,{r5-r7}
        0x000014de:    2400        .$      MOVS     r4,#0
        0x000014e0:    2a00        .*      CMP      r2,#0
        0x000014e2:    d000        ..      BEQ      0x14e6 ; CMSDK_uart_init + 14
        0x000014e4:    2401        .$      MOVS     r4,#1
        0x000014e6:    2b00        .+      CMP      r3,#0
        0x000014e8:    d001        ..      BEQ      0x14ee ; CMSDK_uart_init + 22
        0x000014ea:    2202        ."      MOVS     r2,#2
        0x000014ec:    4314        .C      ORRS     r4,r4,r2
        0x000014ee:    2d00        .-      CMP      r5,#0
        0x000014f0:    d001        ..      BEQ      0x14f6 ; CMSDK_uart_init + 30
        0x000014f2:    2204        ."      MOVS     r2,#4
        0x000014f4:    4314        .C      ORRS     r4,r4,r2
        0x000014f6:    2e00        ..      CMP      r6,#0
        0x000014f8:    d001        ..      BEQ      0x14fe ; CMSDK_uart_init + 38
        0x000014fa:    2208        ."      MOVS     r2,#8
        0x000014fc:    4314        .C      ORRS     r4,r4,r2
        0x000014fe:    2f00        ./      CMP      r7,#0
        0x00001500:    d001        ..      BEQ      0x1506 ; CMSDK_uart_init + 46
        0x00001502:    2210        ."      MOVS     r2,#0x10
        0x00001504:    4314        .C      ORRS     r4,r4,r2
        0x00001506:    9a08        ..      LDR      r2,[sp,#0x20]
        0x00001508:    2a00        .*      CMP      r2,#0
        0x0000150a:    d001        ..      BEQ      0x1510 ; CMSDK_uart_init + 56
        0x0000150c:    2220         "      MOVS     r2,#0x20
        0x0000150e:    4314        .C      ORRS     r4,r4,r2
        0x00001510:    2200        ."      MOVS     r2,#0
        0x00001512:    6082        .`      STR      r2,[r0,#8]
        0x00001514:    6101        .a      STR      r1,[r0,#0x10]
        0x00001516:    6084        .`      STR      r4,[r0,#8]
        0x00001518:    6840        @h      LDR      r0,[r0,#4]
        0x0000151a:    0700        ..      LSLS     r0,r0,#28
        0x0000151c:    0f80        ..      LSRS     r0,r0,#30
        0x0000151e:    d001        ..      BEQ      0x1524 ; CMSDK_uart_init + 76
        0x00001520:    2001        .       MOVS     r0,#1
        0x00001522:    bdf0        ..      POP      {r4-r7,pc}
        0x00001524:    2000        .       MOVS     r0,#0
        0x00001526:    bdf0        ..      POP      {r4-r7,pc}
    i.Damping_Control
    Damping_Control
        0x00001528:    b510        ..      PUSH     {r4,lr}
        0x0000152a:    2103        .!      MOVS     r1,#3
        0x0000152c:    0289        ..      LSLS     r1,r1,#10
        0x0000152e:    1840        @.      ADDS     r0,r0,r1
        0x00001530:    2101        .!      MOVS     r1,#1
        0x00001532:    f000fceb    ....    BL       MSI001_Write ; 0x1f0c
        0x00001536:    bd10        ..      POP      {r4,pc}
    i.Display_FM
    Display_FM
        0x00001538:    b5f8        ..      PUSH     {r3-r7,lr}
        0x0000153a:    4604        .F      MOV      r4,r0
        0x0000153c:    250a        .%      MOVS     r5,#0xa
        0x0000153e:    4e22        "N      LDR      r6,[pc,#136] ; [0x15c8] = 0x3e7
        0x00001540:    4629        )F      MOV      r1,r5
        0x00001542:    4620         F      MOV      r0,r4
        0x00001544:    f7feff08    ....    BL       __aeabi_uidiv ; 0x358
        0x00001548:    9100        ..      STR      r1,[sp,#0]
        0x0000154a:    4629        )F      MOV      r1,r5
        0x0000154c:    f7feff04    ....    BL       __aeabi_uidiv ; 0x358
        0x00001550:    460f        .F      MOV      r7,r1
        0x00001552:    2164        d!      MOVS     r1,#0x64
        0x00001554:    4620         F      MOV      r0,r4
        0x00001556:    f7fefeff    ....    BL       __aeabi_uidiv ; 0x358
        0x0000155a:    4605        .F      MOV      r5,r0
        0x0000155c:    42b4        .B      CMP      r4,r6
        0x0000155e:    d816        ..      BHI      0x158e ; Display_FM + 86
        0x00001560:    200a        .       MOVS     r0,#0xa
        0x00001562:    f002f965    ..e.    BL       delay_ms ; 0x3830
        0x00001566:    2101        .!      MOVS     r1,#1
        0x00001568:    9800        ..      LDR      r0,[sp,#0]
        0x0000156a:    f002fb01    ....    BL       nixie_display_num ; 0x3b70
        0x0000156e:    4638        8F      MOV      r0,r7
        0x00001570:    2102        .!      MOVS     r1,#2
        0x00001572:    f002fafd    ....    BL       nixie_display_num ; 0x3b70
        0x00001576:    4628        (F      MOV      r0,r5
        0x00001578:    2103        .!      MOVS     r1,#3
        0x0000157a:    f002faf9    ....    BL       nixie_display_num ; 0x3b70
        0x0000157e:    2104        .!      MOVS     r1,#4
        0x00001580:    200f        .       MOVS     r0,#0xf
        0x00001582:    f002faf5    ....    BL       nixie_display_num ; 0x3b70
        0x00001586:    2002        .       MOVS     r0,#2
        0x00001588:    f002fad4    ....    BL       nixie_display_dos ; 0x3b34
        0x0000158c:    bdf8        ..      POP      {r3-r7,pc}
        0x0000158e:    2101        .!      MOVS     r1,#1
        0x00001590:    9800        ..      LDR      r0,[sp,#0]
        0x00001592:    f002faed    ....    BL       nixie_display_num ; 0x3b70
        0x00001596:    4638        8F      MOV      r0,r7
        0x00001598:    2102        .!      MOVS     r1,#2
        0x0000159a:    f002fae9    ....    BL       nixie_display_num ; 0x3b70
        0x0000159e:    4628        (F      MOV      r0,r5
        0x000015a0:    210a        .!      MOVS     r1,#0xa
        0x000015a2:    f7fefed9    ....    BL       __aeabi_uidiv ; 0x358
        0x000015a6:    4608        .F      MOV      r0,r1
        0x000015a8:    2103        .!      MOVS     r1,#3
        0x000015aa:    f002fae1    ....    BL       nixie_display_num ; 0x3b70
        0x000015ae:    217d        }!      MOVS     r1,#0x7d
        0x000015b0:    00c9        ..      LSLS     r1,r1,#3
        0x000015b2:    4620         F      MOV      r0,r4
        0x000015b4:    f7fefed0    ....    BL       __aeabi_uidiv ; 0x358
        0x000015b8:    2104        .!      MOVS     r1,#4
        0x000015ba:    f002fad9    ....    BL       nixie_display_num ; 0x3b70
        0x000015be:    2002        .       MOVS     r0,#2
        0x000015c0:    f002fab8    ....    BL       nixie_display_dos ; 0x3b34
        0x000015c4:    bdf8        ..      POP      {r3-r7,pc}
    $d
        0x000015c6:    0000        ..      DCW    0
        0x000015c8:    000003e7    ....    DCD    999
    $t
    i.Draw_Circle
    Draw_Circle
        0x000015cc:    b5ff        ..      PUSH     {r0-r7,lr}
        0x000015ce:    b088        ..      SUB      sp,sp,#0x20
        0x000015d0:    4606        .F      MOV      r6,r0
        0x000015d2:    460f        .F      MOV      r7,r1
        0x000015d4:    2500        .%      MOVS     r5,#0
        0x000015d6:    9c0a        ..      LDR      r4,[sp,#0x28]
        0x000015d8:    e04a        J.      B        0x1670 ; Draw_Circle + 164
        0x000015da:    1b78        x.      SUBS     r0,r7,r5
        0x000015dc:    b281        ..      UXTH     r1,r0
        0x000015de:    9007        ..      STR      r0,[sp,#0x1c]
        0x000015e0:    1b30        0.      SUBS     r0,r6,r4
        0x000015e2:    9006        ..      STR      r0,[sp,#0x18]
        0x000015e4:    b280        ..      UXTH     r0,r0
        0x000015e6:    9a0b        ..      LDR      r2,[sp,#0x2c]
        0x000015e8:    f000f96b    ..k.    BL       LCD_DrawPoint ; 0x18c2
        0x000015ec:    9807        ..      LDR      r0,[sp,#0x1c]
        0x000015ee:    9a0b        ..      LDR      r2,[sp,#0x2c]
        0x000015f0:    b281        ..      UXTH     r1,r0
        0x000015f2:    1930        0.      ADDS     r0,r6,r4
        0x000015f4:    9005        ..      STR      r0,[sp,#0x14]
        0x000015f6:    b280        ..      UXTH     r0,r0
        0x000015f8:    f000f963    ..c.    BL       LCD_DrawPoint ; 0x18c2
        0x000015fc:    1938        8.      ADDS     r0,r7,r4
        0x000015fe:    b281        ..      UXTH     r1,r0
        0x00001600:    9004        ..      STR      r0,[sp,#0x10]
        0x00001602:    1b70        p.      SUBS     r0,r6,r5
        0x00001604:    9003        ..      STR      r0,[sp,#0xc]
        0x00001606:    b280        ..      UXTH     r0,r0
        0x00001608:    9a0b        ..      LDR      r2,[sp,#0x2c]
        0x0000160a:    f000f95a    ..Z.    BL       LCD_DrawPoint ; 0x18c2
        0x0000160e:    1b38        8.      SUBS     r0,r7,r4
        0x00001610:    b281        ..      UXTH     r1,r0
        0x00001612:    9002        ..      STR      r0,[sp,#8]
        0x00001614:    9803        ..      LDR      r0,[sp,#0xc]
        0x00001616:    9a0b        ..      LDR      r2,[sp,#0x2c]
        0x00001618:    b280        ..      UXTH     r0,r0
        0x0000161a:    f000f952    ..R.    BL       LCD_DrawPoint ; 0x18c2
        0x0000161e:    1978        x.      ADDS     r0,r7,r5
        0x00001620:    b281        ..      UXTH     r1,r0
        0x00001622:    9001        ..      STR      r0,[sp,#4]
        0x00001624:    9805        ..      LDR      r0,[sp,#0x14]
        0x00001626:    9a0b        ..      LDR      r2,[sp,#0x2c]
        0x00001628:    b280        ..      UXTH     r0,r0
        0x0000162a:    f000f94a    ..J.    BL       LCD_DrawPoint ; 0x18c2
        0x0000162e:    9802        ..      LDR      r0,[sp,#8]
        0x00001630:    9a0b        ..      LDR      r2,[sp,#0x2c]
        0x00001632:    b281        ..      UXTH     r1,r0
        0x00001634:    1970        p.      ADDS     r0,r6,r5
        0x00001636:    9000        ..      STR      r0,[sp,#0]
        0x00001638:    b280        ..      UXTH     r0,r0
        0x0000163a:    f000f942    ..B.    BL       LCD_DrawPoint ; 0x18c2
        0x0000163e:    9804        ..      LDR      r0,[sp,#0x10]
        0x00001640:    9a0b        ..      LDR      r2,[sp,#0x2c]
        0x00001642:    b281        ..      UXTH     r1,r0
        0x00001644:    9800        ..      LDR      r0,[sp,#0]
        0x00001646:    b280        ..      UXTH     r0,r0
        0x00001648:    f000f93b    ..;.    BL       LCD_DrawPoint ; 0x18c2
        0x0000164c:    9801        ..      LDR      r0,[sp,#4]
        0x0000164e:    9a0b        ..      LDR      r2,[sp,#0x2c]
        0x00001650:    b281        ..      UXTH     r1,r0
        0x00001652:    9806        ..      LDR      r0,[sp,#0x18]
        0x00001654:    b280        ..      UXTH     r0,r0
        0x00001656:    f000f934    ..4.    BL       LCD_DrawPoint ; 0x18c2
        0x0000165a:    1c6d        m.      ADDS     r5,r5,#1
        0x0000165c:    4628        (F      MOV      r0,r5
        0x0000165e:    4621        !F      MOV      r1,r4
        0x00001660:    4368        hC      MULS     r0,r5,r0
        0x00001662:    4361        aC      MULS     r1,r4,r1
        0x00001664:    1841        A.      ADDS     r1,r0,r1
        0x00001666:    980a        ..      LDR      r0,[sp,#0x28]
        0x00001668:    4340        @C      MULS     r0,r0,r0
        0x0000166a:    4281        .B      CMP      r1,r0
        0x0000166c:    dd00        ..      BLE      0x1670 ; Draw_Circle + 164
        0x0000166e:    1e64        d.      SUBS     r4,r4,#1
        0x00001670:    42a5        .B      CMP      r5,r4
        0x00001672:    ddb2        ..      BLE      0x15da ; Draw_Circle + 14
        0x00001674:    b00c        ..      ADD      sp,sp,#0x30
        0x00001676:    bdf0        ..      POP      {r4-r7,pc}
    i.FM_Select
    FM_Select
        0x00001678:    b570        p.      PUSH     {r4-r6,lr}
        0x0000167a:    f7fff861    ..a.    BL       __aeabi_ui2f ; 0x740
        0x0000167e:    490f        .I      LDR      r1,[pc,#60] ; [0x16bc] = 0x41200000
        0x00001680:    f7feff44    ..D.    BL       __aeabi_fdiv ; 0x50c
        0x00001684:    2105        .!      MOVS     r1,#5
        0x00001686:    f7fff85f    .._.    BL       __ARM_scalbnf ; 0x748
        0x0000168a:    490d        .I      LDR      r1,[pc,#52] ; [0x16c0] = 0x42c00000
        0x0000168c:    f7feff3e    ..>.    BL       __aeabi_fdiv ; 0x50c
        0x00001690:    4604        .F      MOV      r4,r0
        0x00001692:    4620         F      MOV      r0,r4
        0x00001694:    f7feffea    ....    BL       __aeabi_f2iz ; 0x66c
        0x00001698:    4605        .F      MOV      r5,r0
        0x0000169a:    4628        (F      MOV      r0,r5
        0x0000169c:    f7fff848    ..H.    BL       __aeabi_i2f ; 0x730
        0x000016a0:    4621        !F      MOV      r1,r4
        0x000016a2:    f002fb57    ..W.    BL       __aeabi_frsub ; 0x3d54
        0x000016a6:    4907        .I      LDR      r1,[pc,#28] ; [0x16c4] = 0x453b8000
        0x000016a8:    f002fafc    ....    BL       __aeabi_fmul ; 0x3ca4
        0x000016ac:    f7fff804    ....    BL       __aeabi_f2uiz ; 0x6b8
        0x000016b0:    0329        ).      LSLS     r1,r5,#12
        0x000016b2:    1840        @.      ADDS     r0,r0,r1
        0x000016b4:    2102        .!      MOVS     r1,#2
        0x000016b6:    f000fc29    ..).    BL       MSI001_Write ; 0x1f0c
        0x000016ba:    bd70        p.      POP      {r4-r6,pc}
    $d
        0x000016bc:    41200000    .. A    DCD    1092616192
        0x000016c0:    42c00000    ...B    DCD    1119879168
        0x000016c4:    453b8000    ..;E    DCD    1161527296
    $t
    i.GPIO_ResetBits
    GPIO_ResetBits
        0x000016c8:    6842        Bh      LDR      r2,[r0,#4]
        0x000016ca:    438a        .C      BICS     r2,r2,r1
        0x000016cc:    6042        B`      STR      r2,[r0,#4]
        0x000016ce:    4770        pG      BX       lr
    i.GPIO_SetBits
    GPIO_SetBits
        0x000016d0:    6842        Bh      LDR      r2,[r0,#4]
        0x000016d2:    430a        .C      ORRS     r2,r2,r1
        0x000016d4:    6042        B`      STR      r2,[r0,#4]
        0x000016d6:    4770        pG      BX       lr
    i.GetKEYNUM
    GetKEYNUM
        0x000016d8:    b510        ..      PUSH     {r4,lr}
        0x000016da:    4803        .H      LDR      r0,[pc,#12] ; [0x16e8] = 0x40011000
        0x000016dc:    f000f806    ....    BL       Get_Key_Value ; 0x16ec
        0x000016e0:    f000f813    ....    BL       KeyValue_Tranformation ; 0x170a
        0x000016e4:    bd10        ..      POP      {r4,pc}
    $d
        0x000016e6:    0000        ..      DCW    0
        0x000016e8:    40011000    ...@    DCD    1073811456
    $t
    i.Get_Key_Value
    Get_Key_Value
        0x000016ec:    b510        ..      PUSH     {r4,lr}
        0x000016ee:    6842        Bh      LDR      r2,[r0,#4]
        0x000016f0:    b294        ..      UXTH     r4,r2
        0x000016f2:    2c00        .,      CMP      r4,#0
        0x000016f4:    d0fb        ..      BEQ      0x16ee ; Get_Key_Value + 2
        0x000016f6:    e001        ..      B        0x16fc ; Get_Key_Value + 16
        0x000016f8:    6841        Ah      LDR      r1,[r0,#4]
        0x000016fa:    b289        ..      UXTH     r1,r1
        0x000016fc:    2900        .)      CMP      r1,#0
        0x000016fe:    d1fb        ..      BNE      0x16f8 ; Get_Key_Value + 12
        0x00001700:    2014        .       MOVS     r0,#0x14
        0x00001702:    f002f895    ....    BL       delay_ms ; 0x3830
        0x00001706:    4620         F      MOV      r0,r4
        0x00001708:    bd10        ..      POP      {r4,pc}
    i.KeyValue_Tranformation
    KeyValue_Tranformation
        0x0000170a:    2802        .(      CMP      r0,#2
        0x0000170c:    d01f        ..      BEQ      0x174e ; KeyValue_Tranformation + 68
        0x0000170e:    2803        .(      CMP      r0,#3
        0x00001710:    d01f        ..      BEQ      0x1752 ; KeyValue_Tranformation + 72
        0x00001712:    2804        .(      CMP      r0,#4
        0x00001714:    d01f        ..      BEQ      0x1756 ; KeyValue_Tranformation + 76
        0x00001716:    2806        .(      CMP      r0,#6
        0x00001718:    d01f        ..      BEQ      0x175a ; KeyValue_Tranformation + 80
        0x0000171a:    2807        .(      CMP      r0,#7
        0x0000171c:    d01f        ..      BEQ      0x175e ; KeyValue_Tranformation + 84
        0x0000171e:    2808        .(      CMP      r0,#8
        0x00001720:    d01f        ..      BEQ      0x1762 ; KeyValue_Tranformation + 88
        0x00001722:    280a        .(      CMP      r0,#0xa
        0x00001724:    d01f        ..      BEQ      0x1766 ; KeyValue_Tranformation + 92
        0x00001726:    280b        .(      CMP      r0,#0xb
        0x00001728:    d01f        ..      BEQ      0x176a ; KeyValue_Tranformation + 96
        0x0000172a:    280c        .(      CMP      r0,#0xc
        0x0000172c:    d01f        ..      BEQ      0x176e ; KeyValue_Tranformation + 100
        0x0000172e:    280f        .(      CMP      r0,#0xf
        0x00001730:    d01f        ..      BEQ      0x1772 ; KeyValue_Tranformation + 104
        0x00001732:    280d        .(      CMP      r0,#0xd
        0x00001734:    d01f        ..      BEQ      0x1776 ; KeyValue_Tranformation + 108
        0x00001736:    2810        .(      CMP      r0,#0x10
        0x00001738:    d01f        ..      BEQ      0x177a ; KeyValue_Tranformation + 112
        0x0000173a:    280e        .(      CMP      r0,#0xe
        0x0000173c:    d01f        ..      BEQ      0x177e ; KeyValue_Tranformation + 116
        0x0000173e:    2809        .(      CMP      r0,#9
        0x00001740:    d01f        ..      BEQ      0x1782 ; KeyValue_Tranformation + 120
        0x00001742:    2805        .(      CMP      r0,#5
        0x00001744:    d01f        ..      BEQ      0x1786 ; KeyValue_Tranformation + 124
        0x00001746:    2801        .(      CMP      r0,#1
        0x00001748:    d100        ..      BNE      0x174c ; KeyValue_Tranformation + 66
        0x0000174a:    2050        P       MOVS     r0,#0x50
        0x0000174c:    4770        pG      BX       lr
        0x0000174e:    2009        .       MOVS     r0,#9
        0x00001750:    4770        pG      BX       lr
        0x00001752:    2008        .       MOVS     r0,#8
        0x00001754:    4770        pG      BX       lr
        0x00001756:    2007        .       MOVS     r0,#7
        0x00001758:    4770        pG      BX       lr
        0x0000175a:    2006        .       MOVS     r0,#6
        0x0000175c:    4770        pG      BX       lr
        0x0000175e:    2005        .       MOVS     r0,#5
        0x00001760:    4770        pG      BX       lr
        0x00001762:    2004        .       MOVS     r0,#4
        0x00001764:    4770        pG      BX       lr
        0x00001766:    2003        .       MOVS     r0,#3
        0x00001768:    4770        pG      BX       lr
        0x0000176a:    2002        .       MOVS     r0,#2
        0x0000176c:    4770        pG      BX       lr
        0x0000176e:    2001        .       MOVS     r0,#1
        0x00001770:    4770        pG      BX       lr
        0x00001772:    2000        .       MOVS     r0,#0
        0x00001774:    4770        pG      BX       lr
        0x00001776:    200a        .       MOVS     r0,#0xa
        0x00001778:    4770        pG      BX       lr
        0x0000177a:    2028        (       MOVS     r0,#0x28
        0x0000177c:    4770        pG      BX       lr
        0x0000177e:    2032        2       MOVS     r0,#0x32
        0x00001780:    4770        pG      BX       lr
        0x00001782:    203c        <       MOVS     r0,#0x3c
        0x00001784:    4770        pG      BX       lr
        0x00001786:    2046        F       MOVS     r0,#0x46
        0x00001788:    4770        pG      BX       lr
    i.LCD_Address_Set
    LCD_Address_Set
        0x0000178a:    b5f0        ..      PUSH     {r4-r7,lr}
        0x0000178c:    4604        .F      MOV      r4,r0
        0x0000178e:    460d        .F      MOV      r5,r1
        0x00001790:    4616        .F      MOV      r6,r2
        0x00001792:    461f        .F      MOV      r7,r3
        0x00001794:    202a        *       MOVS     r0,#0x2a
        0x00001796:    f000fb6f    ..o.    BL       LCD_WR_REG ; 0x1e78
        0x0000179a:    0a20         .      LSRS     r0,r4,#8
        0x0000179c:    f000fb78    ..x.    BL       LCD_WR_data ; 0x1e90
        0x000017a0:    b2e0        ..      UXTB     r0,r4
        0x000017a2:    f000fb75    ..u.    BL       LCD_WR_data ; 0x1e90
        0x000017a6:    0a30        0.      LSRS     r0,r6,#8
        0x000017a8:    f000fb72    ..r.    BL       LCD_WR_data ; 0x1e90
        0x000017ac:    b2f0        ..      UXTB     r0,r6
        0x000017ae:    f000fb6f    ..o.    BL       LCD_WR_data ; 0x1e90
        0x000017b2:    202b        +       MOVS     r0,#0x2b
        0x000017b4:    f000fb60    ..`.    BL       LCD_WR_REG ; 0x1e78
        0x000017b8:    0a28        (.      LSRS     r0,r5,#8
        0x000017ba:    f000fb69    ..i.    BL       LCD_WR_data ; 0x1e90
        0x000017be:    b2e8        ..      UXTB     r0,r5
        0x000017c0:    f000fb66    ..f.    BL       LCD_WR_data ; 0x1e90
        0x000017c4:    0a38        8.      LSRS     r0,r7,#8
        0x000017c6:    f000fb63    ..c.    BL       LCD_WR_data ; 0x1e90
        0x000017ca:    b2f8        ..      UXTB     r0,r7
        0x000017cc:    f000fb60    ..`.    BL       LCD_WR_data ; 0x1e90
        0x000017d0:    202c        ,       MOVS     r0,#0x2c
        0x000017d2:    f000fb51    ..Q.    BL       LCD_WR_REG ; 0x1e78
        0x000017d6:    bdf0        ..      POP      {r4-r7,pc}
    i.LCD_Clear
    LCD_Clear
        0x000017d8:    b5f0        ..      PUSH     {r4-r7,lr}
        0x000017da:    4607        .F      MOV      r7,r0
        0x000017dc:    4e0e        .N      LDR      r6,[pc,#56] ; [0x1818] = 0x2000002c
        0x000017de:    2100        .!      MOVS     r1,#0
        0x000017e0:    8870        p.      LDRH     r0,[r6,#2]
        0x000017e2:    1e40        @.      SUBS     r0,r0,#1
        0x000017e4:    b283        ..      UXTH     r3,r0
        0x000017e6:    8830        0.      LDRH     r0,[r6,#0]
        0x000017e8:    1e40        @.      SUBS     r0,r0,#1
        0x000017ea:    b282        ..      UXTH     r2,r0
        0x000017ec:    4608        .F      MOV      r0,r1
        0x000017ee:    f7ffffcc    ....    BL       LCD_Address_Set ; 0x178a
        0x000017f2:    2500        .%      MOVS     r5,#0
        0x000017f4:    e00b        ..      B        0x180e ; LCD_Clear + 54
        0x000017f6:    2400        .$      MOVS     r4,#0
        0x000017f8:    e004        ..      B        0x1804 ; LCD_Clear + 44
        0x000017fa:    4638        8F      MOV      r0,r7
        0x000017fc:    f000fb30    ..0.    BL       LCD_WR_DATA ; 0x1e60
        0x00001800:    1c64        d.      ADDS     r4,r4,#1
        0x00001802:    b2a4        ..      UXTH     r4,r4
        0x00001804:    8870        p.      LDRH     r0,[r6,#2]
        0x00001806:    42a0        .B      CMP      r0,r4
        0x00001808:    d8f7        ..      BHI      0x17fa ; LCD_Clear + 34
        0x0000180a:    1c6d        m.      ADDS     r5,r5,#1
        0x0000180c:    b2ad        ..      UXTH     r5,r5
        0x0000180e:    8830        0.      LDRH     r0,[r6,#0]
        0x00001810:    42a8        .B      CMP      r0,r5
        0x00001812:    d8f0        ..      BHI      0x17f6 ; LCD_Clear + 30
        0x00001814:    bdf0        ..      POP      {r4-r7,pc}
    $d
        0x00001816:    0000        ..      DCW    0
        0x00001818:    2000002c    ,..     DCD    536870956
    $t
    i.LCD_DrawLine
    LCD_DrawLine
        0x0000181c:    b5f0        ..      PUSH     {r4-r7,lr}
        0x0000181e:    b087        ..      SUB      sp,sp,#0x1c
        0x00001820:    2500        .%      MOVS     r5,#0
        0x00001822:    2600        .&      MOVS     r6,#0
        0x00001824:    1a17        ..      SUBS     r7,r2,r0
        0x00001826:    1a5a        Z.      SUBS     r2,r3,r1
        0x00001828:    9204        ..      STR      r2,[sp,#0x10]
        0x0000182a:    9001        ..      STR      r0,[sp,#4]
        0x0000182c:    9100        ..      STR      r1,[sp,#0]
        0x0000182e:    1e68        h.      SUBS     r0,r5,#1
        0x00001830:    2f00        ./      CMP      r7,#0
        0x00001832:    dd02        ..      BLE      0x183a ; LCD_DrawLine + 30
        0x00001834:    2101        .!      MOVS     r1,#1
        0x00001836:    9103        ..      STR      r1,[sp,#0xc]
        0x00001838:    e003        ..      B        0x1842 ; LCD_DrawLine + 38
        0x0000183a:    2f00        ./      CMP      r7,#0
        0x0000183c:    d007        ..      BEQ      0x184e ; LCD_DrawLine + 50
        0x0000183e:    9003        ..      STR      r0,[sp,#0xc]
        0x00001840:    427f        .B      RSBS     r7,r7,#0
        0x00001842:    9904        ..      LDR      r1,[sp,#0x10]
        0x00001844:    2900        .)      CMP      r1,#0
        0x00001846:    dd05        ..      BLE      0x1854 ; LCD_DrawLine + 56
        0x00001848:    2001        .       MOVS     r0,#1
        0x0000184a:    9002        ..      STR      r0,[sp,#8]
        0x0000184c:    e009        ..      B        0x1862 ; LCD_DrawLine + 70
        0x0000184e:    2100        .!      MOVS     r1,#0
        0x00001850:    9103        ..      STR      r1,[sp,#0xc]
        0x00001852:    e7f6        ..      B        0x1842 ; LCD_DrawLine + 38
        0x00001854:    9904        ..      LDR      r1,[sp,#0x10]
        0x00001856:    2900        .)      CMP      r1,#0
        0x00001858:    d008        ..      BEQ      0x186c ; LCD_DrawLine + 80
        0x0000185a:    9002        ..      STR      r0,[sp,#8]
        0x0000185c:    9804        ..      LDR      r0,[sp,#0x10]
        0x0000185e:    4240        @B      RSBS     r0,r0,#0
        0x00001860:    9004        ..      STR      r0,[sp,#0x10]
        0x00001862:    9804        ..      LDR      r0,[sp,#0x10]
        0x00001864:    4287        .B      CMP      r7,r0
        0x00001866:    dd04        ..      BLE      0x1872 ; LCD_DrawLine + 86
        0x00001868:    463c        <F      MOV      r4,r7
        0x0000186a:    e003        ..      B        0x1874 ; LCD_DrawLine + 88
        0x0000186c:    2000        .       MOVS     r0,#0
        0x0000186e:    9002        ..      STR      r0,[sp,#8]
        0x00001870:    e7f7        ..      B        0x1862 ; LCD_DrawLine + 70
        0x00001872:    9c04        ..      LDR      r4,[sp,#0x10]
        0x00001874:    2000        .       MOVS     r0,#0
        0x00001876:    9005        ..      STR      r0,[sp,#0x14]
        0x00001878:    1c60        `.      ADDS     r0,r4,#1
        0x0000187a:    9006        ..      STR      r0,[sp,#0x18]
        0x0000187c:    e01b        ..      B        0x18b6 ; LCD_DrawLine + 154
        0x0000187e:    9800        ..      LDR      r0,[sp,#0]
        0x00001880:    9a0c        ..      LDR      r2,[sp,#0x30]
        0x00001882:    b281        ..      UXTH     r1,r0
        0x00001884:    9801        ..      LDR      r0,[sp,#4]
        0x00001886:    b280        ..      UXTH     r0,r0
        0x00001888:    f000f81b    ....    BL       LCD_DrawPoint ; 0x18c2
        0x0000188c:    19ed        ..      ADDS     r5,r5,r7
        0x0000188e:    9804        ..      LDR      r0,[sp,#0x10]
        0x00001890:    1836        6.      ADDS     r6,r6,r0
        0x00001892:    42a5        .B      CMP      r5,r4
        0x00001894:    dd04        ..      BLE      0x18a0 ; LCD_DrawLine + 132
        0x00001896:    1b2d        -.      SUBS     r5,r5,r4
        0x00001898:    9903        ..      LDR      r1,[sp,#0xc]
        0x0000189a:    9801        ..      LDR      r0,[sp,#4]
        0x0000189c:    1840        @.      ADDS     r0,r0,r1
        0x0000189e:    9001        ..      STR      r0,[sp,#4]
        0x000018a0:    42a6        .B      CMP      r6,r4
        0x000018a2:    dd04        ..      BLE      0x18ae ; LCD_DrawLine + 146
        0x000018a4:    1b36        6.      SUBS     r6,r6,r4
        0x000018a6:    9902        ..      LDR      r1,[sp,#8]
        0x000018a8:    9800        ..      LDR      r0,[sp,#0]
        0x000018aa:    1840        @.      ADDS     r0,r0,r1
        0x000018ac:    9000        ..      STR      r0,[sp,#0]
        0x000018ae:    9805        ..      LDR      r0,[sp,#0x14]
        0x000018b0:    1c40        @.      ADDS     r0,r0,#1
        0x000018b2:    b280        ..      UXTH     r0,r0
        0x000018b4:    9005        ..      STR      r0,[sp,#0x14]
        0x000018b6:    9906        ..      LDR      r1,[sp,#0x18]
        0x000018b8:    9805        ..      LDR      r0,[sp,#0x14]
        0x000018ba:    4288        .B      CMP      r0,r1
        0x000018bc:    dbdf        ..      BLT      0x187e ; LCD_DrawLine + 98
        0x000018be:    b007        ..      ADD      sp,sp,#0x1c
        0x000018c0:    bdf0        ..      POP      {r4-r7,pc}
    i.LCD_DrawPoint
    LCD_DrawPoint
        0x000018c2:    b510        ..      PUSH     {r4,lr}
        0x000018c4:    4614        .F      MOV      r4,r2
        0x000018c6:    460b        .F      MOV      r3,r1
        0x000018c8:    4602        .F      MOV      r2,r0
        0x000018ca:    f7ffff5e    ..^.    BL       LCD_Address_Set ; 0x178a
        0x000018ce:    4620         F      MOV      r0,r4
        0x000018d0:    f000fac6    ....    BL       LCD_WR_DATA ; 0x1e60
        0x000018d4:    bd10        ..      POP      {r4,pc}
    i.LCD_DrawRectangle
    LCD_DrawRectangle
        0x000018d6:    b5ff        ..      PUSH     {r0-r7,lr}
        0x000018d8:    b081        ..      SUB      sp,sp,#4
        0x000018da:    9c0a        ..      LDR      r4,[sp,#0x28]
        0x000018dc:    4606        .F      MOV      r6,r0
        0x000018de:    460f        .F      MOV      r7,r1
        0x000018e0:    4615        .F      MOV      r5,r2
        0x000018e2:    463b        ;F      MOV      r3,r7
        0x000018e4:    462a        *F      MOV      r2,r5
        0x000018e6:    4639        9F      MOV      r1,r7
        0x000018e8:    4630        0F      MOV      r0,r6
        0x000018ea:    9400        ..      STR      r4,[sp,#0]
        0x000018ec:    f7ffff96    ....    BL       LCD_DrawLine ; 0x181c
        0x000018f0:    9400        ..      STR      r4,[sp,#0]
        0x000018f2:    4632        2F      MOV      r2,r6
        0x000018f4:    4639        9F      MOV      r1,r7
        0x000018f6:    4630        0F      MOV      r0,r6
        0x000018f8:    9b04        ..      LDR      r3,[sp,#0x10]
        0x000018fa:    f7ffff8f    ....    BL       LCD_DrawLine ; 0x181c
        0x000018fe:    9b04        ..      LDR      r3,[sp,#0x10]
        0x00001900:    9400        ..      STR      r4,[sp,#0]
        0x00001902:    462a        *F      MOV      r2,r5
        0x00001904:    4619        .F      MOV      r1,r3
        0x00001906:    4630        0F      MOV      r0,r6
        0x00001908:    f7ffff88    ....    BL       LCD_DrawLine ; 0x181c
        0x0000190c:    9400        ..      STR      r4,[sp,#0]
        0x0000190e:    462a        *F      MOV      r2,r5
        0x00001910:    4639        9F      MOV      r1,r7
        0x00001912:    4628        (F      MOV      r0,r5
        0x00001914:    9b04        ..      LDR      r3,[sp,#0x10]
        0x00001916:    f7ffff81    ....    BL       LCD_DrawLine ; 0x181c
        0x0000191a:    b005        ..      ADD      sp,sp,#0x14
        0x0000191c:    bdf0        ..      POP      {r4-r7,pc}
    i.LCD_Fill
    LCD_Fill
        0x0000191e:    b5ff        ..      PUSH     {r0-r7,lr}
        0x00001920:    460d        .F      MOV      r5,r1
        0x00001922:    4616        .F      MOV      r6,r2
        0x00001924:    461f        .F      MOV      r7,r3
        0x00001926:    1e78        x.      SUBS     r0,r7,#1
        0x00001928:    b283        ..      UXTH     r3,r0
        0x0000192a:    1e70        p.      SUBS     r0,r6,#1
        0x0000192c:    b282        ..      UXTH     r2,r0
        0x0000192e:    4629        )F      MOV      r1,r5
        0x00001930:    9800        ..      LDR      r0,[sp,#0]
        0x00001932:    f7ffff2a    ..*.    BL       LCD_Address_Set ; 0x178a
        0x00001936:    e00a        ..      B        0x194e ; LCD_Fill + 48
        0x00001938:    9c00        ..      LDR      r4,[sp,#0]
        0x0000193a:    e004        ..      B        0x1946 ; LCD_Fill + 40
        0x0000193c:    9809        ..      LDR      r0,[sp,#0x24]
        0x0000193e:    f000fa8f    ....    BL       LCD_WR_DATA ; 0x1e60
        0x00001942:    1c64        d.      ADDS     r4,r4,#1
        0x00001944:    b2a4        ..      UXTH     r4,r4
        0x00001946:    42b4        .B      CMP      r4,r6
        0x00001948:    d3f8        ..      BCC      0x193c ; LCD_Fill + 30
        0x0000194a:    1c6d        m.      ADDS     r5,r5,#1
        0x0000194c:    b2ad        ..      UXTH     r5,r5
        0x0000194e:    42bd        .B      CMP      r5,r7
        0x00001950:    d3f2        ..      BCC      0x1938 ; LCD_Fill + 26
        0x00001952:    bdff        ..      POP      {r0-r7,pc}
    i.LCD_Init
    LCD_Init
        0x00001954:    b570        p.      PUSH     {r4-r6,lr}
        0x00001956:    4c9c        .L      LDR      r4,[pc,#624] ; [0x1bc8] = 0x4000c000
        0x00001958:    20ff        .       MOVS     r0,#0xff
        0x0000195a:    61a0        .a      STR      r0,[r4,#0x18]
        0x0000195c:    2000        .       MOVS     r0,#0
        0x0000195e:    6120         a      STR      r0,[r4,#0x10]
        0x00001960:    20c8        .       MOVS     r0,#0xc8
        0x00001962:    f001ff65    ..e.    BL       delay_ms ; 0x3830
        0x00001966:    2501        .%      MOVS     r5,#1
        0x00001968:    6125        %a      STR      r5,[r4,#0x10]
        0x0000196a:    2032        2       MOVS     r0,#0x32
        0x0000196c:    f001ff60    ..`.    BL       delay_ms ; 0x3830
        0x00001970:    2060        `       MOVS     r0,#0x60
        0x00001972:    f000fdbf    ....    BL       Set_Dir ; 0x24f4
        0x00001976:    20d3        .       MOVS     r0,#0xd3
        0x00001978:    f000fa7e    ..~.    BL       LCD_WR_REG ; 0x1e78
        0x0000197c:    f000f928    ..(.    BL       LCD_RD_DATA ; 0x1bd0
        0x00001980:    4b92        .K      LDR      r3,[pc,#584] ; [0x1bcc] = 0x2000002c
        0x00001982:    8098        ..      STRH     r0,[r3,#4]
        0x00001984:    f000f924    ..$.    BL       LCD_RD_DATA ; 0x1bd0
        0x00001988:    8098        ..      STRH     r0,[r3,#4]
        0x0000198a:    f000f921    ..!.    BL       LCD_RD_DATA ; 0x1bd0
        0x0000198e:    0200        ..      LSLS     r0,r0,#8
        0x00001990:    8098        ..      STRH     r0,[r3,#4]
        0x00001992:    f000f91d    ....    BL       LCD_RD_DATA ; 0x1bd0
        0x00001996:    8899        ..      LDRH     r1,[r3,#4]
        0x00001998:    4308        .C      ORRS     r0,r0,r1
        0x0000199a:    8098        ..      STRH     r0,[r3,#4]
        0x0000199c:    20cf        .       MOVS     r0,#0xcf
        0x0000199e:    f000fa6b    ..k.    BL       LCD_WR_REG ; 0x1e78
        0x000019a2:    2000        .       MOVS     r0,#0
        0x000019a4:    f000fa74    ..t.    BL       LCD_WR_data ; 0x1e90
        0x000019a8:    20c1        .       MOVS     r0,#0xc1
        0x000019aa:    f000fa71    ..q.    BL       LCD_WR_data ; 0x1e90
        0x000019ae:    2030        0       MOVS     r0,#0x30
        0x000019b0:    f000fa6e    ..n.    BL       LCD_WR_data ; 0x1e90
        0x000019b4:    20ed        .       MOVS     r0,#0xed
        0x000019b6:    f000fa5f    .._.    BL       LCD_WR_REG ; 0x1e78
        0x000019ba:    2064        d       MOVS     r0,#0x64
        0x000019bc:    f000fa68    ..h.    BL       LCD_WR_data ; 0x1e90
        0x000019c0:    2003        .       MOVS     r0,#3
        0x000019c2:    f000fa65    ..e.    BL       LCD_WR_data ; 0x1e90
        0x000019c6:    2012        .       MOVS     r0,#0x12
        0x000019c8:    f000fa62    ..b.    BL       LCD_WR_data ; 0x1e90
        0x000019cc:    2081        .       MOVS     r0,#0x81
        0x000019ce:    f000fa5f    .._.    BL       LCD_WR_data ; 0x1e90
        0x000019d2:    20e8        .       MOVS     r0,#0xe8
        0x000019d4:    f000fa50    ..P.    BL       LCD_WR_REG ; 0x1e78
        0x000019d8:    2085        .       MOVS     r0,#0x85
        0x000019da:    f000fa59    ..Y.    BL       LCD_WR_data ; 0x1e90
        0x000019de:    2010        .       MOVS     r0,#0x10
        0x000019e0:    f000fa56    ..V.    BL       LCD_WR_data ; 0x1e90
        0x000019e4:    207a        z       MOVS     r0,#0x7a
        0x000019e6:    f000fa53    ..S.    BL       LCD_WR_data ; 0x1e90
        0x000019ea:    20cb        .       MOVS     r0,#0xcb
        0x000019ec:    f000fa44    ..D.    BL       LCD_WR_REG ; 0x1e78
        0x000019f0:    2039        9       MOVS     r0,#0x39
        0x000019f2:    f000fa4d    ..M.    BL       LCD_WR_data ; 0x1e90
        0x000019f6:    202c        ,       MOVS     r0,#0x2c
        0x000019f8:    f000fa4a    ..J.    BL       LCD_WR_data ; 0x1e90
        0x000019fc:    2000        .       MOVS     r0,#0
        0x000019fe:    f000fa47    ..G.    BL       LCD_WR_data ; 0x1e90
        0x00001a02:    2034        4       MOVS     r0,#0x34
        0x00001a04:    f000fa44    ..D.    BL       LCD_WR_data ; 0x1e90
        0x00001a08:    2002        .       MOVS     r0,#2
        0x00001a0a:    f000fa41    ..A.    BL       LCD_WR_data ; 0x1e90
        0x00001a0e:    20f7        .       MOVS     r0,#0xf7
        0x00001a10:    f000fa32    ..2.    BL       LCD_WR_REG ; 0x1e78
        0x00001a14:    2020                MOVS     r0,#0x20
        0x00001a16:    f000fa3b    ..;.    BL       LCD_WR_data ; 0x1e90
        0x00001a1a:    20ea        .       MOVS     r0,#0xea
        0x00001a1c:    f000fa2c    ..,.    BL       LCD_WR_REG ; 0x1e78
        0x00001a20:    2000        .       MOVS     r0,#0
        0x00001a22:    f000fa35    ..5.    BL       LCD_WR_data ; 0x1e90
        0x00001a26:    2000        .       MOVS     r0,#0
        0x00001a28:    f000fa32    ..2.    BL       LCD_WR_data ; 0x1e90
        0x00001a2c:    20c0        .       MOVS     r0,#0xc0
        0x00001a2e:    f000fa23    ..#.    BL       LCD_WR_REG ; 0x1e78
        0x00001a32:    201b        .       MOVS     r0,#0x1b
        0x00001a34:    f000fa2c    ..,.    BL       LCD_WR_data ; 0x1e90
        0x00001a38:    20c1        .       MOVS     r0,#0xc1
        0x00001a3a:    f000fa1d    ....    BL       LCD_WR_REG ; 0x1e78
        0x00001a3e:    2001        .       MOVS     r0,#1
        0x00001a40:    f000fa26    ..&.    BL       LCD_WR_data ; 0x1e90
        0x00001a44:    20c5        .       MOVS     r0,#0xc5
        0x00001a46:    f000fa17    ....    BL       LCD_WR_REG ; 0x1e78
        0x00001a4a:    2030        0       MOVS     r0,#0x30
        0x00001a4c:    f000fa20    .. .    BL       LCD_WR_data ; 0x1e90
        0x00001a50:    2030        0       MOVS     r0,#0x30
        0x00001a52:    f000fa1d    ....    BL       LCD_WR_data ; 0x1e90
        0x00001a56:    20c7        .       MOVS     r0,#0xc7
        0x00001a58:    f000fa0e    ....    BL       LCD_WR_REG ; 0x1e78
        0x00001a5c:    20b7        .       MOVS     r0,#0xb7
        0x00001a5e:    f000fa17    ....    BL       LCD_WR_data ; 0x1e90
        0x00001a62:    2036        6       MOVS     r0,#0x36
        0x00001a64:    f000fa08    ....    BL       LCD_WR_REG ; 0x1e78
        0x00001a68:    2068        h       MOVS     r0,#0x68
        0x00001a6a:    f000fa11    ....    BL       LCD_WR_data ; 0x1e90
        0x00001a6e:    203a        :       MOVS     r0,#0x3a
        0x00001a70:    f000fa02    ....    BL       LCD_WR_REG ; 0x1e78
        0x00001a74:    2055        U       MOVS     r0,#0x55
        0x00001a76:    f000fa0b    ....    BL       LCD_WR_data ; 0x1e90
        0x00001a7a:    20b1        .       MOVS     r0,#0xb1
        0x00001a7c:    f000f9fc    ....    BL       LCD_WR_REG ; 0x1e78
        0x00001a80:    2000        .       MOVS     r0,#0
        0x00001a82:    f000fa05    ....    BL       LCD_WR_data ; 0x1e90
        0x00001a86:    201a        .       MOVS     r0,#0x1a
        0x00001a88:    f000fa02    ....    BL       LCD_WR_data ; 0x1e90
        0x00001a8c:    20b6        .       MOVS     r0,#0xb6
        0x00001a8e:    f000f9f3    ....    BL       LCD_WR_REG ; 0x1e78
        0x00001a92:    200a        .       MOVS     r0,#0xa
        0x00001a94:    f000f9fc    ....    BL       LCD_WR_data ; 0x1e90
        0x00001a98:    20a2        .       MOVS     r0,#0xa2
        0x00001a9a:    f000f9f9    ....    BL       LCD_WR_data ; 0x1e90
        0x00001a9e:    20f2        .       MOVS     r0,#0xf2
        0x00001aa0:    f000f9ea    ....    BL       LCD_WR_REG ; 0x1e78
        0x00001aa4:    2000        .       MOVS     r0,#0
        0x00001aa6:    f000f9f3    ....    BL       LCD_WR_data ; 0x1e90
        0x00001aaa:    2026        &       MOVS     r0,#0x26
        0x00001aac:    f000f9e4    ....    BL       LCD_WR_REG ; 0x1e78
        0x00001ab0:    2001        .       MOVS     r0,#1
        0x00001ab2:    f000f9ed    ....    BL       LCD_WR_data ; 0x1e90
        0x00001ab6:    20e0        .       MOVS     r0,#0xe0
        0x00001ab8:    f000f9de    ....    BL       LCD_WR_REG ; 0x1e78
        0x00001abc:    200f        .       MOVS     r0,#0xf
        0x00001abe:    f000f9e7    ....    BL       LCD_WR_data ; 0x1e90
        0x00001ac2:    202a        *       MOVS     r0,#0x2a
        0x00001ac4:    f000f9e4    ....    BL       LCD_WR_data ; 0x1e90
        0x00001ac8:    2028        (       MOVS     r0,#0x28
        0x00001aca:    f000f9e1    ....    BL       LCD_WR_data ; 0x1e90
        0x00001ace:    2008        .       MOVS     r0,#8
        0x00001ad0:    f000f9de    ....    BL       LCD_WR_data ; 0x1e90
        0x00001ad4:    200e        .       MOVS     r0,#0xe
        0x00001ad6:    f000f9db    ....    BL       LCD_WR_data ; 0x1e90
        0x00001ada:    2008        .       MOVS     r0,#8
        0x00001adc:    f000f9d8    ....    BL       LCD_WR_data ; 0x1e90
        0x00001ae0:    2054        T       MOVS     r0,#0x54
        0x00001ae2:    f000f9d5    ....    BL       LCD_WR_data ; 0x1e90
        0x00001ae6:    20a9        .       MOVS     r0,#0xa9
        0x00001ae8:    f000f9d2    ....    BL       LCD_WR_data ; 0x1e90
        0x00001aec:    2043        C       MOVS     r0,#0x43
        0x00001aee:    f000f9cf    ....    BL       LCD_WR_data ; 0x1e90
        0x00001af2:    200a        .       MOVS     r0,#0xa
        0x00001af4:    f000f9cc    ....    BL       LCD_WR_data ; 0x1e90
        0x00001af8:    200f        .       MOVS     r0,#0xf
        0x00001afa:    f000f9c9    ....    BL       LCD_WR_data ; 0x1e90
        0x00001afe:    2000        .       MOVS     r0,#0
        0x00001b00:    f000f9c6    ....    BL       LCD_WR_data ; 0x1e90
        0x00001b04:    2000        .       MOVS     r0,#0
        0x00001b06:    f000f9c3    ....    BL       LCD_WR_data ; 0x1e90
        0x00001b0a:    2000        .       MOVS     r0,#0
        0x00001b0c:    f000f9c0    ....    BL       LCD_WR_data ; 0x1e90
        0x00001b10:    2000        .       MOVS     r0,#0
        0x00001b12:    f000f9bd    ....    BL       LCD_WR_data ; 0x1e90
        0x00001b16:    20e1        .       MOVS     r0,#0xe1
        0x00001b18:    f000f9ae    ....    BL       LCD_WR_REG ; 0x1e78
        0x00001b1c:    2000        .       MOVS     r0,#0
        0x00001b1e:    f000f9b7    ....    BL       LCD_WR_data ; 0x1e90
        0x00001b22:    2015        .       MOVS     r0,#0x15
        0x00001b24:    f000f9b4    ....    BL       LCD_WR_data ; 0x1e90
        0x00001b28:    2017        .       MOVS     r0,#0x17
        0x00001b2a:    f000f9b1    ....    BL       LCD_WR_data ; 0x1e90
        0x00001b2e:    2007        .       MOVS     r0,#7
        0x00001b30:    f000f9ae    ....    BL       LCD_WR_data ; 0x1e90
        0x00001b34:    2011        .       MOVS     r0,#0x11
        0x00001b36:    f000f9ab    ....    BL       LCD_WR_data ; 0x1e90
        0x00001b3a:    2006        .       MOVS     r0,#6
        0x00001b3c:    f000f9a8    ....    BL       LCD_WR_data ; 0x1e90
        0x00001b40:    202b        +       MOVS     r0,#0x2b
        0x00001b42:    f000f9a5    ....    BL       LCD_WR_data ; 0x1e90
        0x00001b46:    2056        V       MOVS     r0,#0x56
        0x00001b48:    f000f9a2    ....    BL       LCD_WR_data ; 0x1e90
        0x00001b4c:    203c        <       MOVS     r0,#0x3c
        0x00001b4e:    f000f99f    ....    BL       LCD_WR_data ; 0x1e90
        0x00001b52:    2005        .       MOVS     r0,#5
        0x00001b54:    f000f99c    ....    BL       LCD_WR_data ; 0x1e90
        0x00001b58:    2010        .       MOVS     r0,#0x10
        0x00001b5a:    f000f999    ....    BL       LCD_WR_data ; 0x1e90
        0x00001b5e:    200f        .       MOVS     r0,#0xf
        0x00001b60:    f000f996    ....    BL       LCD_WR_data ; 0x1e90
        0x00001b64:    203f        ?       MOVS     r0,#0x3f
        0x00001b66:    f000f993    ....    BL       LCD_WR_data ; 0x1e90
        0x00001b6a:    203f        ?       MOVS     r0,#0x3f
        0x00001b6c:    f000f990    ....    BL       LCD_WR_data ; 0x1e90
        0x00001b70:    200f        .       MOVS     r0,#0xf
        0x00001b72:    f000f98d    ....    BL       LCD_WR_data ; 0x1e90
        0x00001b76:    202b        +       MOVS     r0,#0x2b
        0x00001b78:    f000f97e    ..~.    BL       LCD_WR_REG ; 0x1e78
        0x00001b7c:    2000        .       MOVS     r0,#0
        0x00001b7e:    f000f987    ....    BL       LCD_WR_data ; 0x1e90
        0x00001b82:    2000        .       MOVS     r0,#0
        0x00001b84:    f000f984    ....    BL       LCD_WR_data ; 0x1e90
        0x00001b88:    2001        .       MOVS     r0,#1
        0x00001b8a:    f000f981    ....    BL       LCD_WR_data ; 0x1e90
        0x00001b8e:    203f        ?       MOVS     r0,#0x3f
        0x00001b90:    f000f97e    ..~.    BL       LCD_WR_data ; 0x1e90
        0x00001b94:    202a        *       MOVS     r0,#0x2a
        0x00001b96:    f000f96f    ..o.    BL       LCD_WR_REG ; 0x1e78
        0x00001b9a:    2000        .       MOVS     r0,#0
        0x00001b9c:    f000f978    ..x.    BL       LCD_WR_data ; 0x1e90
        0x00001ba0:    2000        .       MOVS     r0,#0
        0x00001ba2:    f000f975    ..u.    BL       LCD_WR_data ; 0x1e90
        0x00001ba6:    2000        .       MOVS     r0,#0
        0x00001ba8:    f000f972    ..r.    BL       LCD_WR_data ; 0x1e90
        0x00001bac:    20ef        .       MOVS     r0,#0xef
        0x00001bae:    f000f96f    ..o.    BL       LCD_WR_data ; 0x1e90
        0x00001bb2:    2011        .       MOVS     r0,#0x11
        0x00001bb4:    f000f960    ..`.    BL       LCD_WR_REG ; 0x1e78
        0x00001bb8:    2078        x       MOVS     r0,#0x78
        0x00001bba:    f001fe39    ..9.    BL       delay_ms ; 0x3830
        0x00001bbe:    2029        )       MOVS     r0,#0x29
        0x00001bc0:    f000f95a    ..Z.    BL       LCD_WR_REG ; 0x1e78
        0x00001bc4:    6165        ea      STR      r5,[r4,#0x14]
        0x00001bc6:    bd70        p.      POP      {r4-r6,pc}
    $d
        0x00001bc8:    4000c000    ...@    DCD    1073790976
        0x00001bcc:    2000002c    ,..     DCD    536870956
    $t
    i.LCD_RD_DATA
    LCD_RD_DATA
        0x00001bd0:    4905        .I      LDR      r1,[pc,#20] ; [0x1be8] = 0x4000c000
        0x00001bd2:    2201        ."      MOVS     r2,#1
        0x00001bd4:    604a        J`      STR      r2,[r1,#4]
        0x00001bd6:    2000        .       MOVS     r0,#0
        0x00001bd8:    6008        .`      STR      r0,[r1,#0]
        0x00001bda:    60c8        .`      STR      r0,[r1,#0xc]
        0x00001bdc:    6988        .i      LDR      r0,[r1,#0x18]
        0x00001bde:    b280        ..      UXTH     r0,r0
        0x00001be0:    60ca        .`      STR      r2,[r1,#0xc]
        0x00001be2:    600a        .`      STR      r2,[r1,#0]
        0x00001be4:    4770        pG      BX       lr
    $d
        0x00001be6:    0000        ..      DCW    0
        0x00001be8:    4000c000    ...@    DCD    1073790976
    $t
    i.LCD_ShowChar
    LCD_ShowChar
        0x00001bec:    b5ff        ..      PUSH     {r0-r7,lr}
        0x00001bee:    b085        ..      SUB      sp,sp,#0x14
        0x00001bf0:    4607        .F      MOV      r7,r0
        0x00001bf2:    2000        .       MOVS     r0,#0
        0x00001bf4:    9003        ..      STR      r0,[sp,#0xc]
        0x00001bf6:    9701        ..      STR      r7,[sp,#4]
        0x00001bf8:    980f        ..      LDR      r0,[sp,#0x3c]
        0x00001bfa:    0840        @.      LSRS     r0,r0,#1
        0x00001bfc:    9004        ..      STR      r0,[sp,#0x10]
        0x00001bfe:    9804        ..      LDR      r0,[sp,#0x10]
        0x00001c00:    08c1        ..      LSRS     r1,r0,#3
        0x00001c02:    0740        @.      LSLS     r0,r0,#29
        0x00001c04:    d001        ..      BEQ      0x1c0a ; LCD_ShowChar + 30
        0x00001c06:    2001        .       MOVS     r0,#1
        0x00001c08:    e000        ..      B        0x1c0c ; LCD_ShowChar + 32
        0x00001c0a:    2000        .       MOVS     r0,#0
        0x00001c0c:    1808        ..      ADDS     r0,r1,r0
        0x00001c0e:    990f        ..      LDR      r1,[sp,#0x3c]
        0x00001c10:    4348        HC      MULS     r0,r1,r0
        0x00001c12:    9002        ..      STR      r0,[sp,#8]
        0x00001c14:    3a20         :      SUBS     r2,r2,#0x20
        0x00001c16:    b2d0        ..      UXTB     r0,r2
        0x00001c18:    9007        ..      STR      r0,[sp,#0x1c]
        0x00001c1a:    990f        ..      LDR      r1,[sp,#0x3c]
        0x00001c1c:    9806        ..      LDR      r0,[sp,#0x18]
        0x00001c1e:    1840        @.      ADDS     r0,r0,r1
        0x00001c20:    1e40        @.      SUBS     r0,r0,#1
        0x00001c22:    b283        ..      UXTH     r3,r0
        0x00001c24:    9804        ..      LDR      r0,[sp,#0x10]
        0x00001c26:    9906        ..      LDR      r1,[sp,#0x18]
        0x00001c28:    1838        8.      ADDS     r0,r7,r0
        0x00001c2a:    1e40        @.      SUBS     r0,r0,#1
        0x00001c2c:    b282        ..      UXTH     r2,r0
        0x00001c2e:    4638        8F      MOV      r0,r7
        0x00001c30:    f7fffdab    ....    BL       LCD_Address_Set ; 0x178a
        0x00001c34:    2500        .%      MOVS     r5,#0
        0x00001c36:    e059        Y.      B        0x1cec ; LCD_ShowChar + 256
        0x00001c38:    980f        ..      LDR      r0,[sp,#0x3c]
        0x00001c3a:    280c        .(      CMP      r0,#0xc
        0x00001c3c:    d027        '.      BEQ      0x1c8e ; LCD_ShowChar + 162
        0x00001c3e:    980f        ..      LDR      r0,[sp,#0x3c]
        0x00001c40:    2810        .(      CMP      r0,#0x10
        0x00001c42:    d02b        +.      BEQ      0x1c9c ; LCD_ShowChar + 176
        0x00001c44:    980f        ..      LDR      r0,[sp,#0x3c]
        0x00001c46:    2818        .(      CMP      r0,#0x18
        0x00001c48:    d02e        ..      BEQ      0x1ca8 ; LCD_ShowChar + 188
        0x00001c4a:    980f        ..      LDR      r0,[sp,#0x3c]
        0x00001c4c:    2820         (      CMP      r0,#0x20
        0x00001c4e:    d150        P.      BNE      0x1cf2 ; LCD_ShowChar + 262
        0x00001c50:    9807        ..      LDR      r0,[sp,#0x1c]
        0x00001c52:    492a        *I      LDR      r1,[pc,#168] ; [0x1cfc] = 0x6298
        0x00001c54:    0180        ..      LSLS     r0,r0,#6
        0x00001c56:    1840        @.      ADDS     r0,r0,r1
        0x00001c58:    5d46        F]      LDRB     r6,[r0,r5]
        0x00001c5a:    2400        .$      MOVS     r4,#0
        0x00001c5c:    9810        ..      LDR      r0,[sp,#0x40]
        0x00001c5e:    2800        .(      CMP      r0,#0
        0x00001c60:    d029        ).      BEQ      0x1cb6 ; LCD_ShowChar + 202
        0x00001c62:    2001        .       MOVS     r0,#1
        0x00001c64:    40a0        .@      LSLS     r0,r0,r4
        0x00001c66:    4230        0B      TST      r0,r6
        0x00001c68:    d004        ..      BEQ      0x1c74 ; LCD_ShowChar + 136
        0x00001c6a:    4638        8F      MOV      r0,r7
        0x00001c6c:    9a08        ..      LDR      r2,[sp,#0x20]
        0x00001c6e:    9906        ..      LDR      r1,[sp,#0x18]
        0x00001c70:    f7fffe27    ..'.    BL       LCD_DrawPoint ; 0x18c2
        0x00001c74:    1c7f        ..      ADDS     r7,r7,#1
        0x00001c76:    b2bf        ..      UXTH     r7,r7
        0x00001c78:    9801        ..      LDR      r0,[sp,#4]
        0x00001c7a:    1a39        9.      SUBS     r1,r7,r0
        0x00001c7c:    9804        ..      LDR      r0,[sp,#0x10]
        0x00001c7e:    4281        .B      CMP      r1,r0
        0x00001c80:    d12e        ..      BNE      0x1ce0 ; LCD_ShowChar + 244
        0x00001c82:    9f01        ..      LDR      r7,[sp,#4]
        0x00001c84:    9806        ..      LDR      r0,[sp,#0x18]
        0x00001c86:    1c40        @.      ADDS     r0,r0,#1
        0x00001c88:    b280        ..      UXTH     r0,r0
        0x00001c8a:    9006        ..      STR      r0,[sp,#0x18]
        0x00001c8c:    e02c        ,.      B        0x1ce8 ; LCD_ShowChar + 252
        0x00001c8e:    9807        ..      LDR      r0,[sp,#0x1c]
        0x00001c90:    210c        .!      MOVS     r1,#0xc
        0x00001c92:    4348        HC      MULS     r0,r1,r0
        0x00001c94:    491a        .I      LDR      r1,[pc,#104] ; [0x1d00] = 0x4664
        0x00001c96:    1840        @.      ADDS     r0,r0,r1
        0x00001c98:    5d46        F]      LDRB     r6,[r0,r5]
        0x00001c9a:    e7de        ..      B        0x1c5a ; LCD_ShowChar + 110
        0x00001c9c:    9807        ..      LDR      r0,[sp,#0x1c]
        0x00001c9e:    4919        .I      LDR      r1,[pc,#100] ; [0x1d04] = 0x4ad8
        0x00001ca0:    0100        ..      LSLS     r0,r0,#4
        0x00001ca2:    1840        @.      ADDS     r0,r0,r1
        0x00001ca4:    5d46        F]      LDRB     r6,[r0,r5]
        0x00001ca6:    e7d8        ..      B        0x1c5a ; LCD_ShowChar + 110
        0x00001ca8:    9807        ..      LDR      r0,[sp,#0x1c]
        0x00001caa:    2130        0!      MOVS     r1,#0x30
        0x00001cac:    4348        HC      MULS     r0,r1,r0
        0x00001cae:    4916        .I      LDR      r1,[pc,#88] ; [0x1d08] = 0x50c8
        0x00001cb0:    1840        @.      ADDS     r0,r0,r1
        0x00001cb2:    5d46        F]      LDRB     r6,[r0,r5]
        0x00001cb4:    e7d1        ..      B        0x1c5a ; LCD_ShowChar + 110
        0x00001cb6:    2001        .       MOVS     r0,#1
        0x00001cb8:    40a0        .@      LSLS     r0,r0,r4
        0x00001cba:    4230        0B      TST      r0,r6
        0x00001cbc:    d003        ..      BEQ      0x1cc6 ; LCD_ShowChar + 218
        0x00001cbe:    9808        ..      LDR      r0,[sp,#0x20]
        0x00001cc0:    f000f8ce    ....    BL       LCD_WR_DATA ; 0x1e60
        0x00001cc4:    e002        ..      B        0x1ccc ; LCD_ShowChar + 224
        0x00001cc6:    980e        ..      LDR      r0,[sp,#0x38]
        0x00001cc8:    f000f8ca    ....    BL       LCD_WR_DATA ; 0x1e60
        0x00001ccc:    9803        ..      LDR      r0,[sp,#0xc]
        0x00001cce:    1c40        @.      ADDS     r0,r0,#1
        0x00001cd0:    b2c0        ..      UXTB     r0,r0
        0x00001cd2:    9003        ..      STR      r0,[sp,#0xc]
        0x00001cd4:    9904        ..      LDR      r1,[sp,#0x10]
        0x00001cd6:    9803        ..      LDR      r0,[sp,#0xc]
        0x00001cd8:    f7fefb3e    ..>.    BL       __aeabi_uidiv ; 0x358
        0x00001cdc:    2900        .)      CMP      r1,#0
        0x00001cde:    d00a        ..      BEQ      0x1cf6 ; LCD_ShowChar + 266
        0x00001ce0:    1c64        d.      ADDS     r4,r4,#1
        0x00001ce2:    b2e4        ..      UXTB     r4,r4
        0x00001ce4:    2c08        .,      CMP      r4,#8
        0x00001ce6:    d3b9        ..      BCC      0x1c5c ; LCD_ShowChar + 112
        0x00001ce8:    1c6d        m.      ADDS     r5,r5,#1
        0x00001cea:    b2ad        ..      UXTH     r5,r5
        0x00001cec:    9802        ..      LDR      r0,[sp,#8]
        0x00001cee:    4285        .B      CMP      r5,r0
        0x00001cf0:    d3a2        ..      BCC      0x1c38 ; LCD_ShowChar + 76
        0x00001cf2:    b009        ..      ADD      sp,sp,#0x24
        0x00001cf4:    bdf0        ..      POP      {r4-r7,pc}
        0x00001cf6:    2000        .       MOVS     r0,#0
        0x00001cf8:    9003        ..      STR      r0,[sp,#0xc]
        0x00001cfa:    e7f5        ..      B        0x1ce8 ; LCD_ShowChar + 252
    $d
        0x00001cfc:    00006298    .b..    DCD    25240
        0x00001d00:    00004664    dF..    DCD    18020
        0x00001d04:    00004ad8    .J..    DCD    19160
        0x00001d08:    000050c8    .P..    DCD    20680
    $t
    i.LCD_ShowFloatNum1
    LCD_ShowFloatNum1
        0x00001d0c:    b5ff        ..      PUSH     {r0-r7,lr}
        0x00001d0e:    b085        ..      SUB      sp,sp,#0x14
        0x00001d10:    9e10        ..      LDR      r6,[sp,#0x40]
        0x00001d12:    4610        .F      MOV      r0,r2
        0x00001d14:    461d        .F      MOV      r5,r3
        0x00001d16:    0877        w.      LSRS     r7,r6,#1
        0x00001d18:    4921        !I      LDR      r1,[pc,#132] ; [0x1da0] = 0x41200000
        0x00001d1a:    f001ffc3    ....    BL       __aeabi_fmul ; 0x3ca4
        0x00001d1e:    f7fefccb    ....    BL       __aeabi_f2uiz ; 0x6b8
        0x00001d22:    b280        ..      UXTH     r0,r0
        0x00001d24:    9003        ..      STR      r0,[sp,#0xc]
        0x00001d26:    2400        .$      MOVS     r4,#0
        0x00001d28:    e035        5.      B        0x1d96 ; LCD_ShowFloatNum1 + 138
        0x00001d2a:    1b28        (.      SUBS     r0,r5,r4
        0x00001d2c:    1e40        @.      SUBS     r0,r0,#1
        0x00001d2e:    b2c1        ..      UXTB     r1,r0
        0x00001d30:    200a        .       MOVS     r0,#0xa
        0x00001d32:    f001fef5    ....    BL       mypow ; 0x3b20
        0x00001d36:    4601        .F      MOV      r1,r0
        0x00001d38:    9803        ..      LDR      r0,[sp,#0xc]
        0x00001d3a:    f7fefb0d    ....    BL       __aeabi_uidiv ; 0x358
        0x00001d3e:    210a        .!      MOVS     r1,#0xa
        0x00001d40:    f7fefb0a    ....    BL       __aeabi_uidiv ; 0x358
        0x00001d44:    9104        ..      STR      r1,[sp,#0x10]
        0x00001d46:    1e68        h.      SUBS     r0,r5,#1
        0x00001d48:    4284        .B      CMP      r4,r0
        0x00001d4a:    d111        ..      BNE      0x1d70 ; LCD_ShowFloatNum1 + 100
        0x00001d4c:    2100        .!      MOVS     r1,#0
        0x00001d4e:    9a0f        ..      LDR      r2,[sp,#0x3c]
        0x00001d50:    9200        ..      STR      r2,[sp,#0]
        0x00001d52:    9102        ..      STR      r1,[sp,#8]
        0x00001d54:    9905        ..      LDR      r1,[sp,#0x14]
        0x00001d56:    4378        xC      MULS     r0,r7,r0
        0x00001d58:    1840        @.      ADDS     r0,r0,r1
        0x00001d5a:    9601        ..      STR      r6,[sp,#4]
        0x00001d5c:    b280        ..      UXTH     r0,r0
        0x00001d5e:    222e        ."      MOVS     r2,#0x2e
        0x00001d60:    9b0e        ..      LDR      r3,[sp,#0x38]
        0x00001d62:    9906        ..      LDR      r1,[sp,#0x18]
        0x00001d64:    f7ffff42    ..B.    BL       LCD_ShowChar ; 0x1bec
        0x00001d68:    1c64        d.      ADDS     r4,r4,#1
        0x00001d6a:    b2e4        ..      UXTB     r4,r4
        0x00001d6c:    1c6d        m.      ADDS     r5,r5,#1
        0x00001d6e:    b2ed        ..      UXTB     r5,r5
        0x00001d70:    2000        .       MOVS     r0,#0
        0x00001d72:    9002        ..      STR      r0,[sp,#8]
        0x00001d74:    9804        ..      LDR      r0,[sp,#0x10]
        0x00001d76:    990f        ..      LDR      r1,[sp,#0x3c]
        0x00001d78:    3030        00      ADDS     r0,r0,#0x30
        0x00001d7a:    9100        ..      STR      r1,[sp,#0]
        0x00001d7c:    b2c2        ..      UXTB     r2,r0
        0x00001d7e:    4620         F      MOV      r0,r4
        0x00001d80:    9905        ..      LDR      r1,[sp,#0x14]
        0x00001d82:    4378        xC      MULS     r0,r7,r0
        0x00001d84:    1840        @.      ADDS     r0,r0,r1
        0x00001d86:    9601        ..      STR      r6,[sp,#4]
        0x00001d88:    b280        ..      UXTH     r0,r0
        0x00001d8a:    9b0e        ..      LDR      r3,[sp,#0x38]
        0x00001d8c:    9906        ..      LDR      r1,[sp,#0x18]
        0x00001d8e:    f7ffff2d    ..-.    BL       LCD_ShowChar ; 0x1bec
        0x00001d92:    1c64        d.      ADDS     r4,r4,#1
        0x00001d94:    b2e4        ..      UXTB     r4,r4
        0x00001d96:    42ac        .B      CMP      r4,r5
        0x00001d98:    d3c7        ..      BCC      0x1d2a ; LCD_ShowFloatNum1 + 30
        0x00001d9a:    b009        ..      ADD      sp,sp,#0x24
        0x00001d9c:    bdf0        ..      POP      {r4-r7,pc}
    $d
        0x00001d9e:    0000        ..      DCW    0
        0x00001da0:    41200000    .. A    DCD    1092616192
    $t
    i.LCD_ShowIntNum
    LCD_ShowIntNum
        0x00001da4:    b5ff        ..      PUSH     {r0-r7,lr}
        0x00001da6:    b085        ..      SUB      sp,sp,#0x14
        0x00001da8:    9e10        ..      LDR      r6,[sp,#0x40]
        0x00001daa:    461d        .F      MOV      r5,r3
        0x00001dac:    2700        .'      MOVS     r7,#0
        0x00001dae:    0870        p.      LSRS     r0,r6,#1
        0x00001db0:    9004        ..      STR      r0,[sp,#0x10]
        0x00001db2:    2400        .$      MOVS     r4,#0
        0x00001db4:    e026        &.      B        0x1e04 ; LCD_ShowIntNum + 96
        0x00001db6:    1b28        (.      SUBS     r0,r5,r4
        0x00001db8:    1e40        @.      SUBS     r0,r0,#1
        0x00001dba:    b2c1        ..      UXTB     r1,r0
        0x00001dbc:    200a        .       MOVS     r0,#0xa
        0x00001dbe:    f001feaf    ....    BL       mypow ; 0x3b20
        0x00001dc2:    4601        .F      MOV      r1,r0
        0x00001dc4:    9807        ..      LDR      r0,[sp,#0x1c]
        0x00001dc6:    f7fefac7    ....    BL       __aeabi_uidiv ; 0x358
        0x00001dca:    210a        .!      MOVS     r1,#0xa
        0x00001dcc:    f7fefac4    ....    BL       __aeabi_uidiv ; 0x358
        0x00001dd0:    2f00        ./      CMP      r7,#0
        0x00001dd2:    d105        ..      BNE      0x1de0 ; LCD_ShowIntNum + 60
        0x00001dd4:    1e68        h.      SUBS     r0,r5,#1
        0x00001dd6:    4284        .B      CMP      r4,r0
        0x00001dd8:    da02        ..      BGE      0x1de0 ; LCD_ShowIntNum + 60
        0x00001dda:    2900        .)      CMP      r1,#0
        0x00001ddc:    d016        ..      BEQ      0x1e0c ; LCD_ShowIntNum + 104
        0x00001dde:    2701        .'      MOVS     r7,#1
        0x00001de0:    2000        .       MOVS     r0,#0
        0x00001de2:    9a0f        ..      LDR      r2,[sp,#0x3c]
        0x00001de4:    3130        01      ADDS     r1,r1,#0x30
        0x00001de6:    9200        ..      STR      r2,[sp,#0]
        0x00001de8:    9002        ..      STR      r0,[sp,#8]
        0x00001dea:    b2ca        ..      UXTB     r2,r1
        0x00001dec:    9804        ..      LDR      r0,[sp,#0x10]
        0x00001dee:    9905        ..      LDR      r1,[sp,#0x14]
        0x00001df0:    4360        `C      MULS     r0,r4,r0
        0x00001df2:    1840        @.      ADDS     r0,r0,r1
        0x00001df4:    9601        ..      STR      r6,[sp,#4]
        0x00001df6:    b280        ..      UXTH     r0,r0
        0x00001df8:    9b0e        ..      LDR      r3,[sp,#0x38]
        0x00001dfa:    9906        ..      LDR      r1,[sp,#0x18]
        0x00001dfc:    f7fffef6    ....    BL       LCD_ShowChar ; 0x1bec
        0x00001e00:    1c64        d.      ADDS     r4,r4,#1
        0x00001e02:    b2e4        ..      UXTB     r4,r4
        0x00001e04:    42ac        .B      CMP      r4,r5
        0x00001e06:    d3d6        ..      BCC      0x1db6 ; LCD_ShowIntNum + 18
        0x00001e08:    b009        ..      ADD      sp,sp,#0x24
        0x00001e0a:    bdf0        ..      POP      {r4-r7,pc}
        0x00001e0c:    2000        .       MOVS     r0,#0
        0x00001e0e:    990f        ..      LDR      r1,[sp,#0x3c]
        0x00001e10:    9002        ..      STR      r0,[sp,#8]
        0x00001e12:    9100        ..      STR      r1,[sp,#0]
        0x00001e14:    9804        ..      LDR      r0,[sp,#0x10]
        0x00001e16:    9905        ..      LDR      r1,[sp,#0x14]
        0x00001e18:    4360        `C      MULS     r0,r4,r0
        0x00001e1a:    1840        @.      ADDS     r0,r0,r1
        0x00001e1c:    9601        ..      STR      r6,[sp,#4]
        0x00001e1e:    b280        ..      UXTH     r0,r0
        0x00001e20:    2220         "      MOVS     r2,#0x20
        0x00001e22:    9b0e        ..      LDR      r3,[sp,#0x38]
        0x00001e24:    9906        ..      LDR      r1,[sp,#0x18]
        0x00001e26:    f7fffee1    ....    BL       LCD_ShowChar ; 0x1bec
        0x00001e2a:    e7e9        ..      B        0x1e00 ; LCD_ShowIntNum + 92
    i.LCD_ShowString
    LCD_ShowString
        0x00001e2c:    b5ff        ..      PUSH     {r0-r7,lr}
        0x00001e2e:    b083        ..      SUB      sp,sp,#0xc
        0x00001e30:    9e0d        ..      LDR      r6,[sp,#0x34]
        0x00001e32:    4605        .F      MOV      r5,r0
        0x00001e34:    4614        .F      MOV      r4,r2
        0x00001e36:    0877        w.      LSRS     r7,r6,#1
        0x00001e38:    e00c        ..      B        0x1e54 ; LCD_ShowString + 40
        0x00001e3a:    990c        ..      LDR      r1,[sp,#0x30]
        0x00001e3c:    980e        ..      LDR      r0,[sp,#0x38]
        0x00001e3e:    9601        ..      STR      r6,[sp,#4]
        0x00001e40:    9100        ..      STR      r1,[sp,#0]
        0x00001e42:    9002        ..      STR      r0,[sp,#8]
        0x00001e44:    4628        (F      MOV      r0,r5
        0x00001e46:    9b06        ..      LDR      r3,[sp,#0x18]
        0x00001e48:    9904        ..      LDR      r1,[sp,#0x10]
        0x00001e4a:    f7fffecf    ....    BL       LCD_ShowChar ; 0x1bec
        0x00001e4e:    1978        x.      ADDS     r0,r7,r5
        0x00001e50:    b285        ..      UXTH     r5,r0
        0x00001e52:    1c64        d.      ADDS     r4,r4,#1
        0x00001e54:    7822        "x      LDRB     r2,[r4,#0]
        0x00001e56:    2a00        .*      CMP      r2,#0
        0x00001e58:    d1ef        ..      BNE      0x1e3a ; LCD_ShowString + 14
        0x00001e5a:    b007        ..      ADD      sp,sp,#0x1c
        0x00001e5c:    bdf0        ..      POP      {r4-r7,pc}
        0x00001e5e:    0000        ..      MOVS     r0,r0
    i.LCD_WR_DATA
    LCD_WR_DATA
        0x00001e60:    4904        .I      LDR      r1,[pc,#16] ; [0x1e74] = 0x4000c000
        0x00001e62:    2201        ."      MOVS     r2,#1
        0x00001e64:    604a        J`      STR      r2,[r1,#4]
        0x00001e66:    2300        .#      MOVS     r3,#0
        0x00001e68:    600b        .`      STR      r3,[r1,#0]
        0x00001e6a:    6188        .a      STR      r0,[r1,#0x18]
        0x00001e6c:    608b        .`      STR      r3,[r1,#8]
        0x00001e6e:    608a        .`      STR      r2,[r1,#8]
        0x00001e70:    600a        .`      STR      r2,[r1,#0]
        0x00001e72:    4770        pG      BX       lr
    $d
        0x00001e74:    4000c000    ...@    DCD    1073790976
    $t
    i.LCD_WR_REG
    LCD_WR_REG
        0x00001e78:    4904        .I      LDR      r1,[pc,#16] ; [0x1e8c] = 0x4000c000
        0x00001e7a:    2200        ."      MOVS     r2,#0
        0x00001e7c:    604a        J`      STR      r2,[r1,#4]
        0x00001e7e:    600a        .`      STR      r2,[r1,#0]
        0x00001e80:    6188        .a      STR      r0,[r1,#0x18]
        0x00001e82:    608a        .`      STR      r2,[r1,#8]
        0x00001e84:    2001        .       MOVS     r0,#1
        0x00001e86:    6088        .`      STR      r0,[r1,#8]
        0x00001e88:    6008        .`      STR      r0,[r1,#0]
        0x00001e8a:    4770        pG      BX       lr
    $d
        0x00001e8c:    4000c000    ...@    DCD    1073790976
    $t
    i.LCD_WR_data
    LCD_WR_data
        0x00001e90:    4904        .I      LDR      r1,[pc,#16] ; [0x1ea4] = 0x4000c000
        0x00001e92:    2201        ."      MOVS     r2,#1
        0x00001e94:    604a        J`      STR      r2,[r1,#4]
        0x00001e96:    2300        .#      MOVS     r3,#0
        0x00001e98:    600b        .`      STR      r3,[r1,#0]
        0x00001e9a:    6188        .a      STR      r0,[r1,#0x18]
        0x00001e9c:    608b        .`      STR      r3,[r1,#8]
        0x00001e9e:    608a        .`      STR      r2,[r1,#8]
        0x00001ea0:    600a        .`      STR      r2,[r1,#0]
        0x00001ea2:    4770        pG      BX       lr
    $d
        0x00001ea4:    4000c000    ...@    DCD    1073790976
    $t
    i.MSI001_Init
    MSI001_Init
        0x00001ea8:    b510        ..      PUSH     {r4,lr}
        0x00001eaa:    4814        .H      LDR      r0,[pc,#80] ; [0x1efc] = 0x40010000
        0x00001eac:    6841        Ah      LDR      r1,[r0,#4]
        0x00001eae:    0849        I.      LSRS     r1,r1,#1
        0x00001eb0:    0049        I.      LSLS     r1,r1,#1
        0x00001eb2:    6041        A`      STR      r1,[r0,#4]
        0x00001eb4:    6901        .i      LDR      r1,[r0,#0x10]
        0x00001eb6:    2201        ."      MOVS     r2,#1
        0x00001eb8:    4311        .C      ORRS     r1,r1,r2
        0x00001eba:    6101        .a      STR      r1,[r0,#0x10]
        0x00001ebc:    6842        Bh      LDR      r2,[r0,#4]
        0x00001ebe:    2102        .!      MOVS     r1,#2
        0x00001ec0:    438a        .C      BICS     r2,r2,r1
        0x00001ec2:    6042        B`      STR      r2,[r0,#4]
        0x00001ec4:    6902        .i      LDR      r2,[r0,#0x10]
        0x00001ec6:    430a        .C      ORRS     r2,r2,r1
        0x00001ec8:    6102        .a      STR      r2,[r0,#0x10]
        0x00001eca:    6842        Bh      LDR      r2,[r0,#4]
        0x00001ecc:    2104        .!      MOVS     r1,#4
        0x00001ece:    438a        .C      BICS     r2,r2,r1
        0x00001ed0:    6042        B`      STR      r2,[r0,#4]
        0x00001ed2:    6902        .i      LDR      r2,[r0,#0x10]
        0x00001ed4:    430a        .C      ORRS     r2,r2,r1
        0x00001ed6:    6102        .a      STR      r2,[r0,#0x10]
        0x00001ed8:    2105        .!      MOVS     r1,#5
        0x00001eda:    4809        .H      LDR      r0,[pc,#36] ; [0x1f00] = 0x28bb8
        0x00001edc:    f000f816    ....    BL       MSI001_Write ; 0x1f0c
        0x00001ee0:    2106        .!      MOVS     r1,#6
        0x00001ee2:    4808        .H      LDR      r0,[pc,#32] ; [0x1f04] = 0x20001
        0x00001ee4:    f000f812    ....    BL       MSI001_Write ; 0x1f0c
        0x00001ee8:    2100        .!      MOVS     r1,#0
        0x00001eea:    4807        .H      LDR      r0,[pc,#28] ; [0x1f08] = 0x4342
        0x00001eec:    f000f80e    ....    BL       MSI001_Write ; 0x1f0c
        0x00001ef0:    207d        }       MOVS     r0,#0x7d
        0x00001ef2:    2103        .!      MOVS     r1,#3
        0x00001ef4:    0140        @.      LSLS     r0,r0,#5
        0x00001ef6:    f000f809    ....    BL       MSI001_Write ; 0x1f0c
        0x00001efa:    bd10        ..      POP      {r4,pc}
    $d
        0x00001efc:    40010000    ...@    DCD    1073807360
        0x00001f00:    00028bb8    ....    DCD    166840
        0x00001f04:    00020001    ....    DCD    131073
        0x00001f08:    00004342    BC..    DCD    17218
    $t
    i.MSI001_Write
    MSI001_Write
        0x00001f0c:    b5f8        ..      PUSH     {r3-r7,lr}
        0x00001f0e:    4607        .F      MOV      r7,r0
        0x00001f10:    460d        .F      MOV      r5,r1
        0x00001f12:    4e27        'N      LDR      r6,[pc,#156] ; [0x1fb0] = 0x40010000
        0x00001f14:    6870        ph      LDR      r0,[r6,#4]
        0x00001f16:    0840        @.      LSRS     r0,r0,#1
        0x00001f18:    0040        @.      LSLS     r0,r0,#1
        0x00001f1a:    6070        p`      STR      r0,[r6,#4]
        0x00001f1c:    6870        ph      LDR      r0,[r6,#4]
        0x00001f1e:    2102        .!      MOVS     r1,#2
        0x00001f20:    4388        .C      BICS     r0,r0,r1
        0x00001f22:    6070        p`      STR      r0,[r6,#4]
        0x00001f24:    2400        .$      MOVS     r4,#0
        0x00001f26:    6870        ph      LDR      r0,[r6,#4]
        0x00001f28:    2102        .!      MOVS     r1,#2
        0x00001f2a:    4388        .C      BICS     r0,r0,r1
        0x00001f2c:    6070        p`      STR      r0,[r6,#4]
        0x00001f2e:    0338        8.      LSLS     r0,r7,#12
        0x00001f30:    d504        ..      BPL      0x1f3c ; MSI001_Write + 48
        0x00001f32:    6870        ph      LDR      r0,[r6,#4]
        0x00001f34:    2104        .!      MOVS     r1,#4
        0x00001f36:    4308        .C      ORRS     r0,r0,r1
        0x00001f38:    6070        p`      STR      r0,[r6,#4]
        0x00001f3a:    e003        ..      B        0x1f44 ; MSI001_Write + 56
        0x00001f3c:    6870        ph      LDR      r0,[r6,#4]
        0x00001f3e:    2104        .!      MOVS     r1,#4
        0x00001f40:    4388        .C      BICS     r0,r0,r1
        0x00001f42:    6070        p`      STR      r0,[r6,#4]
        0x00001f44:    2001        .       MOVS     r0,#1
        0x00001f46:    f001fc81    ....    BL       delay_us ; 0x384c
        0x00001f4a:    6870        ph      LDR      r0,[r6,#4]
        0x00001f4c:    2102        .!      MOVS     r1,#2
        0x00001f4e:    4308        .C      ORRS     r0,r0,r1
        0x00001f50:    6070        p`      STR      r0,[r6,#4]
        0x00001f52:    2001        .       MOVS     r0,#1
        0x00001f54:    f001fc7a    ..z.    BL       delay_us ; 0x384c
        0x00001f58:    007f        ..      LSLS     r7,r7,#1
        0x00001f5a:    1c64        d.      ADDS     r4,r4,#1
        0x00001f5c:    b2e4        ..      UXTB     r4,r4
        0x00001f5e:    2c14        .,      CMP      r4,#0x14
        0x00001f60:    d3e1        ..      BCC      0x1f26 ; MSI001_Write + 26
        0x00001f62:    2400        .$      MOVS     r4,#0
        0x00001f64:    2702        .'      MOVS     r7,#2
        0x00001f66:    6870        ph      LDR      r0,[r6,#4]
        0x00001f68:    43b8        .C      BICS     r0,r0,r7
        0x00001f6a:    6070        p`      STR      r0,[r6,#4]
        0x00001f6c:    0728        (.      LSLS     r0,r5,#28
        0x00001f6e:    d504        ..      BPL      0x1f7a ; MSI001_Write + 110
        0x00001f70:    6870        ph      LDR      r0,[r6,#4]
        0x00001f72:    2104        .!      MOVS     r1,#4
        0x00001f74:    4308        .C      ORRS     r0,r0,r1
        0x00001f76:    6070        p`      STR      r0,[r6,#4]
        0x00001f78:    e003        ..      B        0x1f82 ; MSI001_Write + 118
        0x00001f7a:    6870        ph      LDR      r0,[r6,#4]
        0x00001f7c:    2104        .!      MOVS     r1,#4
        0x00001f7e:    4388        .C      BICS     r0,r0,r1
        0x00001f80:    6070        p`      STR      r0,[r6,#4]
        0x00001f82:    2001        .       MOVS     r0,#1
        0x00001f84:    f001fc62    ..b.    BL       delay_us ; 0x384c
        0x00001f88:    6870        ph      LDR      r0,[r6,#4]
        0x00001f8a:    4338        8C      ORRS     r0,r0,r7
        0x00001f8c:    6070        p`      STR      r0,[r6,#4]
        0x00001f8e:    2001        .       MOVS     r0,#1
        0x00001f90:    f001fc5c    ..\.    BL       delay_us ; 0x384c
        0x00001f94:    0668        h.      LSLS     r0,r5,#25
        0x00001f96:    0e05        ..      LSRS     r5,r0,#24
        0x00001f98:    1c64        d.      ADDS     r4,r4,#1
        0x00001f9a:    b2e4        ..      UXTB     r4,r4
        0x00001f9c:    2c04        .,      CMP      r4,#4
        0x00001f9e:    d3e2        ..      BCC      0x1f66 ; MSI001_Write + 90
        0x00001fa0:    6870        ph      LDR      r0,[r6,#4]
        0x00001fa2:    43b8        .C      BICS     r0,r0,r7
        0x00001fa4:    6070        p`      STR      r0,[r6,#4]
        0x00001fa6:    6870        ph      LDR      r0,[r6,#4]
        0x00001fa8:    2101        .!      MOVS     r1,#1
        0x00001faa:    4308        .C      ORRS     r0,r0,r1
        0x00001fac:    6070        p`      STR      r0,[r6,#4]
        0x00001fae:    bdf8        ..      POP      {r3-r7,pc}
    $d
        0x00001fb0:    40010000    ...@    DCD    1073807360
    $t
    i.OLED_Clear
    OLED_Clear
        0x00001fb4:    b570        p.      PUSH     {r4-r6,lr}
        0x00001fb6:    2500        .%      MOVS     r5,#0
        0x00001fb8:    4628        (F      MOV      r0,r5
        0x00001fba:    2100        .!      MOVS     r1,#0
        0x00001fbc:    30b0        .0      ADDS     r0,r0,#0xb0
        0x00001fbe:    f000f9d0    ....    BL       OLED_WR_Byte ; 0x2362
        0x00001fc2:    2100        .!      MOVS     r1,#0
        0x00001fc4:    4608        .F      MOV      r0,r1
        0x00001fc6:    f000f9cc    ....    BL       OLED_WR_Byte ; 0x2362
        0x00001fca:    2100        .!      MOVS     r1,#0
        0x00001fcc:    2010        .       MOVS     r0,#0x10
        0x00001fce:    f000f9c8    ....    BL       OLED_WR_Byte ; 0x2362
        0x00001fd2:    2400        .$      MOVS     r4,#0
        0x00001fd4:    2101        .!      MOVS     r1,#1
        0x00001fd6:    2000        .       MOVS     r0,#0
        0x00001fd8:    f000f9c3    ....    BL       OLED_WR_Byte ; 0x2362
        0x00001fdc:    1c64        d.      ADDS     r4,r4,#1
        0x00001fde:    b2e4        ..      UXTB     r4,r4
        0x00001fe0:    2c80        .,      CMP      r4,#0x80
        0x00001fe2:    d3f7        ..      BCC      0x1fd4 ; OLED_Clear + 32
        0x00001fe4:    1c6d        m.      ADDS     r5,r5,#1
        0x00001fe6:    b2ed        ..      UXTB     r5,r5
        0x00001fe8:    2d08        .-      CMP      r5,#8
        0x00001fea:    d3e5        ..      BCC      0x1fb8 ; OLED_Clear + 4
        0x00001fec:    bd70        p.      POP      {r4-r6,pc}
        0x00001fee:    0000        ..      MOVS     r0,r0
    i.OLED_IIC_Start
    OLED_IIC_Start
        0x00001ff0:    b510        ..      PUSH     {r4,lr}
        0x00001ff2:    4c09        .L      LDR      r4,[pc,#36] ; [0x2018] = 0x40010000
        0x00001ff4:    2120         !      MOVS     r1,#0x20
        0x00001ff6:    4620         F      MOV      r0,r4
        0x00001ff8:    f7fffb6a    ..j.    BL       GPIO_SetBits ; 0x16d0
        0x00001ffc:    2140        @!      MOVS     r1,#0x40
        0x00001ffe:    4620         F      MOV      r0,r4
        0x00002000:    f7fffb66    ..f.    BL       GPIO_SetBits ; 0x16d0
        0x00002004:    2140        @!      MOVS     r1,#0x40
        0x00002006:    4620         F      MOV      r0,r4
        0x00002008:    f7fffb5e    ..^.    BL       GPIO_ResetBits ; 0x16c8
        0x0000200c:    2120         !      MOVS     r1,#0x20
        0x0000200e:    4620         F      MOV      r0,r4
        0x00002010:    f7fffb5a    ..Z.    BL       GPIO_ResetBits ; 0x16c8
        0x00002014:    bd10        ..      POP      {r4,pc}
    $d
        0x00002016:    0000        ..      DCW    0
        0x00002018:    40010000    ...@    DCD    1073807360
    $t
    i.OLED_IIC_Stop
    OLED_IIC_Stop
        0x0000201c:    b510        ..      PUSH     {r4,lr}
        0x0000201e:    4c07        .L      LDR      r4,[pc,#28] ; [0x203c] = 0x40010000
        0x00002020:    2120         !      MOVS     r1,#0x20
        0x00002022:    4620         F      MOV      r0,r4
        0x00002024:    f7fffb54    ..T.    BL       GPIO_SetBits ; 0x16d0
        0x00002028:    2140        @!      MOVS     r1,#0x40
        0x0000202a:    4620         F      MOV      r0,r4
        0x0000202c:    f7fffb4c    ..L.    BL       GPIO_ResetBits ; 0x16c8
        0x00002030:    2140        @!      MOVS     r1,#0x40
        0x00002032:    4620         F      MOV      r0,r4
        0x00002034:    f7fffb4c    ..L.    BL       GPIO_SetBits ; 0x16d0
        0x00002038:    bd10        ..      POP      {r4,pc}
    $d
        0x0000203a:    0000        ..      DCW    0
        0x0000203c:    40010000    ...@    DCD    1073807360
    $t
    i.OLED_IIC_Wait_Ack
    OLED_IIC_Wait_Ack
        0x00002040:    b510        ..      PUSH     {r4,lr}
        0x00002042:    4c05        .L      LDR      r4,[pc,#20] ; [0x2058] = 0x40010000
        0x00002044:    2120         !      MOVS     r1,#0x20
        0x00002046:    4620         F      MOV      r0,r4
        0x00002048:    f7fffb42    ..B.    BL       GPIO_SetBits ; 0x16d0
        0x0000204c:    2120         !      MOVS     r1,#0x20
        0x0000204e:    4620         F      MOV      r0,r4
        0x00002050:    f7fffb3a    ..:.    BL       GPIO_ResetBits ; 0x16c8
        0x00002054:    bd10        ..      POP      {r4,pc}
    $d
        0x00002056:    0000        ..      DCW    0
        0x00002058:    40010000    ...@    DCD    1073807360
    $t
    i.OLED_Init
    OLED_Init
        0x0000205c:    b510        ..      PUSH     {r4,lr}
        0x0000205e:    4c42        BL      LDR      r4,[pc,#264] ; [0x2168] = 0x40010000
        0x00002060:    2201        ."      MOVS     r2,#1
        0x00002062:    2120         !      MOVS     r1,#0x20
        0x00002064:    4620         F      MOV      r0,r4
        0x00002066:    f7fffa25    ..%.    BL       CMSDK_gpio_SetOutEnable ; 0x14b4
        0x0000206a:    2201        ."      MOVS     r2,#1
        0x0000206c:    2140        @!      MOVS     r1,#0x40
        0x0000206e:    4620         F      MOV      r0,r4
        0x00002070:    f7fffa20    .. .    BL       CMSDK_gpio_SetOutEnable ; 0x14b4
        0x00002074:    2120         !      MOVS     r1,#0x20
        0x00002076:    4620         F      MOV      r0,r4
        0x00002078:    f7fffb2a    ..*.    BL       GPIO_SetBits ; 0x16d0
        0x0000207c:    2140        @!      MOVS     r1,#0x40
        0x0000207e:    4620         F      MOV      r0,r4
        0x00002080:    f7fffb26    ..&.    BL       GPIO_SetBits ; 0x16d0
        0x00002084:    2019        .       MOVS     r0,#0x19
        0x00002086:    0140        @.      LSLS     r0,r0,#5
        0x00002088:    f001fbd2    ....    BL       delay_ms ; 0x3830
        0x0000208c:    2100        .!      MOVS     r1,#0
        0x0000208e:    20ae        .       MOVS     r0,#0xae
        0x00002090:    f000f967    ..g.    BL       OLED_WR_Byte ; 0x2362
        0x00002094:    2100        .!      MOVS     r1,#0
        0x00002096:    4608        .F      MOV      r0,r1
        0x00002098:    f000f963    ..c.    BL       OLED_WR_Byte ; 0x2362
        0x0000209c:    2100        .!      MOVS     r1,#0
        0x0000209e:    2010        .       MOVS     r0,#0x10
        0x000020a0:    f000f95f    .._.    BL       OLED_WR_Byte ; 0x2362
        0x000020a4:    2100        .!      MOVS     r1,#0
        0x000020a6:    2040        @       MOVS     r0,#0x40
        0x000020a8:    f000f95b    ..[.    BL       OLED_WR_Byte ; 0x2362
        0x000020ac:    2100        .!      MOVS     r1,#0
        0x000020ae:    20b0        .       MOVS     r0,#0xb0
        0x000020b0:    f000f957    ..W.    BL       OLED_WR_Byte ; 0x2362
        0x000020b4:    2100        .!      MOVS     r1,#0
        0x000020b6:    2081        .       MOVS     r0,#0x81
        0x000020b8:    f000f953    ..S.    BL       OLED_WR_Byte ; 0x2362
        0x000020bc:    2100        .!      MOVS     r1,#0
        0x000020be:    20ff        .       MOVS     r0,#0xff
        0x000020c0:    f000f94f    ..O.    BL       OLED_WR_Byte ; 0x2362
        0x000020c4:    2100        .!      MOVS     r1,#0
        0x000020c6:    20a1        .       MOVS     r0,#0xa1
        0x000020c8:    f000f94b    ..K.    BL       OLED_WR_Byte ; 0x2362
        0x000020cc:    2100        .!      MOVS     r1,#0
        0x000020ce:    20a6        .       MOVS     r0,#0xa6
        0x000020d0:    f000f947    ..G.    BL       OLED_WR_Byte ; 0x2362
        0x000020d4:    2100        .!      MOVS     r1,#0
        0x000020d6:    20a8        .       MOVS     r0,#0xa8
        0x000020d8:    f000f943    ..C.    BL       OLED_WR_Byte ; 0x2362
        0x000020dc:    2100        .!      MOVS     r1,#0
        0x000020de:    203f        ?       MOVS     r0,#0x3f
        0x000020e0:    f000f93f    ..?.    BL       OLED_WR_Byte ; 0x2362
        0x000020e4:    2100        .!      MOVS     r1,#0
        0x000020e6:    20c8        .       MOVS     r0,#0xc8
        0x000020e8:    f000f93b    ..;.    BL       OLED_WR_Byte ; 0x2362
        0x000020ec:    2100        .!      MOVS     r1,#0
        0x000020ee:    20d3        .       MOVS     r0,#0xd3
        0x000020f0:    f000f937    ..7.    BL       OLED_WR_Byte ; 0x2362
        0x000020f4:    2100        .!      MOVS     r1,#0
        0x000020f6:    4608        .F      MOV      r0,r1
        0x000020f8:    f000f933    ..3.    BL       OLED_WR_Byte ; 0x2362
        0x000020fc:    2100        .!      MOVS     r1,#0
        0x000020fe:    20d5        .       MOVS     r0,#0xd5
        0x00002100:    f000f92f    ../.    BL       OLED_WR_Byte ; 0x2362
        0x00002104:    2100        .!      MOVS     r1,#0
        0x00002106:    2080        .       MOVS     r0,#0x80
        0x00002108:    f000f92b    ..+.    BL       OLED_WR_Byte ; 0x2362
        0x0000210c:    2100        .!      MOVS     r1,#0
        0x0000210e:    20d8        .       MOVS     r0,#0xd8
        0x00002110:    f000f927    ..'.    BL       OLED_WR_Byte ; 0x2362
        0x00002114:    2100        .!      MOVS     r1,#0
        0x00002116:    2005        .       MOVS     r0,#5
        0x00002118:    f000f923    ..#.    BL       OLED_WR_Byte ; 0x2362
        0x0000211c:    2100        .!      MOVS     r1,#0
        0x0000211e:    20d9        .       MOVS     r0,#0xd9
        0x00002120:    f000f91f    ....    BL       OLED_WR_Byte ; 0x2362
        0x00002124:    2100        .!      MOVS     r1,#0
        0x00002126:    20f1        .       MOVS     r0,#0xf1
        0x00002128:    f000f91b    ....    BL       OLED_WR_Byte ; 0x2362
        0x0000212c:    2100        .!      MOVS     r1,#0
        0x0000212e:    20da        .       MOVS     r0,#0xda
        0x00002130:    f000f917    ....    BL       OLED_WR_Byte ; 0x2362
        0x00002134:    2100        .!      MOVS     r1,#0
        0x00002136:    2012        .       MOVS     r0,#0x12
        0x00002138:    f000f913    ....    BL       OLED_WR_Byte ; 0x2362
        0x0000213c:    2100        .!      MOVS     r1,#0
        0x0000213e:    20db        .       MOVS     r0,#0xdb
        0x00002140:    f000f90f    ....    BL       OLED_WR_Byte ; 0x2362
        0x00002144:    2100        .!      MOVS     r1,#0
        0x00002146:    2030        0       MOVS     r0,#0x30
        0x00002148:    f000f90b    ....    BL       OLED_WR_Byte ; 0x2362
        0x0000214c:    2100        .!      MOVS     r1,#0
        0x0000214e:    208d        .       MOVS     r0,#0x8d
        0x00002150:    f000f907    ....    BL       OLED_WR_Byte ; 0x2362
        0x00002154:    2100        .!      MOVS     r1,#0
        0x00002156:    2014        .       MOVS     r0,#0x14
        0x00002158:    f000f903    ....    BL       OLED_WR_Byte ; 0x2362
        0x0000215c:    2100        .!      MOVS     r1,#0
        0x0000215e:    20af        .       MOVS     r0,#0xaf
        0x00002160:    f000f8ff    ....    BL       OLED_WR_Byte ; 0x2362
        0x00002164:    bd10        ..      POP      {r4,pc}
    $d
        0x00002166:    0000        ..      DCW    0
        0x00002168:    40010000    ...@    DCD    1073807360
    $t
    i.OLED_SHOW_FM
    OLED_SHOW_FM
        0x0000216c:    b538        8.      PUSH     {r3-r5,lr}
        0x0000216e:    4604        .F      MOV      r4,r0
        0x00002170:    2102        .!      MOVS     r1,#2
        0x00002172:    2318        .#      MOVS     r3,#0x18
        0x00002174:    a20f        ..      ADR      r2,{pc}+0x40 ; 0x21b4
        0x00002176:    4608        .F      MOV      r0,r1
        0x00002178:    f000f8d9    ....    BL       OLED_ShowString ; 0x232e
        0x0000217c:    210a        .!      MOVS     r1,#0xa
        0x0000217e:    4620         F      MOV      r0,r4
        0x00002180:    f7fef8f4    ....    BL       __aeabi_idiv ; 0x36c
        0x00002184:    460d        .F      MOV      r5,r1
        0x00002186:    4602        .F      MOV      r2,r0
        0x00002188:    2418        .$      MOVS     r4,#0x18
        0x0000218a:    2303        .#      MOVS     r3,#3
        0x0000218c:    2102        .!      MOVS     r1,#2
        0x0000218e:    203c        <       MOVS     r0,#0x3c
        0x00002190:    9400        ..      STR      r4,[sp,#0]
        0x00002192:    f000f893    ....    BL       OLED_ShowNum ; 0x22bc
        0x00002196:    2318        .#      MOVS     r3,#0x18
        0x00002198:    222e        ."      MOVS     r2,#0x2e
        0x0000219a:    2102        .!      MOVS     r1,#2
        0x0000219c:    205a        Z       MOVS     r0,#0x5a
        0x0000219e:    f000f847    ..G.    BL       OLED_ShowChar ; 0x2230
        0x000021a2:    462a        *F      MOV      r2,r5
        0x000021a4:    2301        .#      MOVS     r3,#1
        0x000021a6:    2102        .!      MOVS     r1,#2
        0x000021a8:    205f        _       MOVS     r0,#0x5f
        0x000021aa:    9400        ..      STR      r4,[sp,#0]
        0x000021ac:    f000f886    ....    BL       OLED_ShowNum ; 0x22bc
        0x000021b0:    bd38        8.      POP      {r3-r5,pc}
    $d
        0x000021b2:    0000        ..      DCW    0
        0x000021b4:    3049534d    MSI0    DCD    810111821
        0x000021b8:    003a3130    01:.    DCD    3813680
    $t
    i.OLED_SHOW_QN
    OLED_SHOW_QN
        0x000021bc:    b538        8.      PUSH     {r3-r5,lr}
        0x000021be:    4604        .F      MOV      r4,r0
        0x000021c0:    2318        .#      MOVS     r3,#0x18
        0x000021c2:    a210        ..      ADR      r2,{pc}+0x42 ; 0x2204
        0x000021c4:    2104        .!      MOVS     r1,#4
        0x000021c6:    2001        .       MOVS     r0,#1
        0x000021c8:    f000f8b1    ....    BL       OLED_ShowString ; 0x232e
        0x000021cc:    210a        .!      MOVS     r1,#0xa
        0x000021ce:    4620         F      MOV      r0,r4
        0x000021d0:    f7fef8cc    ....    BL       __aeabi_idiv ; 0x36c
        0x000021d4:    460d        .F      MOV      r5,r1
        0x000021d6:    4602        .F      MOV      r2,r0
        0x000021d8:    2418        .$      MOVS     r4,#0x18
        0x000021da:    2303        .#      MOVS     r3,#3
        0x000021dc:    2104        .!      MOVS     r1,#4
        0x000021de:    203c        <       MOVS     r0,#0x3c
        0x000021e0:    9400        ..      STR      r4,[sp,#0]
        0x000021e2:    f000f86b    ..k.    BL       OLED_ShowNum ; 0x22bc
        0x000021e6:    2318        .#      MOVS     r3,#0x18
        0x000021e8:    222e        ."      MOVS     r2,#0x2e
        0x000021ea:    2104        .!      MOVS     r1,#4
        0x000021ec:    205a        Z       MOVS     r0,#0x5a
        0x000021ee:    f000f81f    ....    BL       OLED_ShowChar ; 0x2230
        0x000021f2:    462a        *F      MOV      r2,r5
        0x000021f4:    2301        .#      MOVS     r3,#1
        0x000021f6:    2104        .!      MOVS     r1,#4
        0x000021f8:    205f        _       MOVS     r0,#0x5f
        0x000021fa:    9400        ..      STR      r4,[sp,#0]
        0x000021fc:    f000f85e    ..^.    BL       OLED_ShowNum ; 0x22bc
        0x00002200:    bd38        8.      POP      {r3-r5,pc}
    $d
        0x00002202:    0000        ..      DCW    0
        0x00002204:    30384e51    QN80    DCD    808996433
        0x00002208:    003a3732    27:.    DCD    3815218
    $t
    i.OLED_Set_Pos
    OLED_Set_Pos
        0x0000220c:    b510        ..      PUSH     {r4,lr}
        0x0000220e:    4604        .F      MOV      r4,r0
        0x00002210:    4608        .F      MOV      r0,r1
        0x00002212:    2100        .!      MOVS     r1,#0
        0x00002214:    30b0        .0      ADDS     r0,r0,#0xb0
        0x00002216:    f000f8a4    ....    BL       OLED_WR_Byte ; 0x2362
        0x0000221a:    0920         .      LSRS     r0,r4,#4
        0x0000221c:    3010        .0      ADDS     r0,r0,#0x10
        0x0000221e:    2100        .!      MOVS     r1,#0
        0x00002220:    f000f89f    ....    BL       OLED_WR_Byte ; 0x2362
        0x00002224:    0720         .      LSLS     r0,r4,#28
        0x00002226:    0f00        ..      LSRS     r0,r0,#28
        0x00002228:    2100        .!      MOVS     r1,#0
        0x0000222a:    f000f89a    ....    BL       OLED_WR_Byte ; 0x2362
        0x0000222e:    bd10        ..      POP      {r4,pc}
    i.OLED_ShowChar
    OLED_ShowChar
        0x00002230:    b5ff        ..      PUSH     {r0-r7,lr}
        0x00002232:    b081        ..      SUB      sp,sp,#4
        0x00002234:    460f        .F      MOV      r7,r1
        0x00002236:    2400        .$      MOVS     r4,#0
        0x00002238:    3a20         :      SUBS     r2,r2,#0x20
        0x0000223a:    b2d5        ..      UXTB     r5,r2
        0x0000223c:    9801        ..      LDR      r0,[sp,#4]
        0x0000223e:    287f        .(      CMP      r0,#0x7f
        0x00002240:    d903        ..      BLS      0x224a ; OLED_ShowChar + 26
        0x00002242:    2000        .       MOVS     r0,#0
        0x00002244:    9001        ..      STR      r0,[sp,#4]
        0x00002246:    1cbf        ..      ADDS     r7,r7,#2
        0x00002248:    b2ff        ..      UXTB     r7,r7
        0x0000224a:    2b10        .+      CMP      r3,#0x10
        0x0000224c:    d011        ..      BEQ      0x2272 ; OLED_ShowChar + 66
        0x0000224e:    4639        9F      MOV      r1,r7
        0x00002250:    9801        ..      LDR      r0,[sp,#4]
        0x00002252:    f7ffffdb    ....    BL       OLED_Set_Pos ; 0x220c
        0x00002256:    2006        .       MOVS     r0,#6
        0x00002258:    4345        EC      MULS     r5,r0,r5
        0x0000225a:    4816        .H      LDR      r0,[pc,#88] ; [0x22b4] = 0x3e4c
        0x0000225c:    182d        -.      ADDS     r5,r5,r0
        0x0000225e:    5d28        (]      LDRB     r0,[r5,r4]
        0x00002260:    2101        .!      MOVS     r1,#1
        0x00002262:    f000f87e    ..~.    BL       OLED_WR_Byte ; 0x2362
        0x00002266:    1c64        d.      ADDS     r4,r4,#1
        0x00002268:    b2e4        ..      UXTB     r4,r4
        0x0000226a:    2c06        .,      CMP      r4,#6
        0x0000226c:    d3f7        ..      BCC      0x225e ; OLED_ShowChar + 46
        0x0000226e:    b005        ..      ADD      sp,sp,#0x14
        0x00002270:    bdf0        ..      POP      {r4-r7,pc}
        0x00002272:    4639        9F      MOV      r1,r7
        0x00002274:    9801        ..      LDR      r0,[sp,#4]
        0x00002276:    f7ffffc9    ....    BL       OLED_Set_Pos ; 0x220c
        0x0000227a:    4e0f        .N      LDR      r6,[pc,#60] ; [0x22b8] = 0x4074
        0x0000227c:    012d        -.      LSLS     r5,r5,#4
        0x0000227e:    1928        (.      ADDS     r0,r5,r4
        0x00002280:    5c30        0\      LDRB     r0,[r6,r0]
        0x00002282:    2101        .!      MOVS     r1,#1
        0x00002284:    f000f86d    ..m.    BL       OLED_WR_Byte ; 0x2362
        0x00002288:    1c64        d.      ADDS     r4,r4,#1
        0x0000228a:    b2e4        ..      UXTB     r4,r4
        0x0000228c:    2c08        .,      CMP      r4,#8
        0x0000228e:    d3f6        ..      BCC      0x227e ; OLED_ShowChar + 78
        0x00002290:    1c7f        ..      ADDS     r7,r7,#1
        0x00002292:    b2f9        ..      UXTB     r1,r7
        0x00002294:    9801        ..      LDR      r0,[sp,#4]
        0x00002296:    f7ffffb9    ....    BL       OLED_Set_Pos ; 0x220c
        0x0000229a:    2400        .$      MOVS     r4,#0
        0x0000229c:    1928        (.      ADDS     r0,r5,r4
        0x0000229e:    1980        ..      ADDS     r0,r0,r6
        0x000022a0:    7a00        .z      LDRB     r0,[r0,#8]
        0x000022a2:    2101        .!      MOVS     r1,#1
        0x000022a4:    f000f85d    ..].    BL       OLED_WR_Byte ; 0x2362
        0x000022a8:    1c64        d.      ADDS     r4,r4,#1
        0x000022aa:    b2e4        ..      UXTB     r4,r4
        0x000022ac:    2c08        .,      CMP      r4,#8
        0x000022ae:    d3f5        ..      BCC      0x229c ; OLED_ShowChar + 108
        0x000022b0:    e7dd        ..      B        0x226e ; OLED_ShowChar + 62
    $d
        0x000022b2:    0000        ..      DCW    0
        0x000022b4:    00003e4c    L>..    DCD    15948
        0x000022b8:    00004074    t@..    DCD    16500
    $t
    i.OLED_ShowNum
    OLED_ShowNum
        0x000022bc:    b5ff        ..      PUSH     {r0-r7,lr}
        0x000022be:    b081        ..      SUB      sp,sp,#4
        0x000022c0:    461d        .F      MOV      r5,r3
        0x000022c2:    2700        .'      MOVS     r7,#0
        0x000022c4:    2400        .$      MOVS     r4,#0
        0x000022c6:    980a        ..      LDR      r0,[sp,#0x28]
        0x000022c8:    0846        F.      LSRS     r6,r0,#1
        0x000022ca:    e021        !.      B        0x2310 ; OLED_ShowNum + 84
        0x000022cc:    1b28        (.      SUBS     r0,r5,r4
        0x000022ce:    1e40        @.      SUBS     r0,r0,#1
        0x000022d0:    b2c1        ..      UXTB     r1,r0
        0x000022d2:    200a        .       MOVS     r0,#0xa
        0x000022d4:    f001fc80    ....    BL       oled_pow ; 0x3bd8
        0x000022d8:    4601        .F      MOV      r1,r0
        0x000022da:    9803        ..      LDR      r0,[sp,#0xc]
        0x000022dc:    f7fef83c    ..<.    BL       __aeabi_uidiv ; 0x358
        0x000022e0:    210a        .!      MOVS     r1,#0xa
        0x000022e2:    f7fef839    ..9.    BL       __aeabi_uidiv ; 0x358
        0x000022e6:    2f00        ./      CMP      r7,#0
        0x000022e8:    d105        ..      BNE      0x22f6 ; OLED_ShowNum + 58
        0x000022ea:    1e68        h.      SUBS     r0,r5,#1
        0x000022ec:    4284        .B      CMP      r4,r0
        0x000022ee:    da02        ..      BGE      0x22f6 ; OLED_ShowNum + 58
        0x000022f0:    2900        .)      CMP      r1,#0
        0x000022f2:    d011        ..      BEQ      0x2318 ; OLED_ShowNum + 92
        0x000022f4:    2701        .'      MOVS     r7,#1
        0x000022f6:    3130        01      ADDS     r1,r1,#0x30
        0x000022f8:    b2ca        ..      UXTB     r2,r1
        0x000022fa:    4630        0F      MOV      r0,r6
        0x000022fc:    9901        ..      LDR      r1,[sp,#4]
        0x000022fe:    4360        `C      MULS     r0,r4,r0
        0x00002300:    1840        @.      ADDS     r0,r0,r1
        0x00002302:    b2c0        ..      UXTB     r0,r0
        0x00002304:    9b0a        ..      LDR      r3,[sp,#0x28]
        0x00002306:    9902        ..      LDR      r1,[sp,#8]
        0x00002308:    f7ffff92    ....    BL       OLED_ShowChar ; 0x2230
        0x0000230c:    1c64        d.      ADDS     r4,r4,#1
        0x0000230e:    b2e4        ..      UXTB     r4,r4
        0x00002310:    42ac        .B      CMP      r4,r5
        0x00002312:    d3db        ..      BCC      0x22cc ; OLED_ShowNum + 16
        0x00002314:    b005        ..      ADD      sp,sp,#0x14
        0x00002316:    bdf0        ..      POP      {r4-r7,pc}
        0x00002318:    4630        0F      MOV      r0,r6
        0x0000231a:    9901        ..      LDR      r1,[sp,#4]
        0x0000231c:    4360        `C      MULS     r0,r4,r0
        0x0000231e:    1840        @.      ADDS     r0,r0,r1
        0x00002320:    b2c0        ..      UXTB     r0,r0
        0x00002322:    2220         "      MOVS     r2,#0x20
        0x00002324:    9b0a        ..      LDR      r3,[sp,#0x28]
        0x00002326:    9902        ..      LDR      r1,[sp,#8]
        0x00002328:    f7ffff82    ....    BL       OLED_ShowChar ; 0x2230
        0x0000232c:    e7ee        ..      B        0x230c ; OLED_ShowNum + 80
    i.OLED_ShowString
    OLED_ShowString
        0x0000232e:    b5ff        ..      PUSH     {r0-r7,lr}
        0x00002330:    b081        ..      SUB      sp,sp,#4
        0x00002332:    4604        .F      MOV      r4,r0
        0x00002334:    460e        .F      MOV      r6,r1
        0x00002336:    4617        .F      MOV      r7,r2
        0x00002338:    2500        .%      MOVS     r5,#0
        0x0000233a:    e00d        ..      B        0x2358 ; OLED_ShowString + 42
        0x0000233c:    4631        1F      MOV      r1,r6
        0x0000233e:    4620         F      MOV      r0,r4
        0x00002340:    9b04        ..      LDR      r3,[sp,#0x10]
        0x00002342:    f7ffff75    ..u.    BL       OLED_ShowChar ; 0x2230
        0x00002346:    3408        .4      ADDS     r4,r4,#8
        0x00002348:    b2e4        ..      UXTB     r4,r4
        0x0000234a:    2c78        x,      CMP      r4,#0x78
        0x0000234c:    d902        ..      BLS      0x2354 ; OLED_ShowString + 38
        0x0000234e:    2400        .$      MOVS     r4,#0
        0x00002350:    1cb6        ..      ADDS     r6,r6,#2
        0x00002352:    b2f6        ..      UXTB     r6,r6
        0x00002354:    1c6d        m.      ADDS     r5,r5,#1
        0x00002356:    b2ed        ..      UXTB     r5,r5
        0x00002358:    5d7a        z]      LDRB     r2,[r7,r5]
        0x0000235a:    2a00        .*      CMP      r2,#0
        0x0000235c:    d1ee        ..      BNE      0x233c ; OLED_ShowString + 14
        0x0000235e:    b005        ..      ADD      sp,sp,#0x14
        0x00002360:    bdf0        ..      POP      {r4-r7,pc}
    i.OLED_WR_Byte
    OLED_WR_Byte
        0x00002362:    b510        ..      PUSH     {r4,lr}
        0x00002364:    2900        .)      CMP      r1,#0
        0x00002366:    d003        ..      BEQ      0x2370 ; OLED_WR_Byte + 14
        0x00002368:    b2c0        ..      UXTB     r0,r0
        0x0000236a:    f000f841    ..A.    BL       OLED_Write_IIC_Data ; 0x23f0
        0x0000236e:    bd10        ..      POP      {r4,pc}
        0x00002370:    b2c0        ..      UXTB     r0,r0
        0x00002372:    f000f827    ..'.    BL       OLED_Write_IIC_Command ; 0x23c4
        0x00002376:    bd10        ..      POP      {r4,pc}
    i.OLED_Write_IIC_Byte
    OLED_Write_IIC_Byte
        0x00002378:    b570        p.      PUSH     {r4-r6,lr}
        0x0000237a:    4604        .F      MOV      r4,r0
        0x0000237c:    4e10        .N      LDR      r6,[pc,#64] ; [0x23c0] = 0x40010000
        0x0000237e:    2120         !      MOVS     r1,#0x20
        0x00002380:    4630        0F      MOV      r0,r6
        0x00002382:    f7fff9a1    ....    BL       GPIO_ResetBits ; 0x16c8
        0x00002386:    2500        .%      MOVS     r5,#0
        0x00002388:    09e0        ..      LSRS     r0,r4,#7
        0x0000238a:    01c0        ..      LSLS     r0,r0,#7
        0x0000238c:    2880        .(      CMP      r0,#0x80
        0x0000238e:    d012        ..      BEQ      0x23b6 ; OLED_Write_IIC_Byte + 62
        0x00002390:    2140        @!      MOVS     r1,#0x40
        0x00002392:    4630        0F      MOV      r0,r6
        0x00002394:    f7fff998    ....    BL       GPIO_ResetBits ; 0x16c8
        0x00002398:    0660        `.      LSLS     r0,r4,#25
        0x0000239a:    0e04        ..      LSRS     r4,r0,#24
        0x0000239c:    2120         !      MOVS     r1,#0x20
        0x0000239e:    4630        0F      MOV      r0,r6
        0x000023a0:    f7fff996    ....    BL       GPIO_SetBits ; 0x16d0
        0x000023a4:    2120         !      MOVS     r1,#0x20
        0x000023a6:    4630        0F      MOV      r0,r6
        0x000023a8:    f7fff98e    ....    BL       GPIO_ResetBits ; 0x16c8
        0x000023ac:    1c6d        m.      ADDS     r5,r5,#1
        0x000023ae:    b2ed        ..      UXTB     r5,r5
        0x000023b0:    2d08        .-      CMP      r5,#8
        0x000023b2:    d3e9        ..      BCC      0x2388 ; OLED_Write_IIC_Byte + 16
        0x000023b4:    bd70        p.      POP      {r4-r6,pc}
        0x000023b6:    2140        @!      MOVS     r1,#0x40
        0x000023b8:    4630        0F      MOV      r0,r6
        0x000023ba:    f7fff989    ....    BL       GPIO_SetBits ; 0x16d0
        0x000023be:    e7eb        ..      B        0x2398 ; OLED_Write_IIC_Byte + 32
    $d
        0x000023c0:    40010000    ...@    DCD    1073807360
    $t
    i.OLED_Write_IIC_Command
    OLED_Write_IIC_Command
        0x000023c4:    b510        ..      PUSH     {r4,lr}
        0x000023c6:    4604        .F      MOV      r4,r0
        0x000023c8:    f7fffe12    ....    BL       OLED_IIC_Start ; 0x1ff0
        0x000023cc:    2078        x       MOVS     r0,#0x78
        0x000023ce:    f7ffffd3    ....    BL       OLED_Write_IIC_Byte ; 0x2378
        0x000023d2:    f7fffe35    ..5.    BL       OLED_IIC_Wait_Ack ; 0x2040
        0x000023d6:    2000        .       MOVS     r0,#0
        0x000023d8:    f7ffffce    ....    BL       OLED_Write_IIC_Byte ; 0x2378
        0x000023dc:    f7fffe30    ..0.    BL       OLED_IIC_Wait_Ack ; 0x2040
        0x000023e0:    4620         F      MOV      r0,r4
        0x000023e2:    f7ffffc9    ....    BL       OLED_Write_IIC_Byte ; 0x2378
        0x000023e6:    f7fffe2b    ..+.    BL       OLED_IIC_Wait_Ack ; 0x2040
        0x000023ea:    f7fffe17    ....    BL       OLED_IIC_Stop ; 0x201c
        0x000023ee:    bd10        ..      POP      {r4,pc}
    i.OLED_Write_IIC_Data
    OLED_Write_IIC_Data
        0x000023f0:    b510        ..      PUSH     {r4,lr}
        0x000023f2:    4604        .F      MOV      r4,r0
        0x000023f4:    f7fffdfc    ....    BL       OLED_IIC_Start ; 0x1ff0
        0x000023f8:    2078        x       MOVS     r0,#0x78
        0x000023fa:    f7ffffbd    ....    BL       OLED_Write_IIC_Byte ; 0x2378
        0x000023fe:    f7fffe1f    ....    BL       OLED_IIC_Wait_Ack ; 0x2040
        0x00002402:    2040        @       MOVS     r0,#0x40
        0x00002404:    f7ffffb8    ....    BL       OLED_Write_IIC_Byte ; 0x2378
        0x00002408:    f7fffe1a    ....    BL       OLED_IIC_Wait_Ack ; 0x2040
        0x0000240c:    4620         F      MOV      r0,r4
        0x0000240e:    f7ffffb3    ....    BL       OLED_Write_IIC_Byte ; 0x2378
        0x00002412:    f7fffe15    ....    BL       OLED_IIC_Wait_Ack ; 0x2040
        0x00002416:    f7fffe01    ....    BL       OLED_IIC_Stop ; 0x201c
        0x0000241a:    bd10        ..      POP      {r4,pc}
    i.SEG_Clear_all
    SEG_Clear_all
        0x0000241c:    4902        .I      LDR      r1,[pc,#8] ; [0x2428] = 0x20000024
        0x0000241e:    2000        .       MOVS     r0,#0
        0x00002420:    6008        .`      STR      r0,[r1,#0]
        0x00002422:    4902        .I      LDR      r1,[pc,#8] ; [0x242c] = 0x40011000
        0x00002424:    6008        .`      STR      r0,[r1,#0]
        0x00002426:    4770        pG      BX       lr
    $d
        0x00002428:    20000024    $..     DCD    536870948
        0x0000242c:    40011000    ...@    DCD    1073811456
    $t
    i.START_AND_STOP
    START_AND_STOP
        0x00002430:    490f        .I      LDR      r1,[pc,#60] ; [0x2470] = 0x40012000
        0x00002432:    2801        .(      CMP      r0,#1
        0x00002434:    d00c        ..      BEQ      0x2450 ; START_AND_STOP + 32
        0x00002436:    2800        .(      CMP      r0,#0
        0x00002438:    d00d        ..      BEQ      0x2456 ; START_AND_STOP + 38
        0x0000243a:    2802        .(      CMP      r0,#2
        0x0000243c:    d00e        ..      BEQ      0x245c ; START_AND_STOP + 44
        0x0000243e:    2803        .(      CMP      r0,#3
        0x00002440:    d00f        ..      BEQ      0x2462 ; START_AND_STOP + 50
        0x00002442:    2804        .(      CMP      r0,#4
        0x00002444:    d010        ..      BEQ      0x2468 ; START_AND_STOP + 56
        0x00002446:    2805        .(      CMP      r0,#5
        0x00002448:    d101        ..      BNE      0x244e ; START_AND_STOP + 30
        0x0000244a:    2021        !       MOVS     r0,#0x21
        0x0000244c:    6048        H`      STR      r0,[r1,#4]
        0x0000244e:    4770        pG      BX       lr
        0x00002450:    2003        .       MOVS     r0,#3
        0x00002452:    6048        H`      STR      r0,[r1,#4]
        0x00002454:    4770        pG      BX       lr
        0x00002456:    2000        .       MOVS     r0,#0
        0x00002458:    6048        H`      STR      r0,[r1,#4]
        0x0000245a:    4770        pG      BX       lr
        0x0000245c:    2005        .       MOVS     r0,#5
        0x0000245e:    6048        H`      STR      r0,[r1,#4]
        0x00002460:    4770        pG      BX       lr
        0x00002462:    2009        .       MOVS     r0,#9
        0x00002464:    6048        H`      STR      r0,[r1,#4]
        0x00002466:    4770        pG      BX       lr
        0x00002468:    2011        .       MOVS     r0,#0x11
        0x0000246a:    6048        H`      STR      r0,[r1,#4]
        0x0000246c:    4770        pG      BX       lr
    $d
        0x0000246e:    0000        ..      DCW    0
        0x00002470:    40012000    . .@    DCD    1073815552
    $t
    i.STOP
    STOP
        0x00002474:    b500        ..      PUSH     {lr}
        0x00002476:    f7ffffd1    ....    BL       SEG_Clear_all ; 0x241c
        0x0000247a:    2101        .!      MOVS     r1,#1
        0x0000247c:    200e        .       MOVS     r0,#0xe
        0x0000247e:    f001fb77    ..w.    BL       nixie_display_num ; 0x3b70
        0x00002482:    2102        .!      MOVS     r1,#2
        0x00002484:    200a        .       MOVS     r0,#0xa
        0x00002486:    f001fb73    ..s.    BL       nixie_display_num ; 0x3b70
        0x0000248a:    2103        .!      MOVS     r1,#3
        0x0000248c:    2000        .       MOVS     r0,#0
        0x0000248e:    f001fb6f    ..o.    BL       nixie_display_num ; 0x3b70
        0x00002492:    2104        .!      MOVS     r1,#4
        0x00002494:    2000        .       MOVS     r0,#0
        0x00002496:    f001fb6b    ..k.    BL       nixie_display_num ; 0x3b70
        0x0000249a:    bd00        ..      POP      {pc}
    i.Search
    Search
        0x0000249c:    b510        ..      PUSH     {r4,lr}
        0x0000249e:    2318        .#      MOVS     r3,#0x18
        0x000024a0:    a20d        ..      ADR      r2,{pc}+0x38 ; 0x24d8
        0x000024a2:    2106        .!      MOVS     r1,#6
        0x000024a4:    2003        .       MOVS     r0,#3
        0x000024a6:    f7ffff42    ..B.    BL       OLED_ShowString ; 0x232e
        0x000024aa:    2101        .!      MOVS     r1,#1
        0x000024ac:    200c        .       MOVS     r0,#0xc
        0x000024ae:    f001fb5f    .._.    BL       nixie_display_num ; 0x3b70
        0x000024b2:    2102        .!      MOVS     r1,#2
        0x000024b4:    200a        .       MOVS     r0,#0xa
        0x000024b6:    f001fb5b    ..[.    BL       nixie_display_num ; 0x3b70
        0x000024ba:    2103        .!      MOVS     r1,#3
        0x000024bc:    200e        .       MOVS     r0,#0xe
        0x000024be:    f001fb57    ..W.    BL       nixie_display_num ; 0x3b70
        0x000024c2:    2104        .!      MOVS     r1,#4
        0x000024c4:    2005        .       MOVS     r0,#5
        0x000024c6:    f001fb53    ..S.    BL       nixie_display_num ; 0x3b70
        0x000024ca:    2318        .#      MOVS     r3,#0x18
        0x000024cc:    a206        ..      ADR      r2,{pc}+0x1c ; 0x24e8
        0x000024ce:    2106        .!      MOVS     r1,#6
        0x000024d0:    2003        .       MOVS     r0,#3
        0x000024d2:    f7ffff2c    ..,.    BL       OLED_ShowString ; 0x232e
        0x000024d6:    bd10        ..      POP      {r4,pc}
    $d
        0x000024d8:    20202020            DCD    538976288
        0x000024dc:    20202020            DCD    538976288
        0x000024e0:    20202020            DCD    538976288
        0x000024e4:    00002020      ..    DCD    8224
        0x000024e8:    72616553    Sear    DCD    1918985555
        0x000024ec:    2e2e6863    ch..    DCD    774793315
        0x000024f0:    0000002e    ....    DCD    46
    $t
    i.Set_Dir
    Set_Dir
        0x000024f4:    0680        ..      LSLS     r0,r0,#26
        0x000024f6:    0f83        ..      LSRS     r3,r0,#30
        0x000024f8:    21ff        .!      MOVS     r1,#0xff
        0x000024fa:    3141        A1      ADDS     r1,r1,#0x41
        0x000024fc:    4804        .H      LDR      r0,[pc,#16] ; [0x2510] = 0x2000002c
        0x000024fe:    22f0        ."      MOVS     r2,#0xf0
        0x00002500:    2b00        .+      CMP      r3,#0
        0x00002502:    d002        ..      BEQ      0x250a ; Set_Dir + 22
        0x00002504:    8001        ..      STRH     r1,[r0,#0]
        0x00002506:    8042        B.      STRH     r2,[r0,#2]
        0x00002508:    4770        pG      BX       lr
        0x0000250a:    8002        ..      STRH     r2,[r0,#0]
        0x0000250c:    8041        A.      STRH     r1,[r0,#2]
        0x0000250e:    4770        pG      BX       lr
    $d
        0x00002510:    2000002c    ,..     DCD    536870956
    $t
    i.Show_Maps
    Show_Maps
        0x00002514:    b5fe        ..      PUSH     {r1-r7,lr}
        0x00002516:    4dc0        .M      LDR      r5,[pc,#768] ; [0x2818] = 0xffff
        0x00002518:    4628        (F      MOV      r0,r5
        0x0000251a:    f7fff95d    ..].    BL       LCD_Clear ; 0x17d8
        0x0000251e:    22ff        ."      MOVS     r2,#0xff
        0x00002520:    2100        .!      MOVS     r1,#0
        0x00002522:    23f0        .#      MOVS     r3,#0xf0
        0x00002524:    3241        A2      ADDS     r2,r2,#0x41
        0x00002526:    4608        .F      MOV      r0,r1
        0x00002528:    9500        ..      STR      r5,[sp,#0]
        0x0000252a:    f7fff9f8    ....    BL       LCD_Fill ; 0x191e
        0x0000252e:    48bb        .H      LDR      r0,[pc,#748] ; [0x281c] = 0xa651
        0x00002530:    27ff        .'      MOVS     r7,#0xff
        0x00002532:    372a        *7      ADDS     r7,r7,#0x2a
        0x00002534:    2114        .!      MOVS     r1,#0x14
        0x00002536:    9000        ..      STR      r0,[sp,#0]
        0x00002538:    237d        }#      MOVS     r3,#0x7d
        0x0000253a:    463a        :F      MOV      r2,r7
        0x0000253c:    4608        .F      MOV      r0,r1
        0x0000253e:    f7fff9ee    ....    BL       LCD_Fill ; 0x191e
        0x00002542:    2400        .$      MOVS     r4,#0
        0x00002544:    2114        .!      MOVS     r1,#0x14
        0x00002546:    237d        }#      MOVS     r3,#0x7d
        0x00002548:    463a        :F      MOV      r2,r7
        0x0000254a:    4608        .F      MOV      r0,r1
        0x0000254c:    9400        ..      STR      r4,[sp,#0]
        0x0000254e:    f7fff9c2    ....    BL       LCD_DrawRectangle ; 0x18d6
        0x00002552:    232c        ,#      MOVS     r3,#0x2c
        0x00002554:    2228        ("      MOVS     r2,#0x28
        0x00002556:    4619        .F      MOV      r1,r3
        0x00002558:    2014        .       MOVS     r0,#0x14
        0x0000255a:    9400        ..      STR      r4,[sp,#0]
        0x0000255c:    f7fff95e    ..^.    BL       LCD_DrawLine ; 0x181c
        0x00002560:    2228        ("      MOVS     r2,#0x28
        0x00002562:    2336        6#      MOVS     r3,#0x36
        0x00002564:    212c        ,!      MOVS     r1,#0x2c
        0x00002566:    4610        .F      MOV      r0,r2
        0x00002568:    9400        ..      STR      r4,[sp,#0]
        0x0000256a:    f7fff957    ..W.    BL       LCD_DrawLine ; 0x181c
        0x0000256e:    2336        6#      MOVS     r3,#0x36
        0x00002570:    2238        8"      MOVS     r2,#0x38
        0x00002572:    4619        .F      MOV      r1,r3
        0x00002574:    2028        (       MOVS     r0,#0x28
        0x00002576:    9400        ..      STR      r4,[sp,#0]
        0x00002578:    f7fff950    ..P.    BL       LCD_DrawLine ; 0x181c
        0x0000257c:    2238        8"      MOVS     r2,#0x38
        0x0000257e:    232c        ,#      MOVS     r3,#0x2c
        0x00002580:    2136        6!      MOVS     r1,#0x36
        0x00002582:    4610        .F      MOV      r0,r2
        0x00002584:    9400        ..      STR      r4,[sp,#0]
        0x00002586:    f7fff949    ..I.    BL       LCD_DrawLine ; 0x181c
        0x0000258a:    232c        ,#      MOVS     r3,#0x2c
        0x0000258c:    226b        k"      MOVS     r2,#0x6b
        0x0000258e:    4619        .F      MOV      r1,r3
        0x00002590:    2038        8       MOVS     r0,#0x38
        0x00002592:    9400        ..      STR      r4,[sp,#0]
        0x00002594:    f7fff942    ..B.    BL       LCD_DrawLine ; 0x181c
        0x00002598:    226b        k"      MOVS     r2,#0x6b
        0x0000259a:    2314        .#      MOVS     r3,#0x14
        0x0000259c:    212c        ,!      MOVS     r1,#0x2c
        0x0000259e:    4610        .F      MOV      r0,r2
        0x000025a0:    9400        ..      STR      r4,[sp,#0]
        0x000025a2:    f7fff93b    ..;.    BL       LCD_DrawLine ; 0x181c
        0x000025a6:    2370        p#      MOVS     r3,#0x70
        0x000025a8:    2236        6"      MOVS     r2,#0x36
        0x000025aa:    4619        .F      MOV      r1,r3
        0x000025ac:    2014        .       MOVS     r0,#0x14
        0x000025ae:    9400        ..      STR      r4,[sp,#0]
        0x000025b0:    f7fff934    ..4.    BL       LCD_DrawLine ; 0x181c
        0x000025b4:    2236        6"      MOVS     r2,#0x36
        0x000025b6:    2362        b#      MOVS     r3,#0x62
        0x000025b8:    2170        p!      MOVS     r1,#0x70
        0x000025ba:    4610        .F      MOV      r0,r2
        0x000025bc:    9400        ..      STR      r4,[sp,#0]
        0x000025be:    f7fff92d    ..-.    BL       LCD_DrawLine ; 0x181c
        0x000025c2:    2362        b#      MOVS     r3,#0x62
        0x000025c4:    2229        )"      MOVS     r2,#0x29
        0x000025c6:    4619        .F      MOV      r1,r3
        0x000025c8:    2036        6       MOVS     r0,#0x36
        0x000025ca:    9400        ..      STR      r4,[sp,#0]
        0x000025cc:    f7fff926    ..&.    BL       LCD_DrawLine ; 0x181c
        0x000025d0:    2229        )"      MOVS     r2,#0x29
        0x000025d2:    2349        I#      MOVS     r3,#0x49
        0x000025d4:    2162        b!      MOVS     r1,#0x62
        0x000025d6:    4610        .F      MOV      r0,r2
        0x000025d8:    9400        ..      STR      r4,[sp,#0]
        0x000025da:    f7fff91f    ....    BL       LCD_DrawLine ; 0x181c
        0x000025de:    2349        I#      MOVS     r3,#0x49
        0x000025e0:    2243        C"      MOVS     r2,#0x43
        0x000025e2:    4619        .F      MOV      r1,r3
        0x000025e4:    2029        )       MOVS     r0,#0x29
        0x000025e6:    9400        ..      STR      r4,[sp,#0]
        0x000025e8:    f7fff918    ....    BL       LCD_DrawLine ; 0x181c
        0x000025ec:    2243        C"      MOVS     r2,#0x43
        0x000025ee:    237d        }#      MOVS     r3,#0x7d
        0x000025f0:    2149        I!      MOVS     r1,#0x49
        0x000025f2:    4610        .F      MOV      r0,r2
        0x000025f4:    9400        ..      STR      r4,[sp,#0]
        0x000025f6:    f7fff911    ....    BL       LCD_DrawLine ; 0x181c
        0x000025fa:    2258        X"      MOVS     r2,#0x58
        0x000025fc:    233c        <#      MOVS     r3,#0x3c
        0x000025fe:    217d        }!      MOVS     r1,#0x7d
        0x00002600:    4610        .F      MOV      r0,r2
        0x00002602:    9400        ..      STR      r4,[sp,#0]
        0x00002604:    f7fff90a    ....    BL       LCD_DrawLine ; 0x181c
        0x00002608:    233c        <#      MOVS     r3,#0x3c
        0x0000260a:    226b        k"      MOVS     r2,#0x6b
        0x0000260c:    4619        .F      MOV      r1,r3
        0x0000260e:    2058        X       MOVS     r0,#0x58
        0x00002610:    9400        ..      STR      r4,[sp,#0]
        0x00002612:    f7fff903    ....    BL       LCD_DrawLine ; 0x181c
        0x00002616:    226b        k"      MOVS     r2,#0x6b
        0x00002618:    237d        }#      MOVS     r3,#0x7d
        0x0000261a:    213c        <!      MOVS     r1,#0x3c
        0x0000261c:    4610        .F      MOV      r0,r2
        0x0000261e:    9400        ..      STR      r4,[sp,#0]
        0x00002620:    f7fff8fc    ....    BL       LCD_DrawLine ; 0x181c
        0x00002624:    227e        ~"      MOVS     r2,#0x7e
        0x00002626:    2326        &#      MOVS     r3,#0x26
        0x00002628:    2114        .!      MOVS     r1,#0x14
        0x0000262a:    4610        .F      MOV      r0,r2
        0x0000262c:    9400        ..      STR      r4,[sp,#0]
        0x0000262e:    f7fff8f5    ....    BL       LCD_DrawLine ; 0x181c
        0x00002632:    2326        &#      MOVS     r3,#0x26
        0x00002634:    229e        ."      MOVS     r2,#0x9e
        0x00002636:    4619        .F      MOV      r1,r3
        0x00002638:    207e        ~       MOVS     r0,#0x7e
        0x0000263a:    9400        ..      STR      r4,[sp,#0]
        0x0000263c:    f7fff8ee    ....    BL       LCD_DrawLine ; 0x181c
        0x00002640:    229e        ."      MOVS     r2,#0x9e
        0x00002642:    2314        .#      MOVS     r3,#0x14
        0x00002644:    2126        &!      MOVS     r1,#0x26
        0x00002646:    4610        .F      MOV      r0,r2
        0x00002648:    9400        ..      STR      r4,[sp,#0]
        0x0000264a:    f7fff8e7    ....    BL       LCD_DrawLine ; 0x181c
        0x0000264e:    2330        0#      MOVS     r3,#0x30
        0x00002650:    229e        ."      MOVS     r2,#0x9e
        0x00002652:    4619        .F      MOV      r1,r3
        0x00002654:    207e        ~       MOVS     r0,#0x7e
        0x00002656:    9400        ..      STR      r4,[sp,#0]
        0x00002658:    f7fff8e0    ....    BL       LCD_DrawLine ; 0x181c
        0x0000265c:    229e        ."      MOVS     r2,#0x9e
        0x0000265e:    2354        T#      MOVS     r3,#0x54
        0x00002660:    2130        0!      MOVS     r1,#0x30
        0x00002662:    4610        .F      MOV      r0,r2
        0x00002664:    9400        ..      STR      r4,[sp,#0]
        0x00002666:    f7fff8d9    ....    BL       LCD_DrawLine ; 0x181c
        0x0000266a:    2354        T#      MOVS     r3,#0x54
        0x0000266c:    227e        ~"      MOVS     r2,#0x7e
        0x0000266e:    4619        .F      MOV      r1,r3
        0x00002670:    209e        .       MOVS     r0,#0x9e
        0x00002672:    9400        ..      STR      r4,[sp,#0]
        0x00002674:    f7fff8d2    ....    BL       LCD_DrawLine ; 0x181c
        0x00002678:    227e        ~"      MOVS     r2,#0x7e
        0x0000267a:    2330        0#      MOVS     r3,#0x30
        0x0000267c:    2154        T!      MOVS     r1,#0x54
        0x0000267e:    4610        .F      MOV      r0,r2
        0x00002680:    9400        ..      STR      r4,[sp,#0]
        0x00002682:    f7fff8cb    ....    BL       LCD_DrawLine ; 0x181c
        0x00002686:    227e        ~"      MOVS     r2,#0x7e
        0x00002688:    2362        b#      MOVS     r3,#0x62
        0x0000268a:    217d        }!      MOVS     r1,#0x7d
        0x0000268c:    4610        .F      MOV      r0,r2
        0x0000268e:    9400        ..      STR      r4,[sp,#0]
        0x00002690:    f7fff8c4    ....    BL       LCD_DrawLine ; 0x181c
        0x00002694:    2362        b#      MOVS     r3,#0x62
        0x00002696:    229e        ."      MOVS     r2,#0x9e
        0x00002698:    4619        .F      MOV      r1,r3
        0x0000269a:    207e        ~       MOVS     r0,#0x7e
        0x0000269c:    9400        ..      STR      r4,[sp,#0]
        0x0000269e:    f7fff8bd    ....    BL       LCD_DrawLine ; 0x181c
        0x000026a2:    229e        ."      MOVS     r2,#0x9e
        0x000026a4:    237d        }#      MOVS     r3,#0x7d
        0x000026a6:    2162        b!      MOVS     r1,#0x62
        0x000026a8:    4610        .F      MOV      r0,r2
        0x000026aa:    9400        ..      STR      r4,[sp,#0]
        0x000026ac:    f7fff8b6    ....    BL       LCD_DrawLine ; 0x181c
        0x000026b0:    22c2        ."      MOVS     r2,#0xc2
        0x000026b2:    2362        b#      MOVS     r3,#0x62
        0x000026b4:    2114        .!      MOVS     r1,#0x14
        0x000026b6:    4610        .F      MOV      r0,r2
        0x000026b8:    9400        ..      STR      r4,[sp,#0]
        0x000026ba:    f7fff8af    ....    BL       LCD_DrawLine ; 0x181c
        0x000026be:    2362        b#      MOVS     r3,#0x62
        0x000026c0:    22da        ."      MOVS     r2,#0xda
        0x000026c2:    4619        .F      MOV      r1,r3
        0x000026c4:    20c2        .       MOVS     r0,#0xc2
        0x000026c6:    9400        ..      STR      r4,[sp,#0]
        0x000026c8:    f7fff8a8    ....    BL       LCD_DrawLine ; 0x181c
        0x000026cc:    22da        ."      MOVS     r2,#0xda
        0x000026ce:    2326        &#      MOVS     r3,#0x26
        0x000026d0:    2162        b!      MOVS     r1,#0x62
        0x000026d2:    4610        .F      MOV      r0,r2
        0x000026d4:    9400        ..      STR      r4,[sp,#0]
        0x000026d6:    f7fff8a1    ....    BL       LCD_DrawLine ; 0x181c
        0x000026da:    2326        &#      MOVS     r3,#0x26
        0x000026dc:    22ef        ."      MOVS     r2,#0xef
        0x000026de:    4619        .F      MOV      r1,r3
        0x000026e0:    20da        .       MOVS     r0,#0xda
        0x000026e2:    9400        ..      STR      r4,[sp,#0]
        0x000026e4:    f7fff89a    ....    BL       LCD_DrawLine ; 0x181c
        0x000026e8:    22ef        ."      MOVS     r2,#0xef
        0x000026ea:    232b        +#      MOVS     r3,#0x2b
        0x000026ec:    2126        &!      MOVS     r1,#0x26
        0x000026ee:    4610        .F      MOV      r0,r2
        0x000026f0:    9400        ..      STR      r4,[sp,#0]
        0x000026f2:    f7fff893    ....    BL       LCD_DrawLine ; 0x181c
        0x000026f6:    232b        +#      MOVS     r3,#0x2b
        0x000026f8:    22fc        ."      MOVS     r2,#0xfc
        0x000026fa:    4619        .F      MOV      r1,r3
        0x000026fc:    20ef        .       MOVS     r0,#0xef
        0x000026fe:    9400        ..      STR      r4,[sp,#0]
        0x00002700:    f7fff88c    ....    BL       LCD_DrawLine ; 0x181c
        0x00002704:    22fc        ."      MOVS     r2,#0xfc
        0x00002706:    2332        2#      MOVS     r3,#0x32
        0x00002708:    212b        +!      MOVS     r1,#0x2b
        0x0000270a:    4610        .F      MOV      r0,r2
        0x0000270c:    9400        ..      STR      r4,[sp,#0]
        0x0000270e:    f7fff885    ....    BL       LCD_DrawLine ; 0x181c
        0x00002712:    26ff        .&      MOVS     r6,#0xff
        0x00002714:    2332        2#      MOVS     r3,#0x32
        0x00002716:    360b        .6      ADDS     r6,r6,#0xb
        0x00002718:    4632        2F      MOV      r2,r6
        0x0000271a:    4619        .F      MOV      r1,r3
        0x0000271c:    20fc        .       MOVS     r0,#0xfc
        0x0000271e:    9400        ..      STR      r4,[sp,#0]
        0x00002720:    f7fff87c    ..|.    BL       LCD_DrawLine ; 0x181c
        0x00002724:    232b        +#      MOVS     r3,#0x2b
        0x00002726:    4632        2F      MOV      r2,r6
        0x00002728:    2132        2!      MOVS     r1,#0x32
        0x0000272a:    4630        0F      MOV      r0,r6
        0x0000272c:    9400        ..      STR      r4,[sp,#0]
        0x0000272e:    f7fff875    ..u.    BL       LCD_DrawLine ; 0x181c
        0x00002732:    232b        +#      MOVS     r3,#0x2b
        0x00002734:    4632        2F      MOV      r2,r6
        0x00002736:    4619        .F      MOV      r1,r3
        0x00002738:    4630        0F      MOV      r0,r6
        0x0000273a:    9400        ..      STR      r4,[sp,#0]
        0x0000273c:    f7fff86e    ..n.    BL       LCD_DrawLine ; 0x181c
        0x00002740:    232b        +#      MOVS     r3,#0x2b
        0x00002742:    463a        :F      MOV      r2,r7
        0x00002744:    4619        .F      MOV      r1,r3
        0x00002746:    4630        0F      MOV      r0,r6
        0x00002748:    9400        ..      STR      r4,[sp,#0]
        0x0000274a:    f7fff867    ..g.    BL       LCD_DrawLine ; 0x181c
        0x0000274e:    22c2        ."      MOVS     r2,#0xc2
        0x00002750:    236f        o#      MOVS     r3,#0x6f
        0x00002752:    217d        }!      MOVS     r1,#0x7d
        0x00002754:    4610        .F      MOV      r0,r2
        0x00002756:    9400        ..      STR      r4,[sp,#0]
        0x00002758:    f7fff860    ..`.    BL       LCD_DrawLine ; 0x181c
        0x0000275c:    236f        o#      MOVS     r3,#0x6f
        0x0000275e:    22da        ."      MOVS     r2,#0xda
        0x00002760:    4619        .F      MOV      r1,r3
        0x00002762:    20c2        .       MOVS     r0,#0xc2
        0x00002764:    9400        ..      STR      r4,[sp,#0]
        0x00002766:    f7fff859    ..Y.    BL       LCD_DrawLine ; 0x181c
        0x0000276a:    22da        ."      MOVS     r2,#0xda
        0x0000276c:    237d        }#      MOVS     r3,#0x7d
        0x0000276e:    216f        o!      MOVS     r1,#0x6f
        0x00002770:    4610        .F      MOV      r0,r2
        0x00002772:    9400        ..      STR      r4,[sp,#0]
        0x00002774:    f7fff852    ..R.    BL       LCD_DrawLine ; 0x181c
        0x00002778:    22ef        ."      MOVS     r2,#0xef
        0x0000277a:    236f        o#      MOVS     r3,#0x6f
        0x0000277c:    217d        }!      MOVS     r1,#0x7d
        0x0000277e:    4610        .F      MOV      r0,r2
        0x00002780:    9400        ..      STR      r4,[sp,#0]
        0x00002782:    f7fff84b    ..K.    BL       LCD_DrawLine ; 0x181c
        0x00002786:    26ff        .&      MOVS     r6,#0xff
        0x00002788:    236f        o#      MOVS     r3,#0x6f
        0x0000278a:    3601        .6      ADDS     r6,#1
        0x0000278c:    4632        2F      MOV      r2,r6
        0x0000278e:    4619        .F      MOV      r1,r3
        0x00002790:    20ef        .       MOVS     r0,#0xef
        0x00002792:    9400        ..      STR      r4,[sp,#0]
        0x00002794:    f7fff842    ..B.    BL       LCD_DrawLine ; 0x181c
        0x00002798:    2362        b#      MOVS     r3,#0x62
        0x0000279a:    4632        2F      MOV      r2,r6
        0x0000279c:    216f        o!      MOVS     r1,#0x6f
        0x0000279e:    4630        0F      MOV      r0,r6
        0x000027a0:    9400        ..      STR      r4,[sp,#0]
        0x000027a2:    f7fff83b    ..;.    BL       LCD_DrawLine ; 0x181c
        0x000027a6:    2362        b#      MOVS     r3,#0x62
        0x000027a8:    22ef        ."      MOVS     r2,#0xef
        0x000027aa:    4619        .F      MOV      r1,r3
        0x000027ac:    4630        0F      MOV      r0,r6
        0x000027ae:    9400        ..      STR      r4,[sp,#0]
        0x000027b0:    f7fff834    ..4.    BL       LCD_DrawLine ; 0x181c
        0x000027b4:    22ef        ."      MOVS     r2,#0xef
        0x000027b6:    2346        F#      MOVS     r3,#0x46
        0x000027b8:    2162        b!      MOVS     r1,#0x62
        0x000027ba:    4610        .F      MOV      r0,r2
        0x000027bc:    9400        ..      STR      r4,[sp,#0]
        0x000027be:    f7fff82d    ..-.    BL       LCD_DrawLine ; 0x181c
        0x000027c2:    26ff        .&      MOVS     r6,#0xff
        0x000027c4:    2346        F#      MOVS     r3,#0x46
        0x000027c6:    360a        .6      ADDS     r6,r6,#0xa
        0x000027c8:    4632        2F      MOV      r2,r6
        0x000027ca:    4619        .F      MOV      r1,r3
        0x000027cc:    20ef        .       MOVS     r0,#0xef
        0x000027ce:    9400        ..      STR      r4,[sp,#0]
        0x000027d0:    f7fff824    ..$.    BL       LCD_DrawLine ; 0x181c
        0x000027d4:    2373        s#      MOVS     r3,#0x73
        0x000027d6:    4632        2F      MOV      r2,r6
        0x000027d8:    2146        F!      MOVS     r1,#0x46
        0x000027da:    4630        0F      MOV      r0,r6
        0x000027dc:    9400        ..      STR      r4,[sp,#0]
        0x000027de:    f7fff81d    ....    BL       LCD_DrawLine ; 0x181c
        0x000027e2:    2373        s#      MOVS     r3,#0x73
        0x000027e4:    463a        :F      MOV      r2,r7
        0x000027e6:    4619        .F      MOV      r1,r3
        0x000027e8:    4630        0F      MOV      r0,r6
        0x000027ea:    9400        ..      STR      r4,[sp,#0]
        0x000027ec:    f7fff816    ....    BL       LCD_DrawLine ; 0x181c
        0x000027f0:    2618        .&      MOVS     r6,#0x18
        0x000027f2:    2300        .#      MOVS     r3,#0
        0x000027f4:    a20a        ..      ADR      r2,{pc}+0x2c ; 0x2820
        0x000027f6:    2196        .!      MOVS     r1,#0x96
        0x000027f8:    2014        .       MOVS     r0,#0x14
        0x000027fa:    9601        ..      STR      r6,[sp,#4]
        0x000027fc:    9500        ..      STR      r5,[sp,#0]
        0x000027fe:    9402        ..      STR      r4,[sp,#8]
        0x00002800:    f7fffb14    ....    BL       LCD_ShowString ; 0x1e2c
        0x00002804:    2300        .#      MOVS     r3,#0
        0x00002806:    a207        ..      ADR      r2,{pc}+0x1e ; 0x2824
        0x00002808:    21c8        .!      MOVS     r1,#0xc8
        0x0000280a:    2014        .       MOVS     r0,#0x14
        0x0000280c:    9601        ..      STR      r6,[sp,#4]
        0x0000280e:    9500        ..      STR      r5,[sp,#0]
        0x00002810:    9402        ..      STR      r4,[sp,#8]
        0x00002812:    f7fffb0b    ....    BL       LCD_ShowString ; 0x1e2c
        0x00002816:    bdfe        ..      POP      {r1-r7,pc}
    $d
        0x00002818:    0000ffff    ....    DCD    65535
        0x0000281c:    0000a651    Q...    DCD    42577
        0x00002820:    00003a58    X:..    DCD    14936
        0x00002824:    00003a59    Y:..    DCD    14937
    $t
    i.Standby
    Standby
        0x00002828:    b500        ..      PUSH     {lr}
        0x0000282a:    2101        .!      MOVS     r1,#1
        0x0000282c:    200c        .       MOVS     r0,#0xc
        0x0000282e:    f001f99f    ....    BL       nixie_display_num ; 0x3b70
        0x00002832:    2102        .!      MOVS     r1,#2
        0x00002834:    200c        .       MOVS     r0,#0xc
        0x00002836:    f001f99b    ....    BL       nixie_display_num ; 0x3b70
        0x0000283a:    2103        .!      MOVS     r1,#3
        0x0000283c:    200f        .       MOVS     r0,#0xf
        0x0000283e:    f001f997    ....    BL       nixie_display_num ; 0x3b70
        0x00002842:    2104        .!      MOVS     r1,#4
        0x00002844:    200f        .       MOVS     r0,#0xf
        0x00002846:    f001f993    ....    BL       nixie_display_num ; 0x3b70
        0x0000284a:    bd00        ..      POP      {pc}
    i.StoreFM_Display
    StoreFM_Display
        0x0000284c:    b5fe        ..      PUSH     {r1-r7,lr}
        0x0000284e:    4c88        .L      LDR      r4,[pc,#544] ; [0x2a70] = 0xffff
        0x00002850:    4620         F      MOV      r0,r4
        0x00002852:    f7feffc1    ....    BL       LCD_Clear ; 0x17d8
        0x00002856:    4886        .H      LDR      r0,[pc,#536] ; [0x2a70] = 0xffff
        0x00002858:    22ff        ."      MOVS     r2,#0xff
        0x0000285a:    381f        .8      SUBS     r0,r0,#0x1f
        0x0000285c:    9000        ..      STR      r0,[sp,#0]
        0x0000285e:    2332        2#      MOVS     r3,#0x32
        0x00002860:    322d        -2      ADDS     r2,r2,#0x2d
        0x00002862:    210a        .!      MOVS     r1,#0xa
        0x00002864:    2014        .       MOVS     r0,#0x14
        0x00002866:    f7fff85a    ..Z.    BL       LCD_Fill ; 0x191e
        0x0000286a:    2001        .       MOVS     r0,#1
        0x0000286c:    2518        .%      MOVS     r5,#0x18
        0x0000286e:    9002        ..      STR      r0,[sp,#8]
        0x00002870:    2300        .#      MOVS     r3,#0
        0x00002872:    a280        ..      ADR      r2,{pc}+0x202 ; 0x2a74
        0x00002874:    2114        .!      MOVS     r1,#0x14
        0x00002876:    9501        ..      STR      r5,[sp,#4]
        0x00002878:    9400        ..      STR      r4,[sp,#0]
        0x0000287a:    2050        P       MOVS     r0,#0x50
        0x0000287c:    f7fffad6    ....    BL       LCD_ShowString ; 0x1e2c
        0x00002880:    2600        .&      MOVS     r6,#0
        0x00002882:    4f80        .O      LDR      r7,[pc,#512] ; [0x2a84] = 0x20000038
        0x00002884:    9600        ..      STR      r6,[sp,#0]
        0x00002886:    9502        ..      STR      r5,[sp,#8]
        0x00002888:    9401        ..      STR      r4,[sp,#4]
        0x0000288a:    8838        8.      LDRH     r0,[r7,#0]
        0x0000288c:    2304        .#      MOVS     r3,#4
        0x0000288e:    b282        ..      UXTH     r2,r0
        0x00002890:    2132        2!      MOVS     r1,#0x32
        0x00002892:    200a        .       MOVS     r0,#0xa
        0x00002894:    f7fffa86    ....    BL       LCD_ShowIntNum ; 0x1da4
        0x00002898:    9600        ..      STR      r6,[sp,#0]
        0x0000289a:    9502        ..      STR      r5,[sp,#8]
        0x0000289c:    9401        ..      STR      r4,[sp,#4]
        0x0000289e:    88b8        ..      LDRH     r0,[r7,#4]
        0x000028a0:    2304        .#      MOVS     r3,#4
        0x000028a2:    b282        ..      UXTH     r2,r0
        0x000028a4:    2132        2!      MOVS     r1,#0x32
        0x000028a6:    203c        <       MOVS     r0,#0x3c
        0x000028a8:    f7fffa7c    ..|.    BL       LCD_ShowIntNum ; 0x1da4
        0x000028ac:    9600        ..      STR      r6,[sp,#0]
        0x000028ae:    9502        ..      STR      r5,[sp,#8]
        0x000028b0:    9401        ..      STR      r4,[sp,#4]
        0x000028b2:    8938        8.      LDRH     r0,[r7,#8]
        0x000028b4:    2304        .#      MOVS     r3,#4
        0x000028b6:    b282        ..      UXTH     r2,r0
        0x000028b8:    2132        2!      MOVS     r1,#0x32
        0x000028ba:    206e        n       MOVS     r0,#0x6e
        0x000028bc:    f7fffa72    ..r.    BL       LCD_ShowIntNum ; 0x1da4
        0x000028c0:    9600        ..      STR      r6,[sp,#0]
        0x000028c2:    9502        ..      STR      r5,[sp,#8]
        0x000028c4:    9401        ..      STR      r4,[sp,#4]
        0x000028c6:    89b8        ..      LDRH     r0,[r7,#0xc]
        0x000028c8:    2304        .#      MOVS     r3,#4
        0x000028ca:    b282        ..      UXTH     r2,r0
        0x000028cc:    2132        2!      MOVS     r1,#0x32
        0x000028ce:    20a0        .       MOVS     r0,#0xa0
        0x000028d0:    f7fffa68    ..h.    BL       LCD_ShowIntNum ; 0x1da4
        0x000028d4:    9600        ..      STR      r6,[sp,#0]
        0x000028d6:    9502        ..      STR      r5,[sp,#8]
        0x000028d8:    9401        ..      STR      r4,[sp,#4]
        0x000028da:    8a38        8.      LDRH     r0,[r7,#0x10]
        0x000028dc:    2304        .#      MOVS     r3,#4
        0x000028de:    b282        ..      UXTH     r2,r0
        0x000028e0:    2132        2!      MOVS     r1,#0x32
        0x000028e2:    20d2        .       MOVS     r0,#0xd2
        0x000028e4:    f7fffa5e    ..^.    BL       LCD_ShowIntNum ; 0x1da4
        0x000028e8:    9600        ..      STR      r6,[sp,#0]
        0x000028ea:    9502        ..      STR      r5,[sp,#8]
        0x000028ec:    9401        ..      STR      r4,[sp,#4]
        0x000028ee:    8ab8        ..      LDRH     r0,[r7,#0x14]
        0x000028f0:    2304        .#      MOVS     r3,#4
        0x000028f2:    b282        ..      UXTH     r2,r0
        0x000028f4:    20ff        .       MOVS     r0,#0xff
        0x000028f6:    2132        2!      MOVS     r1,#0x32
        0x000028f8:    3005        .0      ADDS     r0,#5
        0x000028fa:    f7fffa53    ..S.    BL       LCD_ShowIntNum ; 0x1da4
        0x000028fe:    9600        ..      STR      r6,[sp,#0]
        0x00002900:    9502        ..      STR      r5,[sp,#8]
        0x00002902:    9401        ..      STR      r4,[sp,#4]
        0x00002904:    8b38        8.      LDRH     r0,[r7,#0x18]
        0x00002906:    2304        .#      MOVS     r3,#4
        0x00002908:    b282        ..      UXTH     r2,r0
        0x0000290a:    2164        d!      MOVS     r1,#0x64
        0x0000290c:    200a        .       MOVS     r0,#0xa
        0x0000290e:    f7fffa49    ..I.    BL       LCD_ShowIntNum ; 0x1da4
        0x00002912:    9600        ..      STR      r6,[sp,#0]
        0x00002914:    9502        ..      STR      r5,[sp,#8]
        0x00002916:    9401        ..      STR      r4,[sp,#4]
        0x00002918:    8bb8        ..      LDRH     r0,[r7,#0x1c]
        0x0000291a:    2304        .#      MOVS     r3,#4
        0x0000291c:    b282        ..      UXTH     r2,r0
        0x0000291e:    2164        d!      MOVS     r1,#0x64
        0x00002920:    203c        <       MOVS     r0,#0x3c
        0x00002922:    f7fffa3f    ..?.    BL       LCD_ShowIntNum ; 0x1da4
        0x00002926:    9600        ..      STR      r6,[sp,#0]
        0x00002928:    9502        ..      STR      r5,[sp,#8]
        0x0000292a:    9401        ..      STR      r4,[sp,#4]
        0x0000292c:    8c38        8.      LDRH     r0,[r7,#0x20]
        0x0000292e:    2304        .#      MOVS     r3,#4
        0x00002930:    b282        ..      UXTH     r2,r0
        0x00002932:    2164        d!      MOVS     r1,#0x64
        0x00002934:    206e        n       MOVS     r0,#0x6e
        0x00002936:    f7fffa35    ..5.    BL       LCD_ShowIntNum ; 0x1da4
        0x0000293a:    9600        ..      STR      r6,[sp,#0]
        0x0000293c:    9502        ..      STR      r5,[sp,#8]
        0x0000293e:    9401        ..      STR      r4,[sp,#4]
        0x00002940:    8cb8        ..      LDRH     r0,[r7,#0x24]
        0x00002942:    2304        .#      MOVS     r3,#4
        0x00002944:    b282        ..      UXTH     r2,r0
        0x00002946:    2164        d!      MOVS     r1,#0x64
        0x00002948:    20a0        .       MOVS     r0,#0xa0
        0x0000294a:    f7fffa2b    ..+.    BL       LCD_ShowIntNum ; 0x1da4
        0x0000294e:    9600        ..      STR      r6,[sp,#0]
        0x00002950:    9502        ..      STR      r5,[sp,#8]
        0x00002952:    9401        ..      STR      r4,[sp,#4]
        0x00002954:    8d38        8.      LDRH     r0,[r7,#0x28]
        0x00002956:    2304        .#      MOVS     r3,#4
        0x00002958:    b282        ..      UXTH     r2,r0
        0x0000295a:    2164        d!      MOVS     r1,#0x64
        0x0000295c:    20d2        .       MOVS     r0,#0xd2
        0x0000295e:    f7fffa21    ..!.    BL       LCD_ShowIntNum ; 0x1da4
        0x00002962:    9600        ..      STR      r6,[sp,#0]
        0x00002964:    9502        ..      STR      r5,[sp,#8]
        0x00002966:    9401        ..      STR      r4,[sp,#4]
        0x00002968:    8db8        ..      LDRH     r0,[r7,#0x2c]
        0x0000296a:    2304        .#      MOVS     r3,#4
        0x0000296c:    b282        ..      UXTH     r2,r0
        0x0000296e:    20ff        .       MOVS     r0,#0xff
        0x00002970:    2164        d!      MOVS     r1,#0x64
        0x00002972:    3005        .0      ADDS     r0,#5
        0x00002974:    f7fffa16    ....    BL       LCD_ShowIntNum ; 0x1da4
        0x00002978:    9600        ..      STR      r6,[sp,#0]
        0x0000297a:    9502        ..      STR      r5,[sp,#8]
        0x0000297c:    9401        ..      STR      r4,[sp,#4]
        0x0000297e:    8e38        8.      LDRH     r0,[r7,#0x30]
        0x00002980:    2304        .#      MOVS     r3,#4
        0x00002982:    b282        ..      UXTH     r2,r0
        0x00002984:    2196        .!      MOVS     r1,#0x96
        0x00002986:    200a        .       MOVS     r0,#0xa
        0x00002988:    f7fffa0c    ....    BL       LCD_ShowIntNum ; 0x1da4
        0x0000298c:    9600        ..      STR      r6,[sp,#0]
        0x0000298e:    9502        ..      STR      r5,[sp,#8]
        0x00002990:    9401        ..      STR      r4,[sp,#4]
        0x00002992:    8eb8        ..      LDRH     r0,[r7,#0x34]
        0x00002994:    2304        .#      MOVS     r3,#4
        0x00002996:    b282        ..      UXTH     r2,r0
        0x00002998:    2196        .!      MOVS     r1,#0x96
        0x0000299a:    203c        <       MOVS     r0,#0x3c
        0x0000299c:    f7fffa02    ....    BL       LCD_ShowIntNum ; 0x1da4
        0x000029a0:    9600        ..      STR      r6,[sp,#0]
        0x000029a2:    9502        ..      STR      r5,[sp,#8]
        0x000029a4:    9401        ..      STR      r4,[sp,#4]
        0x000029a6:    8f38        8.      LDRH     r0,[r7,#0x38]
        0x000029a8:    2304        .#      MOVS     r3,#4
        0x000029aa:    b282        ..      UXTH     r2,r0
        0x000029ac:    2196        .!      MOVS     r1,#0x96
        0x000029ae:    206e        n       MOVS     r0,#0x6e
        0x000029b0:    f7fff9f8    ....    BL       LCD_ShowIntNum ; 0x1da4
        0x000029b4:    9600        ..      STR      r6,[sp,#0]
        0x000029b6:    9502        ..      STR      r5,[sp,#8]
        0x000029b8:    9401        ..      STR      r4,[sp,#4]
        0x000029ba:    8fb8        ..      LDRH     r0,[r7,#0x3c]
        0x000029bc:    2304        .#      MOVS     r3,#4
        0x000029be:    b282        ..      UXTH     r2,r0
        0x000029c0:    2196        .!      MOVS     r1,#0x96
        0x000029c2:    20a0        .       MOVS     r0,#0xa0
        0x000029c4:    f7fff9ee    ....    BL       LCD_ShowIntNum ; 0x1da4
        0x000029c8:    9600        ..      STR      r6,[sp,#0]
        0x000029ca:    9502        ..      STR      r5,[sp,#8]
        0x000029cc:    9401        ..      STR      r4,[sp,#4]
        0x000029ce:    6c38        8l      LDR      r0,[r7,#0x40]
        0x000029d0:    2304        .#      MOVS     r3,#4
        0x000029d2:    b282        ..      UXTH     r2,r0
        0x000029d4:    2196        .!      MOVS     r1,#0x96
        0x000029d6:    20d2        .       MOVS     r0,#0xd2
        0x000029d8:    f7fff9e4    ....    BL       LCD_ShowIntNum ; 0x1da4
        0x000029dc:    9600        ..      STR      r6,[sp,#0]
        0x000029de:    9502        ..      STR      r5,[sp,#8]
        0x000029e0:    9401        ..      STR      r4,[sp,#4]
        0x000029e2:    6c78        xl      LDR      r0,[r7,#0x44]
        0x000029e4:    2304        .#      MOVS     r3,#4
        0x000029e6:    b282        ..      UXTH     r2,r0
        0x000029e8:    20ff        .       MOVS     r0,#0xff
        0x000029ea:    2196        .!      MOVS     r1,#0x96
        0x000029ec:    3005        .0      ADDS     r0,#5
        0x000029ee:    f7fff9d9    ....    BL       LCD_ShowIntNum ; 0x1da4
        0x000029f2:    9600        ..      STR      r6,[sp,#0]
        0x000029f4:    9502        ..      STR      r5,[sp,#8]
        0x000029f6:    9401        ..      STR      r4,[sp,#4]
        0x000029f8:    6cb8        .l      LDR      r0,[r7,#0x48]
        0x000029fa:    2304        .#      MOVS     r3,#4
        0x000029fc:    b282        ..      UXTH     r2,r0
        0x000029fe:    21c8        .!      MOVS     r1,#0xc8
        0x00002a00:    200a        .       MOVS     r0,#0xa
        0x00002a02:    f7fff9cf    ....    BL       LCD_ShowIntNum ; 0x1da4
        0x00002a06:    9600        ..      STR      r6,[sp,#0]
        0x00002a08:    9502        ..      STR      r5,[sp,#8]
        0x00002a0a:    9401        ..      STR      r4,[sp,#4]
        0x00002a0c:    6cf8        .l      LDR      r0,[r7,#0x4c]
        0x00002a0e:    2304        .#      MOVS     r3,#4
        0x00002a10:    b282        ..      UXTH     r2,r0
        0x00002a12:    21c8        .!      MOVS     r1,#0xc8
        0x00002a14:    203c        <       MOVS     r0,#0x3c
        0x00002a16:    f7fff9c5    ....    BL       LCD_ShowIntNum ; 0x1da4
        0x00002a1a:    9600        ..      STR      r6,[sp,#0]
        0x00002a1c:    9502        ..      STR      r5,[sp,#8]
        0x00002a1e:    9401        ..      STR      r4,[sp,#4]
        0x00002a20:    6d38        8m      LDR      r0,[r7,#0x50]
        0x00002a22:    2304        .#      MOVS     r3,#4
        0x00002a24:    b282        ..      UXTH     r2,r0
        0x00002a26:    21c8        .!      MOVS     r1,#0xc8
        0x00002a28:    206e        n       MOVS     r0,#0x6e
        0x00002a2a:    f7fff9bb    ....    BL       LCD_ShowIntNum ; 0x1da4
        0x00002a2e:    9600        ..      STR      r6,[sp,#0]
        0x00002a30:    9502        ..      STR      r5,[sp,#8]
        0x00002a32:    9401        ..      STR      r4,[sp,#4]
        0x00002a34:    6d78        xm      LDR      r0,[r7,#0x54]
        0x00002a36:    2304        .#      MOVS     r3,#4
        0x00002a38:    b282        ..      UXTH     r2,r0
        0x00002a3a:    21c8        .!      MOVS     r1,#0xc8
        0x00002a3c:    20a0        .       MOVS     r0,#0xa0
        0x00002a3e:    f7fff9b1    ....    BL       LCD_ShowIntNum ; 0x1da4
        0x00002a42:    9600        ..      STR      r6,[sp,#0]
        0x00002a44:    9502        ..      STR      r5,[sp,#8]
        0x00002a46:    9401        ..      STR      r4,[sp,#4]
        0x00002a48:    6db8        .m      LDR      r0,[r7,#0x58]
        0x00002a4a:    2304        .#      MOVS     r3,#4
        0x00002a4c:    b282        ..      UXTH     r2,r0
        0x00002a4e:    21c8        .!      MOVS     r1,#0xc8
        0x00002a50:    20d2        .       MOVS     r0,#0xd2
        0x00002a52:    f7fff9a7    ....    BL       LCD_ShowIntNum ; 0x1da4
        0x00002a56:    9600        ..      STR      r6,[sp,#0]
        0x00002a58:    9502        ..      STR      r5,[sp,#8]
        0x00002a5a:    9401        ..      STR      r4,[sp,#4]
        0x00002a5c:    6df8        .m      LDR      r0,[r7,#0x5c]
        0x00002a5e:    2304        .#      MOVS     r3,#4
        0x00002a60:    b282        ..      UXTH     r2,r0
        0x00002a62:    20ff        .       MOVS     r0,#0xff
        0x00002a64:    21c8        .!      MOVS     r1,#0xc8
        0x00002a66:    3005        .0      ADDS     r0,#5
        0x00002a68:    f7fff99c    ....    BL       LCD_ShowIntNum ; 0x1da4
        0x00002a6c:    bdfe        ..      POP      {r1-r7,pc}
    $d
        0x00002a6e:    0000        ..      DCW    0
        0x00002a70:    0000ffff    ....    DCD    65535
        0x00002a74:    65766153    Save    DCD    1702256979
        0x00002a78:    74532064    d St    DCD    1951604836
        0x00002a7c:    6f697461    atio    DCD    1869182049
        0x00002a80:    0000736e    ns..    DCD    29550
        0x00002a84:    20000038    8..     DCD    536870968
    $t
    i.SysTick_Handler
    SysTick_Handler
        0x00002a88:    4802        .H      LDR      r0,[pc,#8] ; [0x2a94] = 0x20000034
        0x00002a8a:    6801        .h      LDR      r1,[r0,#0]
        0x00002a8c:    1c49        I.      ADDS     r1,r1,#1
        0x00002a8e:    6001        .`      STR      r1,[r0,#0]
        0x00002a90:    4770        pG      BX       lr
    $d
        0x00002a92:    0000        ..      DCW    0
        0x00002a94:    20000034    4..     DCD    536870964
    $t
    i.SystemInit
    SystemInit
        0x00002a98:    4902        .I      LDR      r1,[pc,#8] ; [0x2aa4] = 0x20000020
        0x00002a9a:    4801        .H      LDR      r0,[pc,#4] ; [0x2aa0] = 0x16e3600
        0x00002a9c:    6008        .`      STR      r0,[r1,#0]
        0x00002a9e:    4770        pG      BX       lr
    $d
        0x00002aa0:    016e3600    .6n.    DCD    24000000
        0x00002aa4:    20000020     ..     DCD    536870944
    $t
    i.TAKE
    TAKE
        0x00002aa8:    b510        ..      PUSH     {r4,lr}
        0x00002aaa:    f7fffcb7    ....    BL       SEG_Clear_all ; 0x241c
        0x00002aae:    2101        .!      MOVS     r1,#1
        0x00002ab0:    4608        .F      MOV      r0,r1
        0x00002ab2:    f001f85d    ..].    BL       nixie_display_num ; 0x3b70
        0x00002ab6:    2102        .!      MOVS     r1,#2
        0x00002ab8:    200c        .       MOVS     r0,#0xc
        0x00002aba:    f001f859    ..Y.    BL       nixie_display_num ; 0x3b70
        0x00002abe:    2103        .!      MOVS     r1,#3
        0x00002ac0:    2000        .       MOVS     r0,#0
        0x00002ac2:    f001f855    ..U.    BL       nixie_display_num ; 0x3b70
        0x00002ac6:    2104        .!      MOVS     r1,#4
        0x00002ac8:    2000        .       MOVS     r0,#0
        0x00002aca:    f001f851    ..Q.    BL       nixie_display_num ; 0x3b70
        0x00002ace:    20ff        .       MOVS     r0,#0xff
        0x00002ad0:    30f5        .0      ADDS     r0,r0,#0xf5
        0x00002ad2:    f000fead    ....    BL       delay_ms ; 0x3830
        0x00002ad6:    4805        .H      LDR      r0,[pc,#20] ; [0x2aec] = 0x20000028
        0x00002ad8:    6800        .h      LDR      r0,[r0,#0]
        0x00002ada:    f7fefd2d    ..-.    BL       Display_FM ; 0x1538
        0x00002ade:    2318        .#      MOVS     r3,#0x18
        0x00002ae0:    a203        ..      ADR      r2,{pc}+0x10 ; 0x2af0
        0x00002ae2:    2106        .!      MOVS     r1,#6
        0x00002ae4:    2003        .       MOVS     r0,#3
        0x00002ae6:    f7fffc22    ..".    BL       OLED_ShowString ; 0x232e
        0x00002aea:    bd10        ..      POP      {r4,pc}
    $d
        0x00002aec:    20000028    (..     DCD    536870952
        0x00002af0:    656b6174    take    DCD    1701536116
        0x00002af4:    00000000    ....    DCD    0
    $t
    i.Type_NUM
    Type_NUM
        0x00002af8:    b5fe        ..      PUSH     {r1-r7,lr}
        0x00002afa:    2500        .%      MOVS     r5,#0
        0x00002afc:    2401        .$      MOVS     r4,#1
        0x00002afe:    f7fffc8d    ....    BL       SEG_Clear_all ; 0x241c
        0x00002b02:    f7fffe91    ....    BL       Standby ; 0x2828
        0x00002b06:    f7fefde7    ....    BL       GetKEYNUM ; 0x16d8
        0x00002b0a:    4606        .F      MOV      r6,r0
        0x00002b0c:    f7fffc86    ....    BL       SEG_Clear_all ; 0x241c
        0x00002b10:    4f39        9O      LDR      r7,[pc,#228] ; [0x2bf8] = 0x20000028
        0x00002b12:    2e09        ..      CMP      r6,#9
        0x00002b14:    d806        ..      BHI      0x2b24 ; Type_NUM + 44
        0x00002b16:    4635        5F      MOV      r5,r6
        0x00002b18:    4621        !F      MOV      r1,r4
        0x00002b1a:    4630        0F      MOV      r0,r6
        0x00002b1c:    f001f828    ..(.    BL       nixie_display_num ; 0x3b70
        0x00002b20:    2402        .$      MOVS     r4,#2
        0x00002b22:    e001        ..      B        0x2b28 ; Type_NUM + 48
        0x00002b24:    2e0a        ..      CMP      r6,#0xa
        0x00002b26:    d011        ..      BEQ      0x2b4c ; Type_NUM + 84
        0x00002b28:    f7fefdd6    ....    BL       GetKEYNUM ; 0x16d8
        0x00002b2c:    4606        .F      MOV      r6,r0
        0x00002b2e:    2e09        ..      CMP      r6,#9
        0x00002b30:    d80e        ..      BHI      0x2b50 ; Type_NUM + 88
        0x00002b32:    4621        !F      MOV      r1,r4
        0x00002b34:    4628        (F      MOV      r0,r5
        0x00002b36:    f001f81b    ....    BL       nixie_display_num ; 0x3b70
        0x00002b3a:    200a        .       MOVS     r0,#0xa
        0x00002b3c:    4345        EC      MULS     r5,r0,r5
        0x00002b3e:    19ad        ..      ADDS     r5,r5,r6
        0x00002b40:    1e61        a.      SUBS     r1,r4,#1
        0x00002b42:    4630        0F      MOV      r0,r6
        0x00002b44:    f001f814    ....    BL       nixie_display_num ; 0x3b70
        0x00002b48:    1c64        d.      ADDS     r4,r4,#1
        0x00002b4a:    e003        ..      B        0x2b54 ; Type_NUM + 92
        0x00002b4c:    6838        8h      LDR      r0,[r7,#0]
        0x00002b4e:    bdfe        ..      POP      {r1-r7,pc}
        0x00002b50:    2e0a        ..      CMP      r6,#0xa
        0x00002b52:    d019        ..      BEQ      0x2b88 ; Type_NUM + 144
        0x00002b54:    f7fefdc0    ....    BL       GetKEYNUM ; 0x16d8
        0x00002b58:    4606        .F      MOV      r6,r0
        0x00002b5a:    2e09        ..      CMP      r6,#9
        0x00002b5c:    d816        ..      BHI      0x2b8c ; Type_NUM + 148
        0x00002b5e:    210a        .!      MOVS     r1,#0xa
        0x00002b60:    4628        (F      MOV      r0,r5
        0x00002b62:    f7fdfbf9    ....    BL       __aeabi_uidiv ; 0x358
        0x00002b66:    9101        ..      STR      r1,[sp,#4]
        0x00002b68:    4621        !F      MOV      r1,r4
        0x00002b6a:    f001f801    ....    BL       nixie_display_num ; 0x3b70
        0x00002b6e:    1e61        a.      SUBS     r1,r4,#1
        0x00002b70:    9801        ..      LDR      r0,[sp,#4]
        0x00002b72:    f000fffd    ....    BL       nixie_display_num ; 0x3b70
        0x00002b76:    200a        .       MOVS     r0,#0xa
        0x00002b78:    4345        EC      MULS     r5,r0,r5
        0x00002b7a:    19ad        ..      ADDS     r5,r5,r6
        0x00002b7c:    1ea1        ..      SUBS     r1,r4,#2
        0x00002b7e:    4630        0F      MOV      r0,r6
        0x00002b80:    f000fff6    ....    BL       nixie_display_num ; 0x3b70
        0x00002b84:    1c64        d.      ADDS     r4,r4,#1
        0x00002b86:    e003        ..      B        0x2b90 ; Type_NUM + 152
        0x00002b88:    6838        8h      LDR      r0,[r7,#0]
        0x00002b8a:    bdfe        ..      POP      {r1-r7,pc}
        0x00002b8c:    2e0a        ..      CMP      r6,#0xa
        0x00002b8e:    d023        #.      BEQ      0x2bd8 ; Type_NUM + 224
        0x00002b90:    f7fefda2    ....    BL       GetKEYNUM ; 0x16d8
        0x00002b94:    4606        .F      MOV      r6,r0
        0x00002b96:    2e09        ..      CMP      r6,#9
        0x00002b98:    d820         .      BHI      0x2bdc ; Type_NUM + 228
        0x00002b9a:    2164        d!      MOVS     r1,#0x64
        0x00002b9c:    4628        (F      MOV      r0,r5
        0x00002b9e:    f7fdfbdb    ....    BL       __aeabi_uidiv ; 0x358
        0x00002ba2:    4621        !F      MOV      r1,r4
        0x00002ba4:    f000ffe4    ....    BL       nixie_display_num ; 0x3b70
        0x00002ba8:    210a        .!      MOVS     r1,#0xa
        0x00002baa:    4628        (F      MOV      r0,r5
        0x00002bac:    f7fdfbd4    ....    BL       __aeabi_uidiv ; 0x358
        0x00002bb0:    9100        ..      STR      r1,[sp,#0]
        0x00002bb2:    210a        .!      MOVS     r1,#0xa
        0x00002bb4:    f7fdfbd0    ....    BL       __aeabi_uidiv ; 0x358
        0x00002bb8:    4608        .F      MOV      r0,r1
        0x00002bba:    1e61        a.      SUBS     r1,r4,#1
        0x00002bbc:    f000ffd8    ....    BL       nixie_display_num ; 0x3b70
        0x00002bc0:    1ea1        ..      SUBS     r1,r4,#2
        0x00002bc2:    9800        ..      LDR      r0,[sp,#0]
        0x00002bc4:    f000ffd4    ....    BL       nixie_display_num ; 0x3b70
        0x00002bc8:    200a        .       MOVS     r0,#0xa
        0x00002bca:    4345        EC      MULS     r5,r0,r5
        0x00002bcc:    19ad        ..      ADDS     r5,r5,r6
        0x00002bce:    1ee1        ..      SUBS     r1,r4,#3
        0x00002bd0:    4630        0F      MOV      r0,r6
        0x00002bd2:    f000ffcd    ....    BL       nixie_display_num ; 0x3b70
        0x00002bd6:    e003        ..      B        0x2be0 ; Type_NUM + 232
        0x00002bd8:    6838        8h      LDR      r0,[r7,#0]
        0x00002bda:    bdfe        ..      POP      {r1-r7,pc}
        0x00002bdc:    2e0a        ..      CMP      r6,#0xa
        0x00002bde:    d005        ..      BEQ      0x2bec ; Type_NUM + 244
        0x00002be0:    f7fefd7a    ..z.    BL       GetKEYNUM ; 0x16d8
        0x00002be4:    2809        .(      CMP      r0,#9
        0x00002be6:    d803        ..      BHI      0x2bf0 ; Type_NUM + 248
        0x00002be8:    6838        8h      LDR      r0,[r7,#0]
        0x00002bea:    bdfe        ..      POP      {r1-r7,pc}
        0x00002bec:    4628        (F      MOV      r0,r5
        0x00002bee:    bdfe        ..      POP      {r1-r7,pc}
        0x00002bf0:    280a        .(      CMP      r0,#0xa
        0x00002bf2:    d1fc        ..      BNE      0x2bee ; Type_NUM + 246
        0x00002bf4:    4628        (F      MOV      r0,r5
        0x00002bf6:    bdfe        ..      POP      {r1-r7,pc}
    $d
        0x00002bf8:    20000028    (..     DCD    536870952
    $t
    i.UARTRX0_Handler
    UARTRX0_Handler
        0x00002bfc:    b5f0        ..      PUSH     {r4-r7,lr}
        0x00002bfe:    b085        ..      SUB      sp,sp,#0x14
        0x00002c00:    4f58        XO      LDR      r7,[pc,#352] ; [0x2d64] = 0x40004000
        0x00002c02:    4638        8F      MOV      r0,r7
        0x00002c04:    f7fefc60    ..`.    BL       CMSDK_uart_ClearRxIRQ ; 0x14c8
        0x00002c08:    4a57        WJ      LDR      r2,[pc,#348] ; [0x2d68] = 0xe000e180
        0x00002c0a:    210f        .!      MOVS     r1,#0xf
        0x00002c0c:    6011        .`      STR      r1,[r2,#0]
        0x00002c0e:    6838        8h      LDR      r0,[r7,#0]
        0x00002c10:    b2c1        ..      UXTB     r1,r0
        0x00002c12:    2901        .)      CMP      r1,#1
        0x00002c14:    d014        ..      BEQ      0x2c40 ; UARTRX0_Handler + 68
        0x00002c16:    2900        .)      CMP      r1,#0
        0x00002c18:    d02e        ..      BEQ      0x2c78 ; UARTRX0_Handler + 124
        0x00002c1a:    20ff        .       MOVS     r0,#0xff
        0x00002c1c:    f7fefc8c    ....    BL       Display_FM ; 0x1538
        0x00002c20:    20c8        .       MOVS     r0,#0xc8
        0x00002c22:    f000fe05    ....    BL       delay_ms ; 0x3830
        0x00002c26:    4851        QH      LDR      r0,[pc,#324] ; [0x2d6c] = 0x20000028
        0x00002c28:    6800        .h      LDR      r0,[r0,#0]
        0x00002c2a:    f7fefc85    ....    BL       Display_FM ; 0x1538
        0x00002c2e:    200a        .       MOVS     r0,#0xa
        0x00002c30:    f000fdfe    ....    BL       delay_ms ; 0x3830
        0x00002c34:    494c        LI      LDR      r1,[pc,#304] ; [0x2d68] = 0xe000e180
        0x00002c36:    200f        .       MOVS     r0,#0xf
        0x00002c38:    3980        .9      SUBS     r1,r1,#0x80
        0x00002c3a:    6008        .`      STR      r0,[r1,#0]
        0x00002c3c:    b005        ..      ADD      sp,sp,#0x14
        0x00002c3e:    bdf0        ..      POP      {r4-r7,pc}
        0x00002c40:    2001        .       MOVS     r0,#1
        0x00002c42:    0280        ..      LSLS     r0,r0,#10
        0x00002c44:    f7fefc78    ..x.    BL       Display_FM ; 0x1538
        0x00002c48:    2500        .%      MOVS     r5,#0
        0x00002c4a:    ae03        ..      ADD      r6,sp,#0xc
        0x00002c4c:    4848        HH      LDR      r0,[pc,#288] ; [0x2d70] = 0x40012000
        0x00002c4e:    6800        .h      LDR      r0,[r0,#0]
        0x00002c50:    466a        jF      MOV      r2,sp
        0x00002c52:    0e01        ..      LSRS     r1,r0,#24
        0x00002c54:    7311        .s      STRB     r1,[r2,#0xc]
        0x00002c56:    0c01        ..      LSRS     r1,r0,#16
        0x00002c58:    7351        Qs      STRB     r1,[r2,#0xd]
        0x00002c5a:    0a01        ..      LSRS     r1,r0,#8
        0x00002c5c:    7391        .s      STRB     r1,[r2,#0xe]
        0x00002c5e:    73d0        .s      STRB     r0,[r2,#0xf]
        0x00002c60:    2400        .$      MOVS     r4,#0
        0x00002c62:    5d31        1]      LDRB     r1,[r6,r4]
        0x00002c64:    4638        8F      MOV      r0,r7
        0x00002c66:    f7fefc32    ..2.    BL       CMSDK_uart_SendChar ; 0x14ce
        0x00002c6a:    1c64        d.      ADDS     r4,r4,#1
        0x00002c6c:    2c04        .,      CMP      r4,#4
        0x00002c6e:    dbf8        ..      BLT      0x2c62 ; UARTRX0_Handler + 102
        0x00002c70:    1c6d        m.      ADDS     r5,r5,#1
        0x00002c72:    2d0a        .-      CMP      r5,#0xa
        0x00002c74:    dbea        ..      BLT      0x2c4c ; UARTRX0_Handler + 80
        0x00002c76:    e7d3        ..      B        0x2c20 ; UARTRX0_Handler + 36
        0x00002c78:    4638        8F      MOV      r0,r7
        0x00002c7a:    f7fefc25    ..%.    BL       CMSDK_uart_ClearRxIRQ ; 0x14c8
        0x00002c7e:    2001        .       MOVS     r0,#1
        0x00002c80:    02c0        ..      LSLS     r0,r0,#11
        0x00002c82:    f7fefc59    ..Y.    BL       Display_FM ; 0x1538
        0x00002c86:    f7fffc45    ..E.    BL       Show_Maps ; 0x2514
        0x00002c8a:    f7fdfa71    ..q.    BL       rand ; 0x170
        0x00002c8e:    210a        .!      MOVS     r1,#0xa
        0x00002c90:    f7fdfb6c    ..l.    BL       __aeabi_idiv ; 0x36c
        0x00002c94:    4608        .F      MOV      r0,r1
        0x00002c96:    f7fdfd4b    ..K.    BL       __aeabi_i2f ; 0x730
        0x00002c9a:    4d36        6M      LDR      r5,[pc,#216] ; [0x2d74] = 0x41200000
        0x00002c9c:    4629        )F      MOV      r1,r5
        0x00002c9e:    f7fdfc35    ..5.    BL       __aeabi_fdiv ; 0x50c
        0x00002ca2:    4604        .F      MOV      r4,r0
        0x00002ca4:    f7fdfa64    ..d.    BL       rand ; 0x170
        0x00002ca8:    2164        d!      MOVS     r1,#0x64
        0x00002caa:    f7fdfb5f    .._.    BL       __aeabi_idiv ; 0x36c
        0x00002cae:    204b        K       MOVS     r0,#0x4b
        0x00002cb0:    0100        ..      LSLS     r0,r0,#4
        0x00002cb2:    1808        ..      ADDS     r0,r1,r0
        0x00002cb4:    f7fdfd3c    ..<.    BL       __aeabi_i2f ; 0x730
        0x00002cb8:    4621        !F      MOV      r1,r4
        0x00002cba:    f000ffad    ....    BL       __aeabi_fadd ; 0x3c18
        0x00002cbe:    4607        .F      MOV      r7,r0
        0x00002cc0:    f7fdfa56    ..V.    BL       rand ; 0x170
        0x00002cc4:    210a        .!      MOVS     r1,#0xa
        0x00002cc6:    f7fdfb51    ..Q.    BL       __aeabi_idiv ; 0x36c
        0x00002cca:    4608        .F      MOV      r0,r1
        0x00002ccc:    f7fdfd30    ..0.    BL       __aeabi_i2f ; 0x730
        0x00002cd0:    4629        )F      MOV      r1,r5
        0x00002cd2:    f7fdfc1b    ....    BL       __aeabi_fdiv ; 0x50c
        0x00002cd6:    4604        .F      MOV      r4,r0
        0x00002cd8:    f7fdfa4a    ..J.    BL       rand ; 0x170
        0x00002cdc:    2132        2!      MOVS     r1,#0x32
        0x00002cde:    f7fdfb45    ..E.    BL       __aeabi_idiv ; 0x36c
        0x00002ce2:    4608        .F      MOV      r0,r1
        0x00002ce4:    30c8        .0      ADDS     r0,r0,#0xc8
        0x00002ce6:    f7fdfd23    ..#.    BL       __aeabi_i2f ; 0x730
        0x00002cea:    4621        !F      MOV      r1,r4
        0x00002cec:    f000ff94    ....    BL       __aeabi_fadd ; 0x3c18
        0x00002cf0:    4605        .F      MOV      r5,r0
        0x00002cf2:    2000        .       MOVS     r0,#0
        0x00002cf4:    2418        .$      MOVS     r4,#0x18
        0x00002cf6:    4e20         N      LDR      r6,[pc,#128] ; [0x2d78] = 0xffff
        0x00002cf8:    9000        ..      STR      r0,[sp,#0]
        0x00002cfa:    2305        .#      MOVS     r3,#5
        0x00002cfc:    463a        :F      MOV      r2,r7
        0x00002cfe:    2196        .!      MOVS     r1,#0x96
        0x00002d00:    9601        ..      STR      r6,[sp,#4]
        0x00002d02:    9402        ..      STR      r4,[sp,#8]
        0x00002d04:    2064        d       MOVS     r0,#0x64
        0x00002d06:    f7fff801    ....    BL       LCD_ShowFloatNum1 ; 0x1d0c
        0x00002d0a:    2000        .       MOVS     r0,#0
        0x00002d0c:    9000        ..      STR      r0,[sp,#0]
        0x00002d0e:    2304        .#      MOVS     r3,#4
        0x00002d10:    462a        *F      MOV      r2,r5
        0x00002d12:    21c8        .!      MOVS     r1,#0xc8
        0x00002d14:    9601        ..      STR      r6,[sp,#4]
        0x00002d16:    9402        ..      STR      r4,[sp,#8]
        0x00002d18:    2064        d       MOVS     r0,#0x64
        0x00002d1a:    f7fefff7    ....    BL       LCD_ShowFloatNum1 ; 0x1d0c
        0x00002d1e:    4c17        .L      LDR      r4,[pc,#92] ; [0x2d7c] = 0x20000000
        0x00002d20:    4b17        .K      LDR      r3,[pc,#92] ; [0x2d80] = 0xa651
        0x00002d22:    8aa0        ..      LDRH     r0,[r4,#0x14]
        0x00002d24:    2202        ."      MOVS     r2,#2
        0x00002d26:    b281        ..      UXTH     r1,r0
        0x00002d28:    8a20         .      LDRH     r0,[r4,#0x10]
        0x00002d2a:    b280        ..      UXTH     r0,r0
        0x00002d2c:    f7fefc4e    ..N.    BL       Draw_Circle ; 0x15cc
        0x00002d30:    4e14        .N      LDR      r6,[pc,#80] ; [0x2d84] = 0x40a00000
        0x00002d32:    4638        8F      MOV      r0,r7
        0x00002d34:    4631        1F      MOV      r1,r6
        0x00002d36:    f7fdfbe9    ....    BL       __aeabi_fdiv ; 0x50c
        0x00002d3a:    f7fdfc97    ....    BL       __aeabi_f2iz ; 0x66c
        0x00002d3e:    3014        .0      ADDS     r0,r0,#0x14
        0x00002d40:    4607        .F      MOV      r7,r0
        0x00002d42:    6120         a      STR      r0,[r4,#0x10]
        0x00002d44:    4631        1F      MOV      r1,r6
        0x00002d46:    4628        (F      MOV      r0,r5
        0x00002d48:    f7fdfbe0    ....    BL       __aeabi_fdiv ; 0x50c
        0x00002d4c:    f7fdfc8e    ....    BL       __aeabi_f2iz ; 0x66c
        0x00002d50:    3014        .0      ADDS     r0,r0,#0x14
        0x00002d52:    6160        `a      STR      r0,[r4,#0x14]
        0x00002d54:    b281        ..      UXTH     r1,r0
        0x00002d56:    231f        .#      MOVS     r3,#0x1f
        0x00002d58:    b2b8        ..      UXTH     r0,r7
        0x00002d5a:    02db        ..      LSLS     r3,r3,#11
        0x00002d5c:    2202        ."      MOVS     r2,#2
        0x00002d5e:    f7fefc35    ..5.    BL       Draw_Circle ; 0x15cc
        0x00002d62:    e75d        ].      B        0x2c20 ; UARTRX0_Handler + 36
    $d
        0x00002d64:    40004000    .@.@    DCD    1073758208
        0x00002d68:    e000e180    ....    DCD    3758154112
        0x00002d6c:    20000028    (..     DCD    536870952
        0x00002d70:    40012000    . .@    DCD    1073815552
        0x00002d74:    41200000    .. A    DCD    1092616192
        0x00002d78:    0000ffff    ....    DCD    65535
        0x00002d7c:    20000000    ...     DCD    536870912
        0x00002d80:    0000a651    Q...    DCD    42577
        0x00002d84:    40a00000    ...@    DCD    1084227584
    $t
    i.UARTRX1_Handler
    UARTRX1_Handler
        0x00002d88:    b5f8        ..      PUSH     {r3-r7,lr}
        0x00002d8a:    4cfa        .L      LDR      r4,[pc,#1000] ; [0x3174] = 0x40005000
        0x00002d8c:    4620         F      MOV      r0,r4
        0x00002d8e:    f7fefb9b    ....    BL       CMSDK_uart_ClearRxIRQ ; 0x14c8
        0x00002d92:    49f9        .I      LDR      r1,[pc,#996] ; [0x3178] = 0xe000e180
        0x00002d94:    200f        .       MOVS     r0,#0xf
        0x00002d96:    6008        .`      STR      r0,[r1,#0]
        0x00002d98:    6820         h      LDR      r0,[r4,#0]
        0x00002d9a:    b2c0        ..      UXTB     r0,r0
        0x00002d9c:    4cf7        .L      LDR      r4,[pc,#988] ; [0x317c] = 0x20000028
        0x00002d9e:    2835        5(      CMP      r0,#0x35
        0x00002da0:    d040        @.      BEQ      0x2e24 ; UARTRX1_Handler + 156
        0x00002da2:    2834        4(      CMP      r0,#0x34
        0x00002da4:    d059        Y.      BEQ      0x2e5a ; UARTRX1_Handler + 210
        0x00002da6:    2700        .'      MOVS     r7,#0
        0x00002da8:    4ef5        .N      LDR      r6,[pc,#980] ; [0x3180] = 0x20000000
        0x00002daa:    2836        6(      CMP      r0,#0x36
        0x00002dac:    d07a        z.      BEQ      0x2ea4 ; UARTRX1_Handler + 284
        0x00002dae:    2837        7(      CMP      r0,#0x37
        0x00002db0:    d06f        o.      BEQ      0x2e92 ; UARTRX1_Handler + 266
        0x00002db2:    2801        .(      CMP      r0,#1
        0x00002db4:    d06e        n.      BEQ      0x2e94 ; UARTRX1_Handler + 268
        0x00002db6:    2802        .(      CMP      r0,#2
        0x00002db8:    d06d        m.      BEQ      0x2e96 ; UARTRX1_Handler + 270
        0x00002dba:    2803        .(      CMP      r0,#3
        0x00002dbc:    d06c        l.      BEQ      0x2e98 ; UARTRX1_Handler + 272
        0x00002dbe:    2804        .(      CMP      r0,#4
        0x00002dc0:    d06b        k.      BEQ      0x2e9a ; UARTRX1_Handler + 274
        0x00002dc2:    2805        .(      CMP      r0,#5
        0x00002dc4:    d06a        j.      BEQ      0x2e9c ; UARTRX1_Handler + 276
        0x00002dc6:    2806        .(      CMP      r0,#6
        0x00002dc8:    d069        i.      BEQ      0x2e9e ; UARTRX1_Handler + 278
        0x00002dca:    2807        .(      CMP      r0,#7
        0x00002dcc:    d068        h.      BEQ      0x2ea0 ; UARTRX1_Handler + 280
        0x00002dce:    2808        .(      CMP      r0,#8
        0x00002dd0:    d067        g.      BEQ      0x2ea2 ; UARTRX1_Handler + 282
        0x00002dd2:    2809        .(      CMP      r0,#9
        0x00002dd4:    d07d        }.      BEQ      0x2ed2 ; UARTRX1_Handler + 330
        0x00002dd6:    280a        .(      CMP      r0,#0xa
        0x00002dd8:    d07c        |.      BEQ      0x2ed4 ; UARTRX1_Handler + 332
        0x00002dda:    280b        .(      CMP      r0,#0xb
        0x00002ddc:    d07b        {.      BEQ      0x2ed6 ; UARTRX1_Handler + 334
        0x00002dde:    280c        .(      CMP      r0,#0xc
        0x00002de0:    d07a        z.      BEQ      0x2ed8 ; UARTRX1_Handler + 336
        0x00002de2:    280d        .(      CMP      r0,#0xd
        0x00002de4:    d079        y.      BEQ      0x2eda ; UARTRX1_Handler + 338
        0x00002de6:    280e        .(      CMP      r0,#0xe
        0x00002de8:    d078        x.      BEQ      0x2edc ; UARTRX1_Handler + 340
        0x00002dea:    280f        .(      CMP      r0,#0xf
        0x00002dec:    d077        w.      BEQ      0x2ede ; UARTRX1_Handler + 342
        0x00002dee:    2810        .(      CMP      r0,#0x10
        0x00002df0:    d076        v.      BEQ      0x2ee0 ; UARTRX1_Handler + 344
        0x00002df2:    2811        .(      CMP      r0,#0x11
        0x00002df4:    d075        u.      BEQ      0x2ee2 ; UARTRX1_Handler + 346
        0x00002df6:    2812        .(      CMP      r0,#0x12
        0x00002df8:    d074        t.      BEQ      0x2ee4 ; UARTRX1_Handler + 348
        0x00002dfa:    2813        .(      CMP      r0,#0x13
        0x00002dfc:    d073        s.      BEQ      0x2ee6 ; UARTRX1_Handler + 350
        0x00002dfe:    2814        .(      CMP      r0,#0x14
        0x00002e00:    d072        r.      BEQ      0x2ee8 ; UARTRX1_Handler + 352
        0x00002e02:    2815        .(      CMP      r0,#0x15
        0x00002e04:    d071        q.      BEQ      0x2eea ; UARTRX1_Handler + 354
        0x00002e06:    2816        .(      CMP      r0,#0x16
        0x00002e08:    d070        p.      BEQ      0x2eec ; UARTRX1_Handler + 356
        0x00002e0a:    2817        .(      CMP      r0,#0x17
        0x00002e0c:    d06f        o.      BEQ      0x2eee ; UARTRX1_Handler + 358
        0x00002e0e:    2818        .(      CMP      r0,#0x18
        0x00002e10:    d06e        n.      BEQ      0x2ef0 ; UARTRX1_Handler + 360
        0x00002e12:    2819        .(      CMP      r0,#0x19
        0x00002e14:    d06d        m.      BEQ      0x2ef2 ; UARTRX1_Handler + 362
        0x00002e16:    281a        .(      CMP      r0,#0x1a
        0x00002e18:    d06c        l.      BEQ      0x2ef4 ; UARTRX1_Handler + 364
        0x00002e1a:    2838        8(      CMP      r0,#0x38
        0x00002e1c:    d06b        k.      BEQ      0x2ef6 ; UARTRX1_Handler + 366
        0x00002e1e:    2839        9(      CMP      r0,#0x39
        0x00002e20:    d06a        j.      BEQ      0x2ef8 ; UARTRX1_Handler + 368
        0x00002e22:    e205        ..      B        0x3230 ; UARTRX1_Handler + 1192
        0x00002e24:    6820         h      LDR      r0,[r4,#0]
        0x00002e26:    1c40        @.      ADDS     r0,r0,#1
        0x00002e28:    6020         `      STR      r0,[r4,#0]
        0x00002e2a:    f7fefb85    ....    BL       Display_FM ; 0x1538
        0x00002e2e:    6820         h      LDR      r0,[r4,#0]
        0x00002e30:    f7fefc22    ..".    BL       FM_Select ; 0x1678
        0x00002e34:    6820         h      LDR      r0,[r4,#0]
        0x00002e36:    f7fff999    ....    BL       OLED_SHOW_FM ; 0x216c
        0x00002e3a:    6820         h      LDR      r0,[r4,#0]
        0x00002e3c:    f7fefb0e    ....    BL       APP_Display ; 0x145c
        0x00002e40:    200a        .       MOVS     r0,#0xa
        0x00002e42:    f000fcf5    ....    BL       delay_ms ; 0x3830
        0x00002e46:    6820         h      LDR      r0,[r4,#0]
        0x00002e48:    f7fefb08    ....    BL       APP_Display ; 0x145c
        0x00002e4c:    200a        .       MOVS     r0,#0xa
        0x00002e4e:    f000fcef    ....    BL       delay_ms ; 0x3830
        0x00002e52:    6820         h      LDR      r0,[r4,#0]
        0x00002e54:    f7fefb02    ....    BL       APP_Display ; 0x145c
        0x00002e58:    e7e3        ..      B        0x2e22 ; UARTRX1_Handler + 154
        0x00002e5a:    6820         h      LDR      r0,[r4,#0]
        0x00002e5c:    1e40        @.      SUBS     r0,r0,#1
        0x00002e5e:    6020         `      STR      r0,[r4,#0]
        0x00002e60:    f7fefb6a    ..j.    BL       Display_FM ; 0x1538
        0x00002e64:    6820         h      LDR      r0,[r4,#0]
        0x00002e66:    f7fefc07    ....    BL       FM_Select ; 0x1678
        0x00002e6a:    6820         h      LDR      r0,[r4,#0]
        0x00002e6c:    f7fff97e    ..~.    BL       OLED_SHOW_FM ; 0x216c
        0x00002e70:    6820         h      LDR      r0,[r4,#0]
        0x00002e72:    f7fefaf3    ....    BL       APP_Display ; 0x145c
        0x00002e76:    200a        .       MOVS     r0,#0xa
        0x00002e78:    f000fcda    ....    BL       delay_ms ; 0x3830
        0x00002e7c:    6820         h      LDR      r0,[r4,#0]
        0x00002e7e:    f7fefaed    ....    BL       APP_Display ; 0x145c
        0x00002e82:    200a        .       MOVS     r0,#0xa
        0x00002e84:    f000fcd4    ....    BL       delay_ms ; 0x3830
        0x00002e88:    6820         h      LDR      r0,[r4,#0]
        0x00002e8a:    f7fefae7    ....    BL       APP_Display ; 0x145c
        0x00002e8e:    e7c8        ..      B        0x2e22 ; UARTRX1_Handler + 154
        0x00002e90:    e008        ..      B        0x2ea4 ; UARTRX1_Handler + 284
        0x00002e92:    e064        d.      B        0x2f5e ; UARTRX1_Handler + 470
        0x00002e94:    e07e        ~.      B        0x2f94 ; UARTRX1_Handler + 524
        0x00002e96:    e09b        ..      B        0x2fd0 ; UARTRX1_Handler + 584
        0x00002e98:    e0b8        ..      B        0x300c ; UARTRX1_Handler + 644
        0x00002e9a:    e0d5        ..      B        0x3048 ; UARTRX1_Handler + 704
        0x00002e9c:    e0f2        ..      B        0x3084 ; UARTRX1_Handler + 764
        0x00002e9e:    e10f        ..      B        0x30c0 ; UARTRX1_Handler + 824
        0x00002ea0:    e12c        ,.      B        0x30fc ; UARTRX1_Handler + 884
        0x00002ea2:    e149        I.      B        0x3138 ; UARTRX1_Handler + 944
        0x00002ea4:    8870        p.      LDRH     r0,[r6,#2]
        0x00002ea6:    2801        .(      CMP      r0,#1
        0x00002ea8:    d002        ..      BEQ      0x2eb0 ; UARTRX1_Handler + 296
        0x00002eaa:    2800        .(      CMP      r0,#0
        0x00002eac:    d031        1.      BEQ      0x2f12 ; UARTRX1_Handler + 394
        0x00002eae:    e7b8        ..      B        0x2e22 ; UARTRX1_Handler + 154
        0x00002eb0:    2000        .       MOVS     r0,#0
        0x00002eb2:    f7fffabd    ....    BL       START_AND_STOP ; 0x2430
        0x00002eb6:    8077        w.      STRH     r7,[r6,#2]
        0x00002eb8:    f7fffadc    ....    BL       STOP ; 0x2474
        0x00002ebc:    2318        .#      MOVS     r3,#0x18
        0x00002ebe:    a2b1        ..      ADR      r2,{pc}+0x2c6 ; 0x3184
        0x00002ec0:    2106        .!      MOVS     r1,#6
        0x00002ec2:    2026        &       MOVS     r0,#0x26
        0x00002ec4:    f7fffa33    ..3.    BL       OLED_ShowString ; 0x232e
        0x00002ec8:    6820         h      LDR      r0,[r4,#0]
        0x00002eca:    f7fefac7    ....    BL       APP_Display ; 0x145c
        0x00002ece:    200a        .       MOVS     r0,#0xa
        0x00002ed0:    e013        ..      B        0x2efa ; UARTRX1_Handler + 370
        0x00002ed2:    e171        q.      B        0x31b8 ; UARTRX1_Handler + 1072
        0x00002ed4:    e18e        ..      B        0x31f4 ; UARTRX1_Handler + 1132
        0x00002ed6:    e1ac        ..      B        0x3232 ; UARTRX1_Handler + 1194
        0x00002ed8:    e1ca        ..      B        0x3270 ; UARTRX1_Handler + 1256
        0x00002eda:    e1e8        ..      B        0x32ae ; UARTRX1_Handler + 1318
        0x00002edc:    e206        ..      B        0x32ec ; UARTRX1_Handler + 1380
        0x00002ede:    e224        $.      B        0x332a ; UARTRX1_Handler + 1442
        0x00002ee0:    e242        B.      B        0x3368 ; UARTRX1_Handler + 1504
        0x00002ee2:    e260        `.      B        0x33a6 ; UARTRX1_Handler + 1566
        0x00002ee4:    e27e        ~.      B        0x33e4 ; UARTRX1_Handler + 1628
        0x00002ee6:    e29c        ..      B        0x3422 ; UARTRX1_Handler + 1690
        0x00002ee8:    e2ba        ..      B        0x3460 ; UARTRX1_Handler + 1752
        0x00002eea:    e2d8        ..      B        0x349e ; UARTRX1_Handler + 1814
        0x00002eec:    e2f6        ..      B        0x34dc ; UARTRX1_Handler + 1876
        0x00002eee:    e314        ..      B        0x351a ; UARTRX1_Handler + 1938
        0x00002ef0:    e332        2.      B        0x3558 ; UARTRX1_Handler + 2000
        0x00002ef2:    e350        P.      B        0x3596 ; UARTRX1_Handler + 2062
        0x00002ef4:    e372        r.      B        0x35dc ; UARTRX1_Handler + 2132
        0x00002ef6:    e38f        ..      B        0x3618 ; UARTRX1_Handler + 2192
        0x00002ef8:    e3e8        ..      B        0x36cc ; UARTRX1_Handler + 2372
        0x00002efa:    f000fc99    ....    BL       delay_ms ; 0x3830
        0x00002efe:    6820         h      LDR      r0,[r4,#0]
        0x00002f00:    f7fefaac    ....    BL       APP_Display ; 0x145c
        0x00002f04:    200a        .       MOVS     r0,#0xa
        0x00002f06:    f000fc93    ....    BL       delay_ms ; 0x3830
        0x00002f0a:    6820         h      LDR      r0,[r4,#0]
        0x00002f0c:    f7fefaa6    ....    BL       APP_Display ; 0x145c
        0x00002f10:    e3eb        ..      B        0x36ea ; UARTRX1_Handler + 2402
        0x00002f12:    7830        0x      LDRB     r0,[r6,#0]
        0x00002f14:    f7fffa8c    ....    BL       START_AND_STOP ; 0x2430
        0x00002f18:    2001        .       MOVS     r0,#1
        0x00002f1a:    8070        p.      STRH     r0,[r6,#2]
        0x00002f1c:    6820         h      LDR      r0,[r4,#0]
        0x00002f1e:    f7fefb0b    ....    BL       Display_FM ; 0x1538
        0x00002f22:    f7fff847    ..G.    BL       OLED_Clear ; 0x1fb4
        0x00002f26:    6820         h      LDR      r0,[r4,#0]
        0x00002f28:    f7fff920    .. .    BL       OLED_SHOW_FM ; 0x216c
        0x00002f2c:    4897        .H      LDR      r0,[pc,#604] ; [0x318c] = 0x3d9
        0x00002f2e:    f7fff945    ..E.    BL       OLED_SHOW_QN ; 0x21bc
        0x00002f32:    2318        .#      MOVS     r3,#0x18
        0x00002f34:    a296        ..      ADR      r2,{pc}+0x25c ; 0x3190
        0x00002f36:    2100        .!      MOVS     r1,#0
        0x00002f38:    202d        -       MOVS     r0,#0x2d
        0x00002f3a:    f7fff9f8    ....    BL       OLED_ShowString ; 0x232e
        0x00002f3e:    6820         h      LDR      r0,[r4,#0]
        0x00002f40:    f7fefa8c    ....    BL       APP_Display ; 0x145c
        0x00002f44:    200a        .       MOVS     r0,#0xa
        0x00002f46:    f000fc73    ..s.    BL       delay_ms ; 0x3830
        0x00002f4a:    6820         h      LDR      r0,[r4,#0]
        0x00002f4c:    f7fefa86    ....    BL       APP_Display ; 0x145c
        0x00002f50:    200a        .       MOVS     r0,#0xa
        0x00002f52:    f000fc6d    ..m.    BL       delay_ms ; 0x3830
        0x00002f56:    6820         h      LDR      r0,[r4,#0]
        0x00002f58:    f7fefa80    ....    BL       APP_Display ; 0x145c
        0x00002f5c:    e3c5        ..      B        0x36ea ; UARTRX1_Handler + 2402
        0x00002f5e:    f7fffda3    ....    BL       TAKE ; 0x2aa8
        0x00002f62:    6820         h      LDR      r0,[r4,#0]
        0x00002f64:    f7fefb88    ....    BL       FM_Select ; 0x1678
        0x00002f68:    6820         h      LDR      r0,[r4,#0]
        0x00002f6a:    f7fefae5    ....    BL       Display_FM ; 0x1538
        0x00002f6e:    6820         h      LDR      r0,[r4,#0]
        0x00002f70:    f7fff8fc    ....    BL       OLED_SHOW_FM ; 0x216c
        0x00002f74:    6820         h      LDR      r0,[r4,#0]
        0x00002f76:    f7fefa71    ..q.    BL       APP_Display ; 0x145c
        0x00002f7a:    200a        .       MOVS     r0,#0xa
        0x00002f7c:    f000fc58    ..X.    BL       delay_ms ; 0x3830
        0x00002f80:    6820         h      LDR      r0,[r4,#0]
        0x00002f82:    f7fefa6b    ..k.    BL       APP_Display ; 0x145c
        0x00002f86:    200a        .       MOVS     r0,#0xa
        0x00002f88:    f000fc52    ..R.    BL       delay_ms ; 0x3830
        0x00002f8c:    6820         h      LDR      r0,[r4,#0]
        0x00002f8e:    f7fefa65    ..e.    BL       APP_Display ; 0x145c
        0x00002f92:    e3aa        ..      B        0x36ea ; UARTRX1_Handler + 2402
        0x00002f94:    f7fffd88    ....    BL       TAKE ; 0x2aa8
        0x00002f98:    487c        |H      LDR      r0,[pc,#496] ; [0x318c] = 0x3d9
        0x00002f9a:    3868        h8      SUBS     r0,r0,#0x68
        0x00002f9c:    6020         `      STR      r0,[r4,#0]
        0x00002f9e:    f7fefb6b    ..k.    BL       FM_Select ; 0x1678
        0x00002fa2:    6820         h      LDR      r0,[r4,#0]
        0x00002fa4:    f7fefac8    ....    BL       Display_FM ; 0x1538
        0x00002fa8:    2318        .#      MOVS     r3,#0x18
        0x00002faa:    a27b        {.      ADR      r2,{pc}+0x1ee ; 0x3198
        0x00002fac:    2106        .!      MOVS     r1,#6
        0x00002fae:    2003        .       MOVS     r0,#3
        0x00002fb0:    f7fff9bd    ....    BL       OLED_ShowString ; 0x232e
        0x00002fb4:    20ff        .       MOVS     r0,#0xff
        0x00002fb6:    30f5        .0      ADDS     r0,r0,#0xf5
        0x00002fb8:    f000fc3a    ..:.    BL       delay_ms ; 0x3830
        0x00002fbc:    6820         h      LDR      r0,[r4,#0]
        0x00002fbe:    f7fff8d5    ....    BL       OLED_SHOW_FM ; 0x216c
        0x00002fc2:    2318        .#      MOVS     r3,#0x18
        0x00002fc4:    a278        x.      ADR      r2,{pc}+0x1e4 ; 0x31a8
        0x00002fc6:    2106        .!      MOVS     r1,#6
        0x00002fc8:    2003        .       MOVS     r0,#3
        0x00002fca:    f7fff9b0    ....    BL       OLED_ShowString ; 0x232e
        0x00002fce:    e38c        ..      B        0x36ea ; UARTRX1_Handler + 2402
        0x00002fd0:    f7fffd6a    ..j.    BL       TAKE ; 0x2aa8
        0x00002fd4:    486d        mH      LDR      r0,[pc,#436] ; [0x318c] = 0x3d9
        0x00002fd6:    3862        b8      SUBS     r0,r0,#0x62
        0x00002fd8:    6020         `      STR      r0,[r4,#0]
        0x00002fda:    f7fefb4d    ..M.    BL       FM_Select ; 0x1678
        0x00002fde:    6820         h      LDR      r0,[r4,#0]
        0x00002fe0:    f7fefaaa    ....    BL       Display_FM ; 0x1538
        0x00002fe4:    2318        .#      MOVS     r3,#0x18
        0x00002fe6:    a26c        l.      ADR      r2,{pc}+0x1b2 ; 0x3198
        0x00002fe8:    2106        .!      MOVS     r1,#6
        0x00002fea:    2003        .       MOVS     r0,#3
        0x00002fec:    f7fff99f    ....    BL       OLED_ShowString ; 0x232e
        0x00002ff0:    20ff        .       MOVS     r0,#0xff
        0x00002ff2:    30f5        .0      ADDS     r0,r0,#0xf5
        0x00002ff4:    f000fc1c    ....    BL       delay_ms ; 0x3830
        0x00002ff8:    2318        .#      MOVS     r3,#0x18
        0x00002ffa:    a26b        k.      ADR      r2,{pc}+0x1ae ; 0x31a8
        0x00002ffc:    2106        .!      MOVS     r1,#6
        0x00002ffe:    2003        .       MOVS     r0,#3
        0x00003000:    f7fff995    ....    BL       OLED_ShowString ; 0x232e
        0x00003004:    6820         h      LDR      r0,[r4,#0]
        0x00003006:    f7fff8b1    ....    BL       OLED_SHOW_FM ; 0x216c
        0x0000300a:    e36e        n.      B        0x36ea ; UARTRX1_Handler + 2402
        0x0000300c:    f7fffd4c    ..L.    BL       TAKE ; 0x2aa8
        0x00003010:    485e        ^H      LDR      r0,[pc,#376] ; [0x318c] = 0x3d9
        0x00003012:    3857        W8      SUBS     r0,r0,#0x57
        0x00003014:    6020         `      STR      r0,[r4,#0]
        0x00003016:    f7fefb2f    ../.    BL       FM_Select ; 0x1678
        0x0000301a:    6820         h      LDR      r0,[r4,#0]
        0x0000301c:    f7fefa8c    ....    BL       Display_FM ; 0x1538
        0x00003020:    2318        .#      MOVS     r3,#0x18
        0x00003022:    a25d        ].      ADR      r2,{pc}+0x176 ; 0x3198
        0x00003024:    2106        .!      MOVS     r1,#6
        0x00003026:    2003        .       MOVS     r0,#3
        0x00003028:    f7fff981    ....    BL       OLED_ShowString ; 0x232e
        0x0000302c:    20ff        .       MOVS     r0,#0xff
        0x0000302e:    30f5        .0      ADDS     r0,r0,#0xf5
        0x00003030:    f000fbfe    ....    BL       delay_ms ; 0x3830
        0x00003034:    2318        .#      MOVS     r3,#0x18
        0x00003036:    a25c        \.      ADR      r2,{pc}+0x172 ; 0x31a8
        0x00003038:    2106        .!      MOVS     r1,#6
        0x0000303a:    2003        .       MOVS     r0,#3
        0x0000303c:    f7fff977    ..w.    BL       OLED_ShowString ; 0x232e
        0x00003040:    6820         h      LDR      r0,[r4,#0]
        0x00003042:    f7fff893    ....    BL       OLED_SHOW_FM ; 0x216c
        0x00003046:    e350        P.      B        0x36ea ; UARTRX1_Handler + 2402
        0x00003048:    f7fffd2e    ....    BL       TAKE ; 0x2aa8
        0x0000304c:    484f        OH      LDR      r0,[pc,#316] ; [0x318c] = 0x3d9
        0x0000304e:    384f        O8      SUBS     r0,r0,#0x4f
        0x00003050:    6020         `      STR      r0,[r4,#0]
        0x00003052:    f7fefb11    ....    BL       FM_Select ; 0x1678
        0x00003056:    6820         h      LDR      r0,[r4,#0]
        0x00003058:    f7fefa6e    ..n.    BL       Display_FM ; 0x1538
        0x0000305c:    2318        .#      MOVS     r3,#0x18
        0x0000305e:    a24e        N.      ADR      r2,{pc}+0x13a ; 0x3198
        0x00003060:    2106        .!      MOVS     r1,#6
        0x00003062:    2003        .       MOVS     r0,#3
        0x00003064:    f7fff963    ..c.    BL       OLED_ShowString ; 0x232e
        0x00003068:    20ff        .       MOVS     r0,#0xff
        0x0000306a:    30f5        .0      ADDS     r0,r0,#0xf5
        0x0000306c:    f000fbe0    ....    BL       delay_ms ; 0x3830
        0x00003070:    2318        .#      MOVS     r3,#0x18
        0x00003072:    a24d        M.      ADR      r2,{pc}+0x136 ; 0x31a8
        0x00003074:    2106        .!      MOVS     r1,#6
        0x00003076:    2003        .       MOVS     r0,#3
        0x00003078:    f7fff959    ..Y.    BL       OLED_ShowString ; 0x232e
        0x0000307c:    6820         h      LDR      r0,[r4,#0]
        0x0000307e:    f7fff875    ..u.    BL       OLED_SHOW_FM ; 0x216c
        0x00003082:    e332        2.      B        0x36ea ; UARTRX1_Handler + 2402
        0x00003084:    f7fffd10    ....    BL       TAKE ; 0x2aa8
        0x00003088:    4840        @H      LDR      r0,[pc,#256] ; [0x318c] = 0x3d9
        0x0000308a:    384b        K8      SUBS     r0,r0,#0x4b
        0x0000308c:    6020         `      STR      r0,[r4,#0]
        0x0000308e:    f7fefaf3    ....    BL       FM_Select ; 0x1678
        0x00003092:    6820         h      LDR      r0,[r4,#0]
        0x00003094:    f7fefa50    ..P.    BL       Display_FM ; 0x1538
        0x00003098:    2318        .#      MOVS     r3,#0x18
        0x0000309a:    a23f        ?.      ADR      r2,{pc}+0xfe ; 0x3198
        0x0000309c:    2106        .!      MOVS     r1,#6
        0x0000309e:    2003        .       MOVS     r0,#3
        0x000030a0:    f7fff945    ..E.    BL       OLED_ShowString ; 0x232e
        0x000030a4:    20ff        .       MOVS     r0,#0xff
        0x000030a6:    30f5        .0      ADDS     r0,r0,#0xf5
        0x000030a8:    f000fbc2    ....    BL       delay_ms ; 0x3830
        0x000030ac:    2318        .#      MOVS     r3,#0x18
        0x000030ae:    a23e        >.      ADR      r2,{pc}+0xfa ; 0x31a8
        0x000030b0:    2106        .!      MOVS     r1,#6
        0x000030b2:    2003        .       MOVS     r0,#3
        0x000030b4:    f7fff93b    ..;.    BL       OLED_ShowString ; 0x232e
        0x000030b8:    6820         h      LDR      r0,[r4,#0]
        0x000030ba:    f7fff857    ..W.    BL       OLED_SHOW_FM ; 0x216c
        0x000030be:    e314        ..      B        0x36ea ; UARTRX1_Handler + 2402
        0x000030c0:    f7fffcf2    ....    BL       TAKE ; 0x2aa8
        0x000030c4:    4831        1H      LDR      r0,[pc,#196] ; [0x318c] = 0x3d9
        0x000030c6:    3844        D8      SUBS     r0,r0,#0x44
        0x000030c8:    6020         `      STR      r0,[r4,#0]
        0x000030ca:    f7fefad5    ....    BL       FM_Select ; 0x1678
        0x000030ce:    6820         h      LDR      r0,[r4,#0]
        0x000030d0:    f7fefa32    ..2.    BL       Display_FM ; 0x1538
        0x000030d4:    2318        .#      MOVS     r3,#0x18
        0x000030d6:    a230        0.      ADR      r2,{pc}+0xc2 ; 0x3198
        0x000030d8:    2106        .!      MOVS     r1,#6
        0x000030da:    2003        .       MOVS     r0,#3
        0x000030dc:    f7fff927    ..'.    BL       OLED_ShowString ; 0x232e
        0x000030e0:    20ff        .       MOVS     r0,#0xff
        0x000030e2:    30f5        .0      ADDS     r0,r0,#0xf5
        0x000030e4:    f000fba4    ....    BL       delay_ms ; 0x3830
        0x000030e8:    2318        .#      MOVS     r3,#0x18
        0x000030ea:    a22f        /.      ADR      r2,{pc}+0xbe ; 0x31a8
        0x000030ec:    2106        .!      MOVS     r1,#6
        0x000030ee:    2003        .       MOVS     r0,#3
        0x000030f0:    f7fff91d    ....    BL       OLED_ShowString ; 0x232e
        0x000030f4:    6820         h      LDR      r0,[r4,#0]
        0x000030f6:    f7fff839    ..9.    BL       OLED_SHOW_FM ; 0x216c
        0x000030fa:    e2f6        ..      B        0x36ea ; UARTRX1_Handler + 2402
        0x000030fc:    f7fffcd4    ....    BL       TAKE ; 0x2aa8
        0x00003100:    4822        "H      LDR      r0,[pc,#136] ; [0x318c] = 0x3d9
        0x00003102:    383c        <8      SUBS     r0,r0,#0x3c
        0x00003104:    6020         `      STR      r0,[r4,#0]
        0x00003106:    f7fefab7    ....    BL       FM_Select ; 0x1678
        0x0000310a:    6820         h      LDR      r0,[r4,#0]
        0x0000310c:    f7fefa14    ....    BL       Display_FM ; 0x1538
        0x00003110:    2318        .#      MOVS     r3,#0x18
        0x00003112:    a221        !.      ADR      r2,{pc}+0x86 ; 0x3198
        0x00003114:    2106        .!      MOVS     r1,#6
        0x00003116:    2003        .       MOVS     r0,#3
        0x00003118:    f7fff909    ....    BL       OLED_ShowString ; 0x232e
        0x0000311c:    20ff        .       MOVS     r0,#0xff
        0x0000311e:    30f5        .0      ADDS     r0,r0,#0xf5
        0x00003120:    f000fb86    ....    BL       delay_ms ; 0x3830
        0x00003124:    2318        .#      MOVS     r3,#0x18
        0x00003126:    a220         .      ADR      r2,{pc}+0x82 ; 0x31a8
        0x00003128:    2106        .!      MOVS     r1,#6
        0x0000312a:    2003        .       MOVS     r0,#3
        0x0000312c:    f7fff8ff    ....    BL       OLED_ShowString ; 0x232e
        0x00003130:    6820         h      LDR      r0,[r4,#0]
        0x00003132:    f7fff81b    ....    BL       OLED_SHOW_FM ; 0x216c
        0x00003136:    e2d8        ..      B        0x36ea ; UARTRX1_Handler + 2402
        0x00003138:    f7fffcb6    ....    BL       TAKE ; 0x2aa8
        0x0000313c:    20e9        .       MOVS     r0,#0xe9
        0x0000313e:    0080        ..      LSLS     r0,r0,#2
        0x00003140:    6020         `      STR      r0,[r4,#0]
        0x00003142:    f7fefa99    ....    BL       FM_Select ; 0x1678
        0x00003146:    6820         h      LDR      r0,[r4,#0]
        0x00003148:    f7fef9f6    ....    BL       Display_FM ; 0x1538
        0x0000314c:    2318        .#      MOVS     r3,#0x18
        0x0000314e:    a212        ..      ADR      r2,{pc}+0x4a ; 0x3198
        0x00003150:    2106        .!      MOVS     r1,#6
        0x00003152:    2003        .       MOVS     r0,#3
        0x00003154:    f7fff8eb    ....    BL       OLED_ShowString ; 0x232e
        0x00003158:    20ff        .       MOVS     r0,#0xff
        0x0000315a:    30f5        .0      ADDS     r0,r0,#0xf5
        0x0000315c:    f000fb68    ..h.    BL       delay_ms ; 0x3830
        0x00003160:    2318        .#      MOVS     r3,#0x18
        0x00003162:    a211        ..      ADR      r2,{pc}+0x46 ; 0x31a8
        0x00003164:    2106        .!      MOVS     r1,#6
        0x00003166:    2003        .       MOVS     r0,#3
        0x00003168:    f7fff8e1    ....    BL       OLED_ShowString ; 0x232e
        0x0000316c:    6820         h      LDR      r0,[r4,#0]
        0x0000316e:    f7fefffd    ....    BL       OLED_SHOW_FM ; 0x216c
        0x00003172:    e2ba        ..      B        0x36ea ; UARTRX1_Handler + 2402
    $d
        0x00003174:    40005000    .P.@    DCD    1073762304
        0x00003178:    e000e180    ....    DCD    3758154112
        0x0000317c:    20000028    (..     DCD    536870952
        0x00003180:    20000000    ...     DCD    536870912
        0x00003184:    504f5453    STOP    DCD    1347376211
        0x00003188:    00002121    !!..    DCD    8481
        0x0000318c:    000003d9    ....    DCD    985
        0x00003190:    4554454d    METE    DCD    1163150669
        0x00003194:    0000004f    O...    DCD    79
        0x00003198:    656b6174    take    DCD    1701536116
        0x0000319c:    63757320     suc    DCD    1668641568
        0x000031a0:    73736563    cess    DCD    1936942435
        0x000031a4:    00000000    ....    DCD    0
        0x000031a8:    20202020            DCD    538976288
        0x000031ac:    20202020            DCD    538976288
        0x000031b0:    20202020            DCD    538976288
        0x000031b4:    00002020      ..    DCD    8224
    $t
        0x000031b8:    f7fffc76    ..v.    BL       TAKE ; 0x2aa8
        0x000031bc:    48fe        .H      LDR      r0,[pc,#1016] ; [0x35b8] = 0x3aa
        0x000031be:    6020         `      STR      r0,[r4,#0]
        0x000031c0:    f7fefa5a    ..Z.    BL       FM_Select ; 0x1678
        0x000031c4:    6820         h      LDR      r0,[r4,#0]
        0x000031c6:    f7fef9b7    ....    BL       Display_FM ; 0x1538
        0x000031ca:    2318        .#      MOVS     r3,#0x18
        0x000031cc:    4afb        .J      LDR      r2,[pc,#1004] ; [0x35bc] = 0x3198
        0x000031ce:    2106        .!      MOVS     r1,#6
        0x000031d0:    2003        .       MOVS     r0,#3
        0x000031d2:    f7fff8ac    ....    BL       OLED_ShowString ; 0x232e
        0x000031d6:    20ff        .       MOVS     r0,#0xff
        0x000031d8:    30f5        .0      ADDS     r0,r0,#0xf5
        0x000031da:    f000fb29    ..).    BL       delay_ms ; 0x3830
        0x000031de:    4af7        .J      LDR      r2,[pc,#988] ; [0x35bc] = 0x3198
        0x000031e0:    2318        .#      MOVS     r3,#0x18
        0x000031e2:    3210        .2      ADDS     r2,r2,#0x10
        0x000031e4:    2106        .!      MOVS     r1,#6
        0x000031e6:    2003        .       MOVS     r0,#3
        0x000031e8:    f7fff8a1    ....    BL       OLED_ShowString ; 0x232e
        0x000031ec:    6820         h      LDR      r0,[r4,#0]
        0x000031ee:    f7feffbd    ....    BL       OLED_SHOW_FM ; 0x216c
        0x000031f2:    e27a        z.      B        0x36ea ; UARTRX1_Handler + 2402
        0x000031f4:    f7fffc58    ..X.    BL       TAKE ; 0x2aa8
        0x000031f8:    203b        ;       MOVS     r0,#0x3b
        0x000031fa:    0100        ..      LSLS     r0,r0,#4
        0x000031fc:    6020         `      STR      r0,[r4,#0]
        0x000031fe:    f7fefa3b    ..;.    BL       FM_Select ; 0x1678
        0x00003202:    6820         h      LDR      r0,[r4,#0]
        0x00003204:    f7fef998    ....    BL       Display_FM ; 0x1538
        0x00003208:    2318        .#      MOVS     r3,#0x18
        0x0000320a:    4aec        .J      LDR      r2,[pc,#944] ; [0x35bc] = 0x3198
        0x0000320c:    2106        .!      MOVS     r1,#6
        0x0000320e:    2003        .       MOVS     r0,#3
        0x00003210:    f7fff88d    ....    BL       OLED_ShowString ; 0x232e
        0x00003214:    20ff        .       MOVS     r0,#0xff
        0x00003216:    30f5        .0      ADDS     r0,r0,#0xf5
        0x00003218:    f000fb0a    ....    BL       delay_ms ; 0x3830
        0x0000321c:    4ae7        .J      LDR      r2,[pc,#924] ; [0x35bc] = 0x3198
        0x0000321e:    2318        .#      MOVS     r3,#0x18
        0x00003220:    3210        .2      ADDS     r2,r2,#0x10
        0x00003222:    2106        .!      MOVS     r1,#6
        0x00003224:    2003        .       MOVS     r0,#3
        0x00003226:    f7fff882    ....    BL       OLED_ShowString ; 0x232e
        0x0000322a:    6820         h      LDR      r0,[r4,#0]
        0x0000322c:    f7feff9e    ....    BL       OLED_SHOW_FM ; 0x216c
        0x00003230:    e25b        [.      B        0x36ea ; UARTRX1_Handler + 2402
        0x00003232:    f7fffc39    ..9.    BL       TAKE ; 0x2aa8
        0x00003236:    48e0        .H      LDR      r0,[pc,#896] ; [0x35b8] = 0x3aa
        0x00003238:    3011        .0      ADDS     r0,r0,#0x11
        0x0000323a:    6020         `      STR      r0,[r4,#0]
        0x0000323c:    f7fefa1c    ....    BL       FM_Select ; 0x1678
        0x00003240:    6820         h      LDR      r0,[r4,#0]
        0x00003242:    f7fef979    ..y.    BL       Display_FM ; 0x1538
        0x00003246:    2318        .#      MOVS     r3,#0x18
        0x00003248:    4adc        .J      LDR      r2,[pc,#880] ; [0x35bc] = 0x3198
        0x0000324a:    2106        .!      MOVS     r1,#6
        0x0000324c:    2003        .       MOVS     r0,#3
        0x0000324e:    f7fff86e    ..n.    BL       OLED_ShowString ; 0x232e
        0x00003252:    20ff        .       MOVS     r0,#0xff
        0x00003254:    30f5        .0      ADDS     r0,r0,#0xf5
        0x00003256:    f000faeb    ....    BL       delay_ms ; 0x3830
        0x0000325a:    4ad8        .J      LDR      r2,[pc,#864] ; [0x35bc] = 0x3198
        0x0000325c:    2318        .#      MOVS     r3,#0x18
        0x0000325e:    3210        .2      ADDS     r2,r2,#0x10
        0x00003260:    2106        .!      MOVS     r1,#6
        0x00003262:    2003        .       MOVS     r0,#3
        0x00003264:    f7fff863    ..c.    BL       OLED_ShowString ; 0x232e
        0x00003268:    6820         h      LDR      r0,[r4,#0]
        0x0000326a:    f7feff7f    ....    BL       OLED_SHOW_FM ; 0x216c
        0x0000326e:    e23c        <.      B        0x36ea ; UARTRX1_Handler + 2402
        0x00003270:    f7fffc1a    ....    BL       TAKE ; 0x2aa8
        0x00003274:    48d0        .H      LDR      r0,[pc,#832] ; [0x35b8] = 0x3aa
        0x00003276:    3019        .0      ADDS     r0,r0,#0x19
        0x00003278:    6020         `      STR      r0,[r4,#0]
        0x0000327a:    f7fef9fd    ....    BL       FM_Select ; 0x1678
        0x0000327e:    6820         h      LDR      r0,[r4,#0]
        0x00003280:    f7fef95a    ..Z.    BL       Display_FM ; 0x1538
        0x00003284:    2318        .#      MOVS     r3,#0x18
        0x00003286:    4acd        .J      LDR      r2,[pc,#820] ; [0x35bc] = 0x3198
        0x00003288:    2106        .!      MOVS     r1,#6
        0x0000328a:    2003        .       MOVS     r0,#3
        0x0000328c:    f7fff84f    ..O.    BL       OLED_ShowString ; 0x232e
        0x00003290:    20ff        .       MOVS     r0,#0xff
        0x00003292:    30f5        .0      ADDS     r0,r0,#0xf5
        0x00003294:    f000facc    ....    BL       delay_ms ; 0x3830
        0x00003298:    4ac8        .J      LDR      r2,[pc,#800] ; [0x35bc] = 0x3198
        0x0000329a:    2318        .#      MOVS     r3,#0x18
        0x0000329c:    3210        .2      ADDS     r2,r2,#0x10
        0x0000329e:    2106        .!      MOVS     r1,#6
        0x000032a0:    2003        .       MOVS     r0,#3
        0x000032a2:    f7fff844    ..D.    BL       OLED_ShowString ; 0x232e
        0x000032a6:    6820         h      LDR      r0,[r4,#0]
        0x000032a8:    f7feff60    ..`.    BL       OLED_SHOW_FM ; 0x216c
        0x000032ac:    e21d        ..      B        0x36ea ; UARTRX1_Handler + 2402
        0x000032ae:    f7fffbfb    ....    BL       TAKE ; 0x2aa8
        0x000032b2:    2079        y       MOVS     r0,#0x79
        0x000032b4:    00c0        ..      LSLS     r0,r0,#3
        0x000032b6:    6020         `      STR      r0,[r4,#0]
        0x000032b8:    f7fef9de    ....    BL       FM_Select ; 0x1678
        0x000032bc:    6820         h      LDR      r0,[r4,#0]
        0x000032be:    f7fef93b    ..;.    BL       Display_FM ; 0x1538
        0x000032c2:    2318        .#      MOVS     r3,#0x18
        0x000032c4:    4abd        .J      LDR      r2,[pc,#756] ; [0x35bc] = 0x3198
        0x000032c6:    2106        .!      MOVS     r1,#6
        0x000032c8:    2003        .       MOVS     r0,#3
        0x000032ca:    f7fff830    ..0.    BL       OLED_ShowString ; 0x232e
        0x000032ce:    20ff        .       MOVS     r0,#0xff
        0x000032d0:    30f5        .0      ADDS     r0,r0,#0xf5
        0x000032d2:    f000faad    ....    BL       delay_ms ; 0x3830
        0x000032d6:    4ab9        .J      LDR      r2,[pc,#740] ; [0x35bc] = 0x3198
        0x000032d8:    2318        .#      MOVS     r3,#0x18
        0x000032da:    3210        .2      ADDS     r2,r2,#0x10
        0x000032dc:    2106        .!      MOVS     r1,#6
        0x000032de:    2003        .       MOVS     r0,#3
        0x000032e0:    f7fff825    ..%.    BL       OLED_ShowString ; 0x232e
        0x000032e4:    6820         h      LDR      r0,[r4,#0]
        0x000032e6:    f7feff41    ..A.    BL       OLED_SHOW_FM ; 0x216c
        0x000032ea:    e1fe        ..      B        0x36ea ; UARTRX1_Handler + 2402
        0x000032ec:    f7fffbdc    ....    BL       TAKE ; 0x2aa8
        0x000032f0:    48b1        .H      LDR      r0,[pc,#708] ; [0x35b8] = 0x3aa
        0x000032f2:    3024        $0      ADDS     r0,r0,#0x24
        0x000032f4:    6020         `      STR      r0,[r4,#0]
        0x000032f6:    f7fef9bf    ....    BL       FM_Select ; 0x1678
        0x000032fa:    6820         h      LDR      r0,[r4,#0]
        0x000032fc:    f7fef91c    ....    BL       Display_FM ; 0x1538
        0x00003300:    2318        .#      MOVS     r3,#0x18
        0x00003302:    4aae        .J      LDR      r2,[pc,#696] ; [0x35bc] = 0x3198
        0x00003304:    2106        .!      MOVS     r1,#6
        0x00003306:    2003        .       MOVS     r0,#3
        0x00003308:    f7fff811    ....    BL       OLED_ShowString ; 0x232e
        0x0000330c:    20ff        .       MOVS     r0,#0xff
        0x0000330e:    30f5        .0      ADDS     r0,r0,#0xf5
        0x00003310:    f000fa8e    ....    BL       delay_ms ; 0x3830
        0x00003314:    4aa9        .J      LDR      r2,[pc,#676] ; [0x35bc] = 0x3198
        0x00003316:    2318        .#      MOVS     r3,#0x18
        0x00003318:    3210        .2      ADDS     r2,r2,#0x10
        0x0000331a:    2106        .!      MOVS     r1,#6
        0x0000331c:    2003        .       MOVS     r0,#3
        0x0000331e:    f7fff806    ....    BL       OLED_ShowString ; 0x232e
        0x00003322:    6820         h      LDR      r0,[r4,#0]
        0x00003324:    f7feff22    ..".    BL       OLED_SHOW_FM ; 0x216c
        0x00003328:    e1df        ..      B        0x36ea ; UARTRX1_Handler + 2402
        0x0000332a:    f7fffbbd    ....    BL       TAKE ; 0x2aa8
        0x0000332e:    203d        =       MOVS     r0,#0x3d
        0x00003330:    0100        ..      LSLS     r0,r0,#4
        0x00003332:    6020         `      STR      r0,[r4,#0]
        0x00003334:    f7fef9a0    ....    BL       FM_Select ; 0x1678
        0x00003338:    6820         h      LDR      r0,[r4,#0]
        0x0000333a:    f7fef8fd    ....    BL       Display_FM ; 0x1538
        0x0000333e:    2318        .#      MOVS     r3,#0x18
        0x00003340:    4a9e        .J      LDR      r2,[pc,#632] ; [0x35bc] = 0x3198
        0x00003342:    2106        .!      MOVS     r1,#6
        0x00003344:    2003        .       MOVS     r0,#3
        0x00003346:    f7fefff2    ....    BL       OLED_ShowString ; 0x232e
        0x0000334a:    20ff        .       MOVS     r0,#0xff
        0x0000334c:    30f5        .0      ADDS     r0,r0,#0xf5
        0x0000334e:    f000fa6f    ..o.    BL       delay_ms ; 0x3830
        0x00003352:    4a9a        .J      LDR      r2,[pc,#616] ; [0x35bc] = 0x3198
        0x00003354:    2318        .#      MOVS     r3,#0x18
        0x00003356:    3210        .2      ADDS     r2,r2,#0x10
        0x00003358:    2106        .!      MOVS     r1,#6
        0x0000335a:    2003        .       MOVS     r0,#3
        0x0000335c:    f7feffe7    ....    BL       OLED_ShowString ; 0x232e
        0x00003360:    6820         h      LDR      r0,[r4,#0]
        0x00003362:    f7feff03    ....    BL       OLED_SHOW_FM ; 0x216c
        0x00003366:    e1c0        ..      B        0x36ea ; UARTRX1_Handler + 2402
        0x00003368:    f7fffb9e    ....    BL       TAKE ; 0x2aa8
        0x0000336c:    20f5        .       MOVS     r0,#0xf5
        0x0000336e:    0080        ..      LSLS     r0,r0,#2
        0x00003370:    6020         `      STR      r0,[r4,#0]
        0x00003372:    f7fef981    ....    BL       FM_Select ; 0x1678
        0x00003376:    6820         h      LDR      r0,[r4,#0]
        0x00003378:    f7fef8de    ....    BL       Display_FM ; 0x1538
        0x0000337c:    2318        .#      MOVS     r3,#0x18
        0x0000337e:    4a8f        .J      LDR      r2,[pc,#572] ; [0x35bc] = 0x3198
        0x00003380:    2106        .!      MOVS     r1,#6
        0x00003382:    2003        .       MOVS     r0,#3
        0x00003384:    f7feffd3    ....    BL       OLED_ShowString ; 0x232e
        0x00003388:    20ff        .       MOVS     r0,#0xff
        0x0000338a:    30f5        .0      ADDS     r0,r0,#0xf5
        0x0000338c:    f000fa50    ..P.    BL       delay_ms ; 0x3830
        0x00003390:    4a8a        .J      LDR      r2,[pc,#552] ; [0x35bc] = 0x3198
        0x00003392:    2318        .#      MOVS     r3,#0x18
        0x00003394:    3210        .2      ADDS     r2,r2,#0x10
        0x00003396:    2106        .!      MOVS     r1,#6
        0x00003398:    2003        .       MOVS     r0,#3
        0x0000339a:    f7feffc8    ....    BL       OLED_ShowString ; 0x232e
        0x0000339e:    6820         h      LDR      r0,[r4,#0]
        0x000033a0:    f7fefee4    ....    BL       OLED_SHOW_FM ; 0x216c
        0x000033a4:    e1a1        ..      B        0x36ea ; UARTRX1_Handler + 2402
        0x000033a6:    f7fffb7f    ....    BL       TAKE ; 0x2aa8
        0x000033aa:    207d        }       MOVS     r0,#0x7d
        0x000033ac:    00c0        ..      LSLS     r0,r0,#3
        0x000033ae:    6020         `      STR      r0,[r4,#0]
        0x000033b0:    f7fef962    ..b.    BL       FM_Select ; 0x1678
        0x000033b4:    6820         h      LDR      r0,[r4,#0]
        0x000033b6:    f7fef8bf    ....    BL       Display_FM ; 0x1538
        0x000033ba:    2318        .#      MOVS     r3,#0x18
        0x000033bc:    4a7f        .J      LDR      r2,[pc,#508] ; [0x35bc] = 0x3198
        0x000033be:    2106        .!      MOVS     r1,#6
        0x000033c0:    2003        .       MOVS     r0,#3
        0x000033c2:    f7feffb4    ....    BL       OLED_ShowString ; 0x232e
        0x000033c6:    20ff        .       MOVS     r0,#0xff
        0x000033c8:    30f5        .0      ADDS     r0,r0,#0xf5
        0x000033ca:    f000fa31    ..1.    BL       delay_ms ; 0x3830
        0x000033ce:    4a7b        {J      LDR      r2,[pc,#492] ; [0x35bc] = 0x3198
        0x000033d0:    2318        .#      MOVS     r3,#0x18
        0x000033d2:    3210        .2      ADDS     r2,r2,#0x10
        0x000033d4:    2106        .!      MOVS     r1,#6
        0x000033d6:    2003        .       MOVS     r0,#3
        0x000033d8:    f7feffa9    ....    BL       OLED_ShowString ; 0x232e
        0x000033dc:    6820         h      LDR      r0,[r4,#0]
        0x000033de:    f7fefec5    ....    BL       OLED_SHOW_FM ; 0x216c
        0x000033e2:    e182        ..      B        0x36ea ; UARTRX1_Handler + 2402
        0x000033e4:    f7fffb60    ..`.    BL       TAKE ; 0x2aa8
        0x000033e8:    4873        sH      LDR      r0,[pc,#460] ; [0x35b8] = 0x3aa
        0x000033ea:    3041        A0      ADDS     r0,r0,#0x41
        0x000033ec:    6020         `      STR      r0,[r4,#0]
        0x000033ee:    f7fef943    ..C.    BL       FM_Select ; 0x1678
        0x000033f2:    6820         h      LDR      r0,[r4,#0]
        0x000033f4:    f7fef8a0    ....    BL       Display_FM ; 0x1538
        0x000033f8:    2318        .#      MOVS     r3,#0x18
        0x000033fa:    4a70        pJ      LDR      r2,[pc,#448] ; [0x35bc] = 0x3198
        0x000033fc:    2106        .!      MOVS     r1,#6
        0x000033fe:    2003        .       MOVS     r0,#3
        0x00003400:    f7feff95    ....    BL       OLED_ShowString ; 0x232e
        0x00003404:    20ff        .       MOVS     r0,#0xff
        0x00003406:    30f5        .0      ADDS     r0,r0,#0xf5
        0x00003408:    f000fa12    ....    BL       delay_ms ; 0x3830
        0x0000340c:    4a6b        kJ      LDR      r2,[pc,#428] ; [0x35bc] = 0x3198
        0x0000340e:    2318        .#      MOVS     r3,#0x18
        0x00003410:    3210        .2      ADDS     r2,r2,#0x10
        0x00003412:    2106        .!      MOVS     r1,#6
        0x00003414:    2003        .       MOVS     r0,#3
        0x00003416:    f7feff8a    ....    BL       OLED_ShowString ; 0x232e
        0x0000341a:    6820         h      LDR      r0,[r4,#0]
        0x0000341c:    f7fefea6    ....    BL       OLED_SHOW_FM ; 0x216c
        0x00003420:    e163        c.      B        0x36ea ; UARTRX1_Handler + 2402
        0x00003422:    f7fffb41    ..A.    BL       TAKE ; 0x2aa8
        0x00003426:    4864        dH      LDR      r0,[pc,#400] ; [0x35b8] = 0x3aa
        0x00003428:    304d        M0      ADDS     r0,r0,#0x4d
        0x0000342a:    6020         `      STR      r0,[r4,#0]
        0x0000342c:    f7fef924    ..$.    BL       FM_Select ; 0x1678
        0x00003430:    6820         h      LDR      r0,[r4,#0]
        0x00003432:    f7fef881    ....    BL       Display_FM ; 0x1538
        0x00003436:    2318        .#      MOVS     r3,#0x18
        0x00003438:    4a60        `J      LDR      r2,[pc,#384] ; [0x35bc] = 0x3198
        0x0000343a:    2106        .!      MOVS     r1,#6
        0x0000343c:    2003        .       MOVS     r0,#3
        0x0000343e:    f7feff76    ..v.    BL       OLED_ShowString ; 0x232e
        0x00003442:    20ff        .       MOVS     r0,#0xff
        0x00003444:    30f5        .0      ADDS     r0,r0,#0xf5
        0x00003446:    f000f9f3    ....    BL       delay_ms ; 0x3830
        0x0000344a:    4a5c        \J      LDR      r2,[pc,#368] ; [0x35bc] = 0x3198
        0x0000344c:    2318        .#      MOVS     r3,#0x18
        0x0000344e:    3210        .2      ADDS     r2,r2,#0x10
        0x00003450:    2106        .!      MOVS     r1,#6
        0x00003452:    2003        .       MOVS     r0,#3
        0x00003454:    f7feff6b    ..k.    BL       OLED_ShowString ; 0x232e
        0x00003458:    6820         h      LDR      r0,[r4,#0]
        0x0000345a:    f7fefe87    ....    BL       OLED_SHOW_FM ; 0x216c
        0x0000345e:    e144        D.      B        0x36ea ; UARTRX1_Handler + 2402
        0x00003460:    f7fffb22    ..".    BL       TAKE ; 0x2aa8
        0x00003464:    4854        TH      LDR      r0,[pc,#336] ; [0x35b8] = 0x3aa
        0x00003466:    3053        S0      ADDS     r0,r0,#0x53
        0x00003468:    6020         `      STR      r0,[r4,#0]
        0x0000346a:    f7fef905    ....    BL       FM_Select ; 0x1678
        0x0000346e:    6820         h      LDR      r0,[r4,#0]
        0x00003470:    f7fef862    ..b.    BL       Display_FM ; 0x1538
        0x00003474:    2318        .#      MOVS     r3,#0x18
        0x00003476:    4a51        QJ      LDR      r2,[pc,#324] ; [0x35bc] = 0x3198
        0x00003478:    2106        .!      MOVS     r1,#6
        0x0000347a:    2003        .       MOVS     r0,#3
        0x0000347c:    f7feff57    ..W.    BL       OLED_ShowString ; 0x232e
        0x00003480:    20ff        .       MOVS     r0,#0xff
        0x00003482:    30f5        .0      ADDS     r0,r0,#0xf5
        0x00003484:    f000f9d4    ....    BL       delay_ms ; 0x3830
        0x00003488:    4a4c        LJ      LDR      r2,[pc,#304] ; [0x35bc] = 0x3198
        0x0000348a:    2318        .#      MOVS     r3,#0x18
        0x0000348c:    3210        .2      ADDS     r2,r2,#0x10
        0x0000348e:    2106        .!      MOVS     r1,#6
        0x00003490:    2003        .       MOVS     r0,#3
        0x00003492:    f7feff4c    ..L.    BL       OLED_ShowString ; 0x232e
        0x00003496:    6820         h      LDR      r0,[r4,#0]
        0x00003498:    f7fefe68    ..h.    BL       OLED_SHOW_FM ; 0x216c
        0x0000349c:    e125        %.      B        0x36ea ; UARTRX1_Handler + 2402
        0x0000349e:    f7fffb03    ....    BL       TAKE ; 0x2aa8
        0x000034a2:    4845        EH      LDR      r0,[pc,#276] ; [0x35b8] = 0x3aa
        0x000034a4:    305b        [0      ADDS     r0,r0,#0x5b
        0x000034a6:    6020         `      STR      r0,[r4,#0]
        0x000034a8:    f7fef8e6    ....    BL       FM_Select ; 0x1678
        0x000034ac:    6820         h      LDR      r0,[r4,#0]
        0x000034ae:    f7fef843    ..C.    BL       Display_FM ; 0x1538
        0x000034b2:    2318        .#      MOVS     r3,#0x18
        0x000034b4:    4a41        AJ      LDR      r2,[pc,#260] ; [0x35bc] = 0x3198
        0x000034b6:    2106        .!      MOVS     r1,#6
        0x000034b8:    2003        .       MOVS     r0,#3
        0x000034ba:    f7feff38    ..8.    BL       OLED_ShowString ; 0x232e
        0x000034be:    20ff        .       MOVS     r0,#0xff
        0x000034c0:    30f5        .0      ADDS     r0,r0,#0xf5
        0x000034c2:    f000f9b5    ....    BL       delay_ms ; 0x3830
        0x000034c6:    4a3d        =J      LDR      r2,[pc,#244] ; [0x35bc] = 0x3198
        0x000034c8:    2318        .#      MOVS     r3,#0x18
        0x000034ca:    3210        .2      ADDS     r2,r2,#0x10
        0x000034cc:    2106        .!      MOVS     r1,#6
        0x000034ce:    2003        .       MOVS     r0,#3
        0x000034d0:    f7feff2d    ..-.    BL       OLED_ShowString ; 0x232e
        0x000034d4:    6820         h      LDR      r0,[r4,#0]
        0x000034d6:    f7fefe49    ..I.    BL       OLED_SHOW_FM ; 0x216c
        0x000034da:    e106        ..      B        0x36ea ; UARTRX1_Handler + 2402
        0x000034dc:    f7fffae4    ....    BL       TAKE ; 0x2aa8
        0x000034e0:    4835        5H      LDR      r0,[pc,#212] ; [0x35b8] = 0x3aa
        0x000034e2:    3061        a0      ADDS     r0,r0,#0x61
        0x000034e4:    6020         `      STR      r0,[r4,#0]
        0x000034e6:    f7fef8c7    ....    BL       FM_Select ; 0x1678
        0x000034ea:    6820         h      LDR      r0,[r4,#0]
        0x000034ec:    f7fef824    ..$.    BL       Display_FM ; 0x1538
        0x000034f0:    2318        .#      MOVS     r3,#0x18
        0x000034f2:    4a32        2J      LDR      r2,[pc,#200] ; [0x35bc] = 0x3198
        0x000034f4:    2106        .!      MOVS     r1,#6
        0x000034f6:    2003        .       MOVS     r0,#3
        0x000034f8:    f7feff19    ....    BL       OLED_ShowString ; 0x232e
        0x000034fc:    20ff        .       MOVS     r0,#0xff
        0x000034fe:    30f5        .0      ADDS     r0,r0,#0xf5
        0x00003500:    f000f996    ....    BL       delay_ms ; 0x3830
        0x00003504:    4a2d        -J      LDR      r2,[pc,#180] ; [0x35bc] = 0x3198
        0x00003506:    2318        .#      MOVS     r3,#0x18
        0x00003508:    3210        .2      ADDS     r2,r2,#0x10
        0x0000350a:    2106        .!      MOVS     r1,#6
        0x0000350c:    2003        .       MOVS     r0,#3
        0x0000350e:    f7feff0e    ....    BL       OLED_ShowString ; 0x232e
        0x00003512:    6820         h      LDR      r0,[r4,#0]
        0x00003514:    f7fefe2a    ..*.    BL       OLED_SHOW_FM ; 0x216c
        0x00003518:    e0e7        ..      B        0x36ea ; UARTRX1_Handler + 2402
        0x0000351a:    f7fffac5    ....    BL       TAKE ; 0x2aa8
        0x0000351e:    4826        &H      LDR      r0,[pc,#152] ; [0x35b8] = 0x3aa
        0x00003520:    306b        k0      ADDS     r0,r0,#0x6b
        0x00003522:    6020         `      STR      r0,[r4,#0]
        0x00003524:    f7fef8a8    ....    BL       FM_Select ; 0x1678
        0x00003528:    6820         h      LDR      r0,[r4,#0]
        0x0000352a:    f7fef805    ....    BL       Display_FM ; 0x1538
        0x0000352e:    2318        .#      MOVS     r3,#0x18
        0x00003530:    4a22        "J      LDR      r2,[pc,#136] ; [0x35bc] = 0x3198
        0x00003532:    2106        .!      MOVS     r1,#6
        0x00003534:    2003        .       MOVS     r0,#3
        0x00003536:    f7fefefa    ....    BL       OLED_ShowString ; 0x232e
        0x0000353a:    20ff        .       MOVS     r0,#0xff
        0x0000353c:    30f5        .0      ADDS     r0,r0,#0xf5
        0x0000353e:    f000f977    ..w.    BL       delay_ms ; 0x3830
        0x00003542:    4a1e        .J      LDR      r2,[pc,#120] ; [0x35bc] = 0x3198
        0x00003544:    2318        .#      MOVS     r3,#0x18
        0x00003546:    3210        .2      ADDS     r2,r2,#0x10
        0x00003548:    2106        .!      MOVS     r1,#6
        0x0000354a:    2003        .       MOVS     r0,#3
        0x0000354c:    f7fefeef    ....    BL       OLED_ShowString ; 0x232e
        0x00003550:    6820         h      LDR      r0,[r4,#0]
        0x00003552:    f7fefe0b    ....    BL       OLED_SHOW_FM ; 0x216c
        0x00003556:    e0c8        ..      B        0x36ea ; UARTRX1_Handler + 2402
        0x00003558:    f7fffaa6    ....    BL       TAKE ; 0x2aa8
        0x0000355c:    4816        .H      LDR      r0,[pc,#88] ; [0x35b8] = 0x3aa
        0x0000355e:    3079        y0      ADDS     r0,r0,#0x79
        0x00003560:    6020         `      STR      r0,[r4,#0]
        0x00003562:    f7fef889    ....    BL       FM_Select ; 0x1678
        0x00003566:    6820         h      LDR      r0,[r4,#0]
        0x00003568:    f7fdffe6    ....    BL       Display_FM ; 0x1538
        0x0000356c:    2318        .#      MOVS     r3,#0x18
        0x0000356e:    4a13        .J      LDR      r2,[pc,#76] ; [0x35bc] = 0x3198
        0x00003570:    2106        .!      MOVS     r1,#6
        0x00003572:    2003        .       MOVS     r0,#3
        0x00003574:    f7fefedb    ....    BL       OLED_ShowString ; 0x232e
        0x00003578:    20ff        .       MOVS     r0,#0xff
        0x0000357a:    30f5        .0      ADDS     r0,r0,#0xf5
        0x0000357c:    f000f958    ..X.    BL       delay_ms ; 0x3830
        0x00003580:    4a0e        .J      LDR      r2,[pc,#56] ; [0x35bc] = 0x3198
        0x00003582:    2318        .#      MOVS     r3,#0x18
        0x00003584:    3210        .2      ADDS     r2,r2,#0x10
        0x00003586:    2106        .!      MOVS     r1,#6
        0x00003588:    2003        .       MOVS     r0,#3
        0x0000358a:    f7fefed0    ....    BL       OLED_ShowString ; 0x232e
        0x0000358e:    6820         h      LDR      r0,[r4,#0]
        0x00003590:    f7fefdec    ....    BL       OLED_SHOW_FM ; 0x216c
        0x00003594:    e0a9        ..      B        0x36ea ; UARTRX1_Handler + 2402
        0x00003596:    f7fffa87    ....    BL       TAKE ; 0x2aa8
        0x0000359a:    4807        .H      LDR      r0,[pc,#28] ; [0x35b8] = 0x3aa
        0x0000359c:    3081        .0      ADDS     r0,r0,#0x81
        0x0000359e:    6020         `      STR      r0,[r4,#0]
        0x000035a0:    f7fef86a    ..j.    BL       FM_Select ; 0x1678
        0x000035a4:    6820         h      LDR      r0,[r4,#0]
        0x000035a6:    f7fdffc7    ....    BL       Display_FM ; 0x1538
        0x000035aa:    2318        .#      MOVS     r3,#0x18
        0x000035ac:    4a03        .J      LDR      r2,[pc,#12] ; [0x35bc] = 0x3198
        0x000035ae:    2106        .!      MOVS     r1,#6
        0x000035b0:    2003        .       MOVS     r0,#3
        0x000035b2:    f7fefebc    ....    BL       OLED_ShowString ; 0x232e
        0x000035b6:    e003        ..      B        0x35c0 ; UARTRX1_Handler + 2104
    $d
        0x000035b8:    000003aa    ....    DCD    938
        0x000035bc:    00003198    .1..    DCD    12696
    $t
        0x000035c0:    20ff        .       MOVS     r0,#0xff
        0x000035c2:    30f5        .0      ADDS     r0,r0,#0xf5
        0x000035c4:    f000f934    ..4.    BL       delay_ms ; 0x3830
        0x000035c8:    2318        .#      MOVS     r3,#0x18
        0x000035ca:    4a4b        KJ      LDR      r2,[pc,#300] ; [0x36f8] = 0x31a8
        0x000035cc:    2106        .!      MOVS     r1,#6
        0x000035ce:    2003        .       MOVS     r0,#3
        0x000035d0:    f7fefead    ....    BL       OLED_ShowString ; 0x232e
        0x000035d4:    6820         h      LDR      r0,[r4,#0]
        0x000035d6:    f7fefdc9    ....    BL       OLED_SHOW_FM ; 0x216c
        0x000035da:    e086        ..      B        0x36ea ; UARTRX1_Handler + 2402
        0x000035dc:    f7fffa64    ..d.    BL       TAKE ; 0x2aa8
        0x000035e0:    4846        FH      LDR      r0,[pc,#280] ; [0x36fc] = 0x437
        0x000035e2:    6020         `      STR      r0,[r4,#0]
        0x000035e4:    f7fef848    ..H.    BL       FM_Select ; 0x1678
        0x000035e8:    6820         h      LDR      r0,[r4,#0]
        0x000035ea:    f7fdffa5    ....    BL       Display_FM ; 0x1538
        0x000035ee:    4a42        BJ      LDR      r2,[pc,#264] ; [0x36f8] = 0x31a8
        0x000035f0:    2318        .#      MOVS     r3,#0x18
        0x000035f2:    3a10        .:      SUBS     r2,r2,#0x10
        0x000035f4:    2106        .!      MOVS     r1,#6
        0x000035f6:    2003        .       MOVS     r0,#3
        0x000035f8:    f7fefe99    ....    BL       OLED_ShowString ; 0x232e
        0x000035fc:    20ff        .       MOVS     r0,#0xff
        0x000035fe:    30f5        .0      ADDS     r0,r0,#0xf5
        0x00003600:    f000f916    ....    BL       delay_ms ; 0x3830
        0x00003604:    2318        .#      MOVS     r3,#0x18
        0x00003606:    4a3c        <J      LDR      r2,[pc,#240] ; [0x36f8] = 0x31a8
        0x00003608:    2106        .!      MOVS     r1,#6
        0x0000360a:    2003        .       MOVS     r0,#3
        0x0000360c:    f7fefe8f    ....    BL       OLED_ShowString ; 0x232e
        0x00003610:    6820         h      LDR      r0,[r4,#0]
        0x00003612:    f7fefdab    ....    BL       OLED_SHOW_FM ; 0x216c
        0x00003616:    e068        h.      B        0x36ea ; UARTRX1_Handler + 2402
        0x00003618:    f7feff00    ....    BL       SEG_Clear_all ; 0x241c
        0x0000361c:    2000        .       MOVS     r0,#0
        0x0000361e:    4f38        8O      LDR      r7,[pc,#224] ; [0x3700] = 0x20000038
        0x00003620:    2100        .!      MOVS     r1,#0
        0x00003622:    0082        ..      LSLS     r2,r0,#2
        0x00003624:    50b9        .P      STR      r1,[r7,r2]
        0x00003626:    1c40        @.      ADDS     r0,r0,#1
        0x00003628:    b2c0        ..      UXTB     r0,r0
        0x0000362a:    28c8        .(      CMP      r0,#0xc8
        0x0000362c:    d3f8        ..      BCC      0x3620 ; UARTRX1_Handler + 2200
        0x0000362e:    e042        B.      B        0x36b6 ; UARTRX1_Handler + 2350
        0x00003630:    2137        7!      MOVS     r1,#0x37
        0x00003632:    4834        4H      LDR      r0,[pc,#208] ; [0x3704] = 0x20000000
        0x00003634:    0109        ..      LSLS     r1,r1,#4
        0x00003636:    6081        .`      STR      r1,[r0,#8]
        0x00003638:    2100        .!      MOVS     r1,#0
        0x0000363a:    6041        A`      STR      r1,[r0,#4]
        0x0000363c:    f7fefeee    ....    BL       SEG_Clear_all ; 0x241c
        0x00003640:    6820         h      LDR      r0,[r4,#0]
        0x00003642:    f7fef819    ....    BL       FM_Select ; 0x1678
        0x00003646:    6820         h      LDR      r0,[r4,#0]
        0x00003648:    f7fdff76    ..v.    BL       Display_FM ; 0x1538
        0x0000364c:    6820         h      LDR      r0,[r4,#0]
        0x0000364e:    f7fefd8d    ....    BL       OLED_SHOW_FM ; 0x216c
        0x00003652:    6820         h      LDR      r0,[r4,#0]
        0x00003654:    f7fdff02    ....    BL       APP_Display ; 0x145c
        0x00003658:    2318        .#      MOVS     r3,#0x18
        0x0000365a:    a22b        +.      ADR      r2,{pc}+0xae ; 0x3708
        0x0000365c:    2106        .!      MOVS     r1,#6
        0x0000365e:    2003        .       MOVS     r0,#3
        0x00003660:    f7fefe65    ..e.    BL       OLED_ShowString ; 0x232e
        0x00003664:    f7fff8f2    ....    BL       StoreFM_Display ; 0x284c
        0x00003668:    20ff        .       MOVS     r0,#0xff
        0x0000366a:    30f5        .0      ADDS     r0,r0,#0xf5
        0x0000366c:    f000f8e0    ....    BL       delay_ms ; 0x3830
        0x00003670:    2318        .#      MOVS     r3,#0x18
        0x00003672:    4a21        !J      LDR      r2,[pc,#132] ; [0x36f8] = 0x31a8
        0x00003674:    2106        .!      MOVS     r1,#6
        0x00003676:    2003        .       MOVS     r0,#3
        0x00003678:    f7fefe59    ..Y.    BL       OLED_ShowString ; 0x232e
        0x0000367c:    e035        5.      B        0x36ea ; UARTRX1_Handler + 2402
        0x0000367e:    f7fdfffb    ....    BL       FM_Select ; 0x1678
        0x00003682:    2600        .&      MOVS     r6,#0
        0x00003684:    4824        $H      LDR      r0,[pc,#144] ; [0x3718] = 0x40012000
        0x00003686:    6800        .h      LDR      r0,[r0,#0]
        0x00003688:    1945        E.      ADDS     r5,r0,r5
        0x0000368a:    2001        .       MOVS     r0,#1
        0x0000368c:    f000f8d0    ....    BL       delay_ms ; 0x3830
        0x00003690:    1c76        v.      ADDS     r6,r6,#1
        0x00003692:    b2f6        ..      UXTB     r6,r6
        0x00003694:    2e05        ..      CMP      r6,#5
        0x00003696:    d3f5        ..      BCC      0x3684 ; UARTRX1_Handler + 2300
        0x00003698:    2105        .!      MOVS     r1,#5
        0x0000369a:    4628        (F      MOV      r0,r5
        0x0000369c:    f7fcfe5c    ..\.    BL       __aeabi_uidiv ; 0x358
        0x000036a0:    4605        .F      MOV      r5,r0
        0x000036a2:    4918        .I      LDR      r1,[pc,#96] ; [0x3704] = 0x20000000
        0x000036a4:    68c8        .h      LDR      r0,[r1,#0xc]
        0x000036a6:    4285        .B      CMP      r5,r0
        0x000036a8:    d905        ..      BLS      0x36b6 ; UARTRX1_Handler + 2350
        0x000036aa:    6848        Hh      LDR      r0,[r1,#4]
        0x000036ac:    688a        .h      LDR      r2,[r1,#8]
        0x000036ae:    0083        ..      LSLS     r3,r0,#2
        0x000036b0:    50fa        .P      STR      r2,[r7,r3]
        0x000036b2:    1c40        @.      ADDS     r0,r0,#1
        0x000036b4:    6048        H`      STR      r0,[r1,#4]
        0x000036b6:    f7fefef1    ....    BL       Search ; 0x249c
        0x000036ba:    4912        .I      LDR      r1,[pc,#72] ; [0x3704] = 0x20000000
        0x000036bc:    6888        .h      LDR      r0,[r1,#8]
        0x000036be:    1c40        @.      ADDS     r0,r0,#1
        0x000036c0:    6088        .`      STR      r0,[r1,#8]
        0x000036c2:    2287        ."      MOVS     r2,#0x87
        0x000036c4:    00d2        ..      LSLS     r2,r2,#3
        0x000036c6:    4290        .B      CMP      r0,r2
        0x000036c8:    d9d9        ..      BLS      0x367e ; UARTRX1_Handler + 2294
        0x000036ca:    e7b1        ..      B        0x3630 ; UARTRX1_Handler + 2216
        0x000036cc:    6820         h      LDR      r0,[r4,#0]
        0x000036ce:    f7fdfec5    ....    BL       APP_Display ; 0x145c
        0x000036d2:    200a        .       MOVS     r0,#0xa
        0x000036d4:    f000f8ac    ....    BL       delay_ms ; 0x3830
        0x000036d8:    6820         h      LDR      r0,[r4,#0]
        0x000036da:    f7fdfebf    ....    BL       APP_Display ; 0x145c
        0x000036de:    200a        .       MOVS     r0,#0xa
        0x000036e0:    f000f8a6    ....    BL       delay_ms ; 0x3830
        0x000036e4:    6820         h      LDR      r0,[r4,#0]
        0x000036e6:    f7fdfeb9    ....    BL       APP_Display ; 0x145c
        0x000036ea:    200a        .       MOVS     r0,#0xa
        0x000036ec:    f000f8a0    ....    BL       delay_ms ; 0x3830
        0x000036f0:    490a        .I      LDR      r1,[pc,#40] ; [0x371c] = 0xe000e100
        0x000036f2:    200f        .       MOVS     r0,#0xf
        0x000036f4:    6008        .`      STR      r0,[r1,#0]
        0x000036f6:    bdf8        ..      POP      {r3-r7,pc}
    $d
        0x000036f8:    000031a8    .1..    DCD    12712
        0x000036fc:    00000437    7...    DCD    1079
        0x00003700:    20000038    8..     DCD    536870968
        0x00003704:    20000000    ...     DCD    536870912
        0x00003708:    72616553    Sear    DCD    1918985555
        0x0000370c:    73206863    ch s    DCD    1931503715
        0x00003710:    65636375    ucce    DCD    1701012341
        0x00003714:    00007373    ss..    DCD    29555
        0x00003718:    40012000    . .@    DCD    1073815552
        0x0000371c:    e000e100    ....    DCD    3758153984
    $t
    i.VOLUME
    VOLUME
        0x00003720:    b510        ..      PUSH     {r4,lr}
        0x00003722:    f7fefe7b    ..{.    BL       SEG_Clear_all ; 0x241c
        0x00003726:    2101        .!      MOVS     r1,#1
        0x00003728:    200a        .       MOVS     r0,#0xa
        0x0000372a:    f000fa21    ..!.    BL       nixie_display_num ; 0x3b70
        0x0000372e:    2102        .!      MOVS     r1,#2
        0x00003730:    200a        .       MOVS     r0,#0xa
        0x00003732:    f000fa1d    ....    BL       nixie_display_num ; 0x3b70
        0x00003736:    2103        .!      MOVS     r1,#3
        0x00003738:    200a        .       MOVS     r0,#0xa
        0x0000373a:    f000fa19    ....    BL       nixie_display_num ; 0x3b70
        0x0000373e:    2104        .!      MOVS     r1,#4
        0x00003740:    200a        .       MOVS     r0,#0xa
        0x00003742:    f000fa15    ....    BL       nixie_display_num ; 0x3b70
        0x00003746:    480a        .H      LDR      r0,[pc,#40] ; [0x3770] = 0x20000028
        0x00003748:    6800        .h      LDR      r0,[r0,#0]
        0x0000374a:    f7fdfef5    ....    BL       Display_FM ; 0x1538
        0x0000374e:    2318        .#      MOVS     r3,#0x18
        0x00003750:    a208        ..      ADR      r2,{pc}+0x24 ; 0x3774
        0x00003752:    2106        .!      MOVS     r1,#6
        0x00003754:    2003        .       MOVS     r0,#3
        0x00003756:    f7fefdea    ....    BL       OLED_ShowString ; 0x232e
        0x0000375a:    20ff        .       MOVS     r0,#0xff
        0x0000375c:    30f5        .0      ADDS     r0,r0,#0xf5
        0x0000375e:    f000f867    ..g.    BL       delay_ms ; 0x3830
        0x00003762:    2318        .#      MOVS     r3,#0x18
        0x00003764:    a207        ..      ADR      r2,{pc}+0x20 ; 0x3784
        0x00003766:    2106        .!      MOVS     r1,#6
        0x00003768:    2003        .       MOVS     r0,#3
        0x0000376a:    f7fefde0    ....    BL       OLED_ShowString ; 0x232e
        0x0000376e:    bd10        ..      POP      {r4,pc}
    $d
        0x00003770:    20000028    (..     DCD    536870952
        0x00003774:    756c6f76    volu    DCD    1970040694
        0x00003778:    6120656d    me a    DCD    1629513069
        0x0000377c:    73756a64    djus    DCD    1937074788
        0x00003780:    00000074    t...    DCD    116
        0x00003784:    20202020            DCD    538976288
        0x00003788:    20202020            DCD    538976288
        0x0000378c:    20202020            DCD    538976288
        0x00003790:    00002020      ..    DCD    8224
    $t
    i.VOLUME_Display
    VOLUME_Display
        0x00003794:    b510        ..      PUSH     {r4,lr}
        0x00003796:    f7fefe41    ..A.    BL       SEG_Clear_all ; 0x241c
        0x0000379a:    4809        .H      LDR      r0,[pc,#36] ; [0x37c0] = 0x20000000
        0x0000379c:    2101        .!      MOVS     r1,#1
        0x0000379e:    7800        .x      LDRB     r0,[r0,#0]
        0x000037a0:    f000f9e6    ....    BL       nixie_display_num ; 0x3b70
        0x000037a4:    2102        .!      MOVS     r1,#2
        0x000037a6:    2000        .       MOVS     r0,#0
        0x000037a8:    f000f9e2    ....    BL       nixie_display_num ; 0x3b70
        0x000037ac:    2103        .!      MOVS     r1,#3
        0x000037ae:    2000        .       MOVS     r0,#0
        0x000037b0:    f000f9de    ....    BL       nixie_display_num ; 0x3b70
        0x000037b4:    2104        .!      MOVS     r1,#4
        0x000037b6:    200a        .       MOVS     r0,#0xa
        0x000037b8:    f000f9da    ....    BL       nixie_display_num ; 0x3b70
        0x000037bc:    bd10        ..      POP      {r4,pc}
    $d
        0x000037be:    0000        ..      DCW    0
        0x000037c0:    20000000    ...     DCD    536870912
    $t
    i.__ARM_common_ll_muluu
    __ARM_common_ll_muluu
        0x000037c4:    b5f8        ..      PUSH     {r3-r7,lr}
        0x000037c6:    0c04        ..      LSRS     r4,r0,#16
        0x000037c8:    b28b        ..      UXTH     r3,r1
        0x000037ca:    4626        &F      MOV      r6,r4
        0x000037cc:    b282        ..      UXTH     r2,r0
        0x000037ce:    435e        ^C      MULS     r6,r3,r6
        0x000037d0:    4610        .F      MOV      r0,r2
        0x000037d2:    4358        XC      MULS     r0,r3,r0
        0x000037d4:    0c0d        ..      LSRS     r5,r1,#16
        0x000037d6:    0c37        7.      LSRS     r7,r6,#16
        0x000037d8:    0436        6.      LSLS     r6,r6,#16
        0x000037da:    2100        .!      MOVS     r1,#0
        0x000037dc:    1980        ..      ADDS     r0,r0,r6
        0x000037de:    4616        .F      MOV      r6,r2
        0x000037e0:    4179        yA      ADCS     r1,r1,r7
        0x000037e2:    436e        nC      MULS     r6,r5,r6
        0x000037e4:    0c37        7.      LSRS     r7,r6,#16
        0x000037e6:    0436        6.      LSLS     r6,r6,#16
        0x000037e8:    1980        ..      ADDS     r0,r0,r6
        0x000037ea:    4626        &F      MOV      r6,r4
        0x000037ec:    4179        yA      ADCS     r1,r1,r7
        0x000037ee:    436e        nC      MULS     r6,r5,r6
        0x000037f0:    1989        ..      ADDS     r1,r1,r6
        0x000037f2:    bdf8        ..      POP      {r3-r7,pc}
    i.__ARM_fpclassify
    __ARM_fpclassify
        0x000037f4:    0049        I.      LSLS     r1,r1,#1
        0x000037f6:    02ca        ..      LSLS     r2,r1,#11
        0x000037f8:    4302        .C      ORRS     r2,r2,r0
        0x000037fa:    0010        ..      MOVS     r0,r2
        0x000037fc:    d000        ..      BEQ      0x3800 ; __ARM_fpclassify + 12
        0x000037fe:    2004        .       MOVS     r0,#4
        0x00003800:    0d4a        J.      LSRS     r2,r1,#21
        0x00003802:    d001        ..      BEQ      0x3808 ; __ARM_fpclassify + 20
        0x00003804:    2201        ."      MOVS     r2,#1
        0x00003806:    4310        .C      ORRS     r0,r0,r2
        0x00003808:    4a04        .J      LDR      r2,[pc,#16] ; [0x381c] = 0x7ff
        0x0000380a:    0d49        I.      LSRS     r1,r1,#21
        0x0000380c:    4291        .B      CMP      r1,r2
        0x0000380e:    d101        ..      BNE      0x3814 ; __ARM_fpclassify + 32
        0x00003810:    2102        .!      MOVS     r1,#2
        0x00003812:    4308        .C      ORRS     r0,r0,r1
        0x00003814:    2801        .(      CMP      r0,#1
        0x00003816:    d100        ..      BNE      0x381a ; __ARM_fpclassify + 38
        0x00003818:    2005        .       MOVS     r0,#5
        0x0000381a:    4770        pG      BX       lr
    $d
        0x0000381c:    000007ff    ....    DCD    2047
    $t
    i._is_digit
    _is_digit
        0x00003820:    3830        08      SUBS     r0,r0,#0x30
        0x00003822:    280a        .(      CMP      r0,#0xa
        0x00003824:    d201        ..      BCS      0x382a ; _is_digit + 10
        0x00003826:    2001        .       MOVS     r0,#1
        0x00003828:    4770        pG      BX       lr
        0x0000382a:    2000        .       MOVS     r0,#0
        0x0000382c:    4770        pG      BX       lr
        0x0000382e:    0000        ..      MOVS     r0,r0
    i.delay_ms
    delay_ms
        0x00003830:    4b05        .K      LDR      r3,[pc,#20] ; [0x3848] = 0x1ac5
        0x00003832:    e005        ..      B        0x3840 ; delay_ms + 16
        0x00003834:    4619        .F      MOV      r1,r3
        0x00003836:    460a        .F      MOV      r2,r1
        0x00003838:    1e49        I.      SUBS     r1,r1,#1
        0x0000383a:    b289        ..      UXTH     r1,r1
        0x0000383c:    2a00        .*      CMP      r2,#0
        0x0000383e:    d1fa        ..      BNE      0x3836 ; delay_ms + 6
        0x00003840:    1e40        @.      SUBS     r0,r0,#1
        0x00003842:    1c41        A.      ADDS     r1,r0,#1
        0x00003844:    d1f6        ..      BNE      0x3834 ; delay_ms + 4
        0x00003846:    4770        pG      BX       lr
    $d
        0x00003848:    00001ac5    ....    DCD    6853
    $t
    i.delay_us
    delay_us
        0x0000384c:    e005        ..      B        0x385a ; delay_us + 14
        0x0000384e:    2104        .!      MOVS     r1,#4
        0x00003850:    460a        .F      MOV      r2,r1
        0x00003852:    1e49        I.      SUBS     r1,r1,#1
        0x00003854:    b289        ..      UXTH     r1,r1
        0x00003856:    2a00        .*      CMP      r2,#0
        0x00003858:    d1fa        ..      BNE      0x3850 ; delay_us + 4
        0x0000385a:    1e40        @.      SUBS     r0,r0,#1
        0x0000385c:    1c41        A.      ADDS     r1,r0,#1
        0x0000385e:    d1f6        ..      BNE      0x384e ; delay_us + 2
        0x00003860:    4802        .H      LDR      r0,[pc,#8] ; [0x386c] = 0x20000034
        0x00003862:    6001        .`      STR      r1,[r0,#0]
        0x00003864:    6801        .h      LDR      r1,[r0,#0]
        0x00003866:    2930        0)      CMP      r1,#0x30
        0x00003868:    d0fc        ..      BEQ      0x3864 ; delay_us + 24
        0x0000386a:    4770        pG      BX       lr
    $d
        0x0000386c:    20000034    4..     DCD    536870964
    $t
    i.main
    main
        0x00003870:    b51f        ..      PUSH     {r0-r4,lr}
        0x00003872:    2400        .$      MOVS     r4,#0
        0x00003874:    4892        .H      LDR      r0,[pc,#584] ; [0x3ac0] = 0x20000020
        0x00003876:    6800        .h      LDR      r0,[r0,#0]
        0x00003878:    4992        .I      LDR      r1,[pc,#584] ; [0x3ac4] = 0xffffff
        0x0000387a:    1e80        ..      SUBS     r0,r0,#2
        0x0000387c:    2600        .&      MOVS     r6,#0
        0x0000387e:    4288        .B      CMP      r0,r1
        0x00003880:    d80b        ..      BHI      0x389a ; main + 42
        0x00003882:    4991        .I      LDR      r1,[pc,#580] ; [0x3ac8] = 0xe000e000
        0x00003884:    6148        Ha      STR      r0,[r1,#0x14]
        0x00003886:    4a91        .J      LDR      r2,[pc,#580] ; [0x3acc] = 0xe000ed04
        0x00003888:    2307        .#      MOVS     r3,#7
        0x0000388a:    69d0        .i      LDR      r0,[r2,#0x1c]
        0x0000388c:    0200        ..      LSLS     r0,r0,#8
        0x0000388e:    0a00        ..      LSRS     r0,r0,#8
        0x00003890:    044d        M.      LSLS     r5,r1,#17
        0x00003892:    4328        (C      ORRS     r0,r0,r5
        0x00003894:    61d0        .a      STR      r0,[r2,#0x1c]
        0x00003896:    618e        .a      STR      r6,[r1,#0x18]
        0x00003898:    610b        .a      STR      r3,[r1,#0x10]
        0x0000389a:    f7fefb05    ....    BL       MSI001_Init ; 0x1ea8
        0x0000389e:    2501        .%      MOVS     r5,#1
        0x000038a0:    2600        .&      MOVS     r6,#0
        0x000038a2:    4f8b        .O      LDR      r7,[pc,#556] ; [0x3ad0] = 0x9c4
        0x000038a4:    9600        ..      STR      r6,[sp,#0]
        0x000038a6:    9501        ..      STR      r5,[sp,#4]
        0x000038a8:    462b        +F      MOV      r3,r5
        0x000038aa:    462a        *F      MOV      r2,r5
        0x000038ac:    4639        9F      MOV      r1,r7
        0x000038ae:    4889        .H      LDR      r0,[pc,#548] ; [0x3ad4] = 0x40005000
        0x000038b0:    9602        ..      STR      r6,[sp,#8]
        0x000038b2:    9503        ..      STR      r5,[sp,#0xc]
        0x000038b4:    f7fdfe10    ....    BL       CMSDK_uart_init ; 0x14d8
        0x000038b8:    2301        .#      MOVS     r3,#1
        0x000038ba:    9600        ..      STR      r6,[sp,#0]
        0x000038bc:    9501        ..      STR      r5,[sp,#4]
        0x000038be:    461a        .F      MOV      r2,r3
        0x000038c0:    4639        9F      MOV      r1,r7
        0x000038c2:    4885        .H      LDR      r0,[pc,#532] ; [0x3ad8] = 0x40004000
        0x000038c4:    9602        ..      STR      r6,[sp,#8]
        0x000038c6:    9503        ..      STR      r5,[sp,#0xc]
        0x000038c8:    f7fdfe06    ....    BL       CMSDK_uart_init ; 0x14d8
        0x000038cc:    f7fefbc6    ....    BL       OLED_Init ; 0x205c
        0x000038d0:    f7fef840    ..@.    BL       LCD_Init ; 0x1954
        0x000038d4:    f7fefb6e    ..n.    BL       OLED_Clear ; 0x1fb4
        0x000038d8:    2019        .       MOVS     r0,#0x19
        0x000038da:    f7fdfe25    ..%.    BL       Damping_Control ; 0x1528
        0x000038de:    4d7f        .M      LDR      r5,[pc,#508] ; [0x3adc] = 0x20000028
        0x000038e0:    6828        (h      LDR      r0,[r5,#0]
        0x000038e2:    f7fdfec9    ....    BL       FM_Select ; 0x1678
        0x000038e6:    6828        (h      LDR      r0,[r5,#0]
        0x000038e8:    f7fdfe26    ..&.    BL       Display_FM ; 0x1538
        0x000038ec:    2318        .#      MOVS     r3,#0x18
        0x000038ee:    a27c        |.      ADR      r2,{pc}+0x1f2 ; 0x3ae0
        0x000038f0:    2100        .!      MOVS     r1,#0
        0x000038f2:    202d        -       MOVS     r0,#0x2d
        0x000038f4:    f7fefd1b    ....    BL       OLED_ShowString ; 0x232e
        0x000038f8:    6828        (h      LDR      r0,[r5,#0]
        0x000038fa:    f7fefc37    ..7.    BL       OLED_SHOW_FM ; 0x216c
        0x000038fe:    487a        zH      LDR      r0,[pc,#488] ; [0x3ae8] = 0x2fd
        0x00003900:    f7fefc5c    ..\.    BL       OLED_SHOW_QN ; 0x21bc
        0x00003904:    6828        (h      LDR      r0,[r5,#0]
        0x00003906:    f7fefc31    ..1.    BL       OLED_SHOW_FM ; 0x216c
        0x0000390a:    f7fefe03    ....    BL       Show_Maps ; 0x2514
        0x0000390e:    4977        wI      LDR      r1,[pc,#476] ; [0x3aec] = 0xe000e100
        0x00003910:    200f        .       MOVS     r0,#0xf
        0x00003912:    6008        .`      STR      r0,[r1,#0]
        0x00003914:    6828        (h      LDR      r0,[r5,#0]
        0x00003916:    f7fdfda1    ....    BL       APP_Display ; 0x145c
        0x0000391a:    4f75        uO      LDR      r7,[pc,#468] ; [0x3af0] = 0x20000038
        0x0000391c:    f7fdfedc    ....    BL       GetKEYNUM ; 0x16d8
        0x00003920:    280a        .(      CMP      r0,#0xa
        0x00003922:    d040        @.      BEQ      0x39a6 ; main + 310
        0x00003924:    f7fdfed8    ....    BL       GetKEYNUM ; 0x16d8
        0x00003928:    2828        ((      CMP      r0,#0x28
        0x0000392a:    d048        H.      BEQ      0x39be ; main + 334
        0x0000392c:    f7fdfed4    ....    BL       GetKEYNUM ; 0x16d8
        0x00003930:    2832        2(      CMP      r0,#0x32
        0x00003932:    d050        P.      BEQ      0x39d6 ; main + 358
        0x00003934:    f7fdfed0    ....    BL       GetKEYNUM ; 0x16d8
        0x00003938:    283c        <(      CMP      r0,#0x3c
        0x0000393a:    d058        X.      BEQ      0x39ee ; main + 382
        0x0000393c:    f7fdfecc    ....    BL       GetKEYNUM ; 0x16d8
        0x00003940:    2846        F(      CMP      r0,#0x46
        0x00003942:    d072        r.      BEQ      0x3a2a ; main + 442
        0x00003944:    f7fdfec8    ....    BL       GetKEYNUM ; 0x16d8
        0x00003948:    2850        P(      CMP      r0,#0x50
        0x0000394a:    d1e7        ..      BNE      0x391c ; main + 172
        0x0000394c:    f7fff8ac    ....    BL       TAKE ; 0x2aa8
        0x00003950:    f7fefd64    ..d.    BL       SEG_Clear_all ; 0x241c
        0x00003954:    00a0        ..      LSLS     r0,r4,#2
        0x00003956:    5838        8X      LDR      r0,[r7,r0]
        0x00003958:    f7fdfdee    ....    BL       Display_FM ; 0x1538
        0x0000395c:    f7fdfebc    ....    BL       GetKEYNUM ; 0x16d8
        0x00003960:    2828        ((      CMP      r0,#0x28
        0x00003962:    d071        q.      BEQ      0x3a48 ; main + 472
        0x00003964:    f7fdfeb8    ....    BL       GetKEYNUM ; 0x16d8
        0x00003968:    2832        2(      CMP      r0,#0x32
        0x0000396a:    d06e        n.      BEQ      0x3a4a ; main + 474
        0x0000396c:    f7fdfeb4    ....    BL       GetKEYNUM ; 0x16d8
        0x00003970:    2850        P(      CMP      r0,#0x50
        0x00003972:    d1ef        ..      BNE      0x3954 ; main + 228
        0x00003974:    00a6        ..      LSLS     r6,r4,#2
        0x00003976:    59b8        .Y      LDR      r0,[r7,r6]
        0x00003978:    f7fdfe7e    ..~.    BL       FM_Select ; 0x1678
        0x0000397c:    59b8        .Y      LDR      r0,[r7,r6]
        0x0000397e:    6028        (`      STR      r0,[r5,#0]
        0x00003980:    f7fefbf4    ....    BL       OLED_SHOW_FM ; 0x216c
        0x00003984:    2318        .#      MOVS     r3,#0x18
        0x00003986:    a25b        [.      ADR      r2,{pc}+0x16e ; 0x3af4
        0x00003988:    2106        .!      MOVS     r1,#6
        0x0000398a:    2003        .       MOVS     r0,#3
        0x0000398c:    f7fefccf    ....    BL       OLED_ShowString ; 0x232e
        0x00003990:    20ff        .       MOVS     r0,#0xff
        0x00003992:    30f5        .0      ADDS     r0,r0,#0xf5
        0x00003994:    f7ffff4c    ..L.    BL       delay_ms ; 0x3830
        0x00003998:    2318        .#      MOVS     r3,#0x18
        0x0000399a:    a25a        Z.      ADR      r2,{pc}+0x16a ; 0x3b04
        0x0000399c:    2106        .!      MOVS     r1,#6
        0x0000399e:    2003        .       MOVS     r0,#3
        0x000039a0:    f7fefcc5    ....    BL       OLED_ShowString ; 0x232e
        0x000039a4:    e7ba        ..      B        0x391c ; main + 172
        0x000039a6:    f7fff8a7    ....    BL       Type_NUM ; 0x2af8
        0x000039aa:    6028        (`      STR      r0,[r5,#0]
        0x000039ac:    f7fdfdc4    ....    BL       Display_FM ; 0x1538
        0x000039b0:    6828        (h      LDR      r0,[r5,#0]
        0x000039b2:    f7fdfe61    ..a.    BL       FM_Select ; 0x1678
        0x000039b6:    6828        (h      LDR      r0,[r5,#0]
        0x000039b8:    f7fefbd8    ....    BL       OLED_SHOW_FM ; 0x216c
        0x000039bc:    e7ae        ..      B        0x391c ; main + 172
        0x000039be:    6828        (h      LDR      r0,[r5,#0]
        0x000039c0:    1e40        @.      SUBS     r0,r0,#1
        0x000039c2:    6028        (`      STR      r0,[r5,#0]
        0x000039c4:    f7fdfdb8    ....    BL       Display_FM ; 0x1538
        0x000039c8:    6828        (h      LDR      r0,[r5,#0]
        0x000039ca:    f7fdfe55    ..U.    BL       FM_Select ; 0x1678
        0x000039ce:    6828        (h      LDR      r0,[r5,#0]
        0x000039d0:    f7fefbcc    ....    BL       OLED_SHOW_FM ; 0x216c
        0x000039d4:    e7a2        ..      B        0x391c ; main + 172
        0x000039d6:    6828        (h      LDR      r0,[r5,#0]
        0x000039d8:    1c40        @.      ADDS     r0,r0,#1
        0x000039da:    6028        (`      STR      r0,[r5,#0]
        0x000039dc:    f7fdfdac    ....    BL       Display_FM ; 0x1538
        0x000039e0:    6828        (h      LDR      r0,[r5,#0]
        0x000039e2:    f7fdfe49    ..I.    BL       FM_Select ; 0x1678
        0x000039e6:    6828        (h      LDR      r0,[r5,#0]
        0x000039e8:    f7fefbc0    ....    BL       OLED_SHOW_FM ; 0x216c
        0x000039ec:    e796        ..      B        0x391c ; main + 172
        0x000039ee:    4e49        IN      LDR      r6,[pc,#292] ; [0x3b14] = 0x20000000
        0x000039f0:    8870        p.      LDRH     r0,[r6,#2]
        0x000039f2:    2801        .(      CMP      r0,#1
        0x000039f4:    d01a        ..      BEQ      0x3a2c ; main + 444
        0x000039f6:    2800        .(      CMP      r0,#0
        0x000039f8:    d190        ..      BNE      0x391c ; main + 172
        0x000039fa:    7830        0x      LDRB     r0,[r6,#0]
        0x000039fc:    f7fefd18    ....    BL       START_AND_STOP ; 0x2430
        0x00003a00:    2001        .       MOVS     r0,#1
        0x00003a02:    8070        p.      STRH     r0,[r6,#2]
        0x00003a04:    6828        (h      LDR      r0,[r5,#0]
        0x00003a06:    f7fdfd97    ....    BL       Display_FM ; 0x1538
        0x00003a0a:    f7fefad3    ....    BL       OLED_Clear ; 0x1fb4
        0x00003a0e:    6828        (h      LDR      r0,[r5,#0]
        0x00003a10:    f7fefbac    ....    BL       OLED_SHOW_FM ; 0x216c
        0x00003a14:    4834        4H      LDR      r0,[pc,#208] ; [0x3ae8] = 0x2fd
        0x00003a16:    30dc        .0      ADDS     r0,r0,#0xdc
        0x00003a18:    f7fefbd0    ....    BL       OLED_SHOW_QN ; 0x21bc
        0x00003a1c:    2318        .#      MOVS     r3,#0x18
        0x00003a1e:    a230        0.      ADR      r2,{pc}+0xc2 ; 0x3ae0
        0x00003a20:    2100        .!      MOVS     r1,#0
        0x00003a22:    202d        -       MOVS     r0,#0x2d
        0x00003a24:    f7fefc83    ....    BL       OLED_ShowString ; 0x232e
        0x00003a28:    e778        x.      B        0x391c ; main + 172
        0x00003a2a:    e00f        ..      B        0x3a4c ; main + 476
        0x00003a2c:    2000        .       MOVS     r0,#0
        0x00003a2e:    f7fefcff    ....    BL       START_AND_STOP ; 0x2430
        0x00003a32:    2000        .       MOVS     r0,#0
        0x00003a34:    8070        p.      STRH     r0,[r6,#2]
        0x00003a36:    f7fefd1d    ....    BL       STOP ; 0x2474
        0x00003a3a:    2318        .#      MOVS     r3,#0x18
        0x00003a3c:    a236        6.      ADR      r2,{pc}+0xdc ; 0x3b18
        0x00003a3e:    2106        .!      MOVS     r1,#6
        0x00003a40:    2026        &       MOVS     r0,#0x26
        0x00003a42:    f7fefc74    ..t.    BL       OLED_ShowString ; 0x232e
        0x00003a46:    e769        i.      B        0x391c ; main + 172
        0x00003a48:    e035        5.      B        0x3ab6 ; main + 582
        0x00003a4a:    e036        6.      B        0x3aba ; main + 586
        0x00003a4c:    f7fefce6    ....    BL       SEG_Clear_all ; 0x241c
        0x00003a50:    f7fffe66    ..f.    BL       VOLUME ; 0x3720
        0x00003a54:    f7fffe9e    ....    BL       VOLUME_Display ; 0x3794
        0x00003a58:    4e2e        .N      LDR      r6,[pc,#184] ; [0x3b14] = 0x20000000
        0x00003a5a:    f7fdfe3d    ..=.    BL       GetKEYNUM ; 0x16d8
        0x00003a5e:    281e        .(      CMP      r0,#0x1e
        0x00003a60:    d0fb        ..      BEQ      0x3a5a ; main + 490
        0x00003a62:    f7fdfe39    ..9.    BL       GetKEYNUM ; 0x16d8
        0x00003a66:    2828        ((      CMP      r0,#0x28
        0x00003a68:    d013        ..      BEQ      0x3a92 ; main + 546
        0x00003a6a:    f7fdfe35    ..5.    BL       GetKEYNUM ; 0x16d8
        0x00003a6e:    2832        2(      CMP      r0,#0x32
        0x00003a70:    d018        ..      BEQ      0x3aa4 ; main + 564
        0x00003a72:    f7fdfe31    ..1.    BL       GetKEYNUM ; 0x16d8
        0x00003a76:    2846        F(      CMP      r0,#0x46
        0x00003a78:    d1ef        ..      BNE      0x3a5a ; main + 490
        0x00003a7a:    f7fffe51    ..Q.    BL       VOLUME ; 0x3720
        0x00003a7e:    6828        (h      LDR      r0,[r5,#0]
        0x00003a80:    f7fdfd5a    ..Z.    BL       Display_FM ; 0x1538
        0x00003a84:    6828        (h      LDR      r0,[r5,#0]
        0x00003a86:    f7fdfdf7    ....    BL       FM_Select ; 0x1678
        0x00003a8a:    6828        (h      LDR      r0,[r5,#0]
        0x00003a8c:    f7fefb6e    ..n.    BL       OLED_SHOW_FM ; 0x216c
        0x00003a90:    e744        D.      B        0x391c ; main + 172
        0x00003a92:    7830        0x      LDRB     r0,[r6,#0]
        0x00003a94:    1e40        @.      SUBS     r0,r0,#1
        0x00003a96:    b2c0        ..      UXTB     r0,r0
        0x00003a98:    7030        0p      STRB     r0,[r6,#0]
        0x00003a9a:    f7fefcc9    ....    BL       START_AND_STOP ; 0x2430
        0x00003a9e:    f7fffe79    ..y.    BL       VOLUME_Display ; 0x3794
        0x00003aa2:    e7da        ..      B        0x3a5a ; main + 490
        0x00003aa4:    7830        0x      LDRB     r0,[r6,#0]
        0x00003aa6:    1c40        @.      ADDS     r0,r0,#1
        0x00003aa8:    b2c0        ..      UXTB     r0,r0
        0x00003aaa:    7030        0p      STRB     r0,[r6,#0]
        0x00003aac:    f7fefcc0    ....    BL       START_AND_STOP ; 0x2430
        0x00003ab0:    f7fffe70    ..p.    BL       VOLUME_Display ; 0x3794
        0x00003ab4:    e7d1        ..      B        0x3a5a ; main + 490
        0x00003ab6:    1e64        d.      SUBS     r4,r4,#1
        0x00003ab8:    e74c        L.      B        0x3954 ; main + 228
        0x00003aba:    1c64        d.      ADDS     r4,r4,#1
        0x00003abc:    e74a        J.      B        0x3954 ; main + 228
    $d
        0x00003abe:    0000        ..      DCW    0
        0x00003ac0:    20000020     ..     DCD    536870944
        0x00003ac4:    00ffffff    ....    DCD    16777215
        0x00003ac8:    e000e000    ....    DCD    3758153728
        0x00003acc:    e000ed04    ....    DCD    3758157060
        0x00003ad0:    000009c4    ....    DCD    2500
        0x00003ad4:    40005000    .P.@    DCD    1073762304
        0x00003ad8:    40004000    .@.@    DCD    1073758208
        0x00003adc:    20000028    (..     DCD    536870952
        0x00003ae0:    4554454d    METE    DCD    1163150669
        0x00003ae4:    0000004f    O...    DCD    79
        0x00003ae8:    000002fd    ....    DCD    765
        0x00003aec:    e000e100    ....    DCD    3758153984
        0x00003af0:    20000038    8..     DCD    536870968
        0x00003af4:    656b6174    take    DCD    1701536116
        0x00003af8:    63757320     suc    DCD    1668641568
        0x00003afc:    73736563    cess    DCD    1936942435
        0x00003b00:    00000000    ....    DCD    0
        0x00003b04:    20202020            DCD    538976288
        0x00003b08:    20202020            DCD    538976288
        0x00003b0c:    20202020            DCD    538976288
        0x00003b10:    00002020      ..    DCD    8224
        0x00003b14:    20000000    ...     DCD    536870912
        0x00003b18:    504f5453    STOP    DCD    1347376211
        0x00003b1c:    00002121    !!..    DCD    8481
    $t
    i.mypow
    mypow
        0x00003b20:    4603        .F      MOV      r3,r0
        0x00003b22:    2001        .       MOVS     r0,#1
        0x00003b24:    e000        ..      B        0x3b28 ; mypow + 8
        0x00003b26:    4358        XC      MULS     r0,r3,r0
        0x00003b28:    460a        .F      MOV      r2,r1
        0x00003b2a:    1e49        I.      SUBS     r1,r1,#1
        0x00003b2c:    b2c9        ..      UXTB     r1,r1
        0x00003b2e:    2a00        .*      CMP      r2,#0
        0x00003b30:    d1f9        ..      BNE      0x3b26 ; mypow + 6
        0x00003b32:    4770        pG      BX       lr
    i.nixie_display_dos
    nixie_display_dos
        0x00003b34:    4a0c        .J      LDR      r2,[pc,#48] ; [0x3b68] = 0x20000024
        0x00003b36:    4b0d        .K      LDR      r3,[pc,#52] ; [0x3b6c] = 0x40011000
        0x00003b38:    6811        .h      LDR      r1,[r2,#0]
        0x00003b3a:    2801        .(      CMP      r0,#1
        0x00003b3c:    d009        ..      BEQ      0x3b52 ; nixie_display_dos + 30
        0x00003b3e:    2802        .(      CMP      r0,#2
        0x00003b40:    d00c        ..      BEQ      0x3b5c ; nixie_display_dos + 40
        0x00003b42:    2803        .(      CMP      r0,#3
        0x00003b44:    d104        ..      BNE      0x3b50 ; nixie_display_dos + 28
        0x00003b46:    2001        .       MOVS     r0,#1
        0x00003b48:    04c0        ..      LSLS     r0,r0,#19
        0x00003b4a:    4301        .C      ORRS     r1,r1,r0
        0x00003b4c:    6011        .`      STR      r1,[r2,#0]
        0x00003b4e:    6019        .`      STR      r1,[r3,#0]
        0x00003b50:    4770        pG      BX       lr
        0x00003b52:    2010        .       MOVS     r0,#0x10
        0x00003b54:    4301        .C      ORRS     r1,r1,r0
        0x00003b56:    6011        .`      STR      r1,[r2,#0]
        0x00003b58:    6019        .`      STR      r1,[r3,#0]
        0x00003b5a:    4770        pG      BX       lr
        0x00003b5c:    2001        .       MOVS     r0,#1
        0x00003b5e:    0240        @.      LSLS     r0,r0,#9
        0x00003b60:    4301        .C      ORRS     r1,r1,r0
        0x00003b62:    6011        .`      STR      r1,[r2,#0]
        0x00003b64:    6019        .`      STR      r1,[r3,#0]
        0x00003b66:    4770        pG      BX       lr
    $d
        0x00003b68:    20000024    $..     DCD    536870948
        0x00003b6c:    40011000    ...@    DCD    1073811456
    $t
    i.nixie_display_num
    nixie_display_num
        0x00003b70:    b510        ..      PUSH     {r4,lr}
        0x00003b72:    4b13        .K      LDR      r3,[pc,#76] ; [0x3bc0] = 0x20000024
        0x00003b74:    4c13        .L      LDR      r4,[pc,#76] ; [0x3bc4] = 0x40011000
        0x00003b76:    681a        .h      LDR      r2,[r3,#0]
        0x00003b78:    2901        .)      CMP      r1,#1
        0x00003b7a:    d00c        ..      BEQ      0x3b96 ; nixie_display_num + 38
        0x00003b7c:    2902        .)      CMP      r1,#2
        0x00003b7e:    d010        ..      BEQ      0x3ba2 ; nixie_display_num + 50
        0x00003b80:    2903        .)      CMP      r1,#3
        0x00003b82:    d015        ..      BEQ      0x3bb0 ; nixie_display_num + 64
        0x00003b84:    2904        .)      CMP      r1,#4
        0x00003b86:    d105        ..      BNE      0x3b94 ; nixie_display_num + 36
        0x00003b88:    490f        .I      LDR      r1,[pc,#60] ; [0x3bc8] = 0x87fff
        0x00003b8a:    03c0        ..      LSLS     r0,r0,#15
        0x00003b8c:    400a        .@      ANDS     r2,r2,r1
        0x00003b8e:    4302        .C      ORRS     r2,r2,r0
        0x00003b90:    601a        .`      STR      r2,[r3,#0]
        0x00003b92:    6022        "`      STR      r2,[r4,#0]
        0x00003b94:    bd10        ..      POP      {r4,pc}
        0x00003b96:    490d        .I      LDR      r1,[pc,#52] ; [0x3bcc] = 0xffff0
        0x00003b98:    400a        .@      ANDS     r2,r2,r1
        0x00003b9a:    4302        .C      ORRS     r2,r2,r0
        0x00003b9c:    601a        .`      STR      r2,[r3,#0]
        0x00003b9e:    6022        "`      STR      r2,[r4,#0]
        0x00003ba0:    bd10        ..      POP      {r4,pc}
        0x00003ba2:    490b        .I      LDR      r1,[pc,#44] ; [0x3bd0] = 0xffe1f
        0x00003ba4:    0140        @.      LSLS     r0,r0,#5
        0x00003ba6:    400a        .@      ANDS     r2,r2,r1
        0x00003ba8:    4302        .C      ORRS     r2,r2,r0
        0x00003baa:    601a        .`      STR      r2,[r3,#0]
        0x00003bac:    6022        "`      STR      r2,[r4,#0]
        0x00003bae:    bd10        ..      POP      {r4,pc}
        0x00003bb0:    4908        .I      LDR      r1,[pc,#32] ; [0x3bd4] = 0xfc3ff
        0x00003bb2:    0280        ..      LSLS     r0,r0,#10
        0x00003bb4:    400a        .@      ANDS     r2,r2,r1
        0x00003bb6:    4302        .C      ORRS     r2,r2,r0
        0x00003bb8:    601a        .`      STR      r2,[r3,#0]
        0x00003bba:    6022        "`      STR      r2,[r4,#0]
        0x00003bbc:    bd10        ..      POP      {r4,pc}
    $d
        0x00003bbe:    0000        ..      DCW    0
        0x00003bc0:    20000024    $..     DCD    536870948
        0x00003bc4:    40011000    ...@    DCD    1073811456
        0x00003bc8:    00087fff    ....    DCD    557055
        0x00003bcc:    000ffff0    ....    DCD    1048560
        0x00003bd0:    000ffe1f    ....    DCD    1048095
        0x00003bd4:    000fc3ff    ....    DCD    1033215
    $t
    i.oled_pow
    oled_pow
        0x00003bd8:    4603        .F      MOV      r3,r0
        0x00003bda:    2001        .       MOVS     r0,#1
        0x00003bdc:    e000        ..      B        0x3be0 ; oled_pow + 8
        0x00003bde:    4358        XC      MULS     r0,r3,r0
        0x00003be0:    460a        .F      MOV      r2,r1
        0x00003be2:    1e49        I.      SUBS     r1,r1,#1
        0x00003be4:    b2c9        ..      UXTB     r1,r1
        0x00003be6:    2a00        .*      CMP      r2,#0
        0x00003be8:    d1f9        ..      BNE      0x3bde ; oled_pow + 6
        0x00003bea:    4770        pG      BX       lr
    locale$$code
    _get_lc_numeric
        0x00003bec:    b510        ..      PUSH     {r4,lr}
        0x00003bee:    2900        .)      CMP      r1,#0
        0x00003bf0:    d00a        ..      BEQ      0x3c08 ; _get_lc_numeric + 28
        0x00003bf2:    7808        .x      LDRB     r0,[r1,#0]
        0x00003bf4:    2800        .(      CMP      r0,#0
        0x00003bf6:    d007        ..      BEQ      0x3c08 ; _get_lc_numeric + 28
        0x00003bf8:    4805        .H      LDR      r0,[pc,#20] ; [0x3c10] = 0x3f52
        0x00003bfa:    4478        xD      ADD      r0,r0,pc
        0x00003bfc:    f7fdfbe2    ....    BL       strcmp ; 0x13c4
        0x00003c00:    2800        .(      CMP      r0,#0
        0x00003c02:    d001        ..      BEQ      0x3c08 ; _get_lc_numeric + 28
        0x00003c04:    2000        .       MOVS     r0,#0
        0x00003c06:    bd10        ..      POP      {r4,pc}
        0x00003c08:    4802        .H      LDR      r0,[pc,#8] ; [0x3c14] = 0x3f4a
        0x00003c0a:    4478        xD      ADD      r0,r0,pc
        0x00003c0c:    bd10        ..      POP      {r4,pc}
    $d
        0x00003c0e:    0000        ..      DCW    0
        0x00003c10:    00003f52    R?..    DCD    16210
        0x00003c14:    00003f4a    J?..    DCD    16202
    $t
    x$fpl$fadd
    __aeabi_fadd
    _fadd
        0x00003c18:    b570        p.      PUSH     {r4-r6,lr}
        0x00003c1a:    2501        .%      MOVS     r5,#1
        0x00003c1c:    0004        ..      MOVS     r4,r0
        0x00003c1e:    07ed        ..      LSLS     r5,r5,#31
        0x00003c20:    404c        L@      EORS     r4,r4,r1
        0x00003c22:    d420         .      BMI      0x3c66 ; _fadd1 + 66
    _fadd1
        0x00003c24:    1a44        D.      SUBS     r4,r0,r1
        0x00003c26:    d201        ..      BCS      0x3c2c ; _fadd1 + 8
        0x00003c28:    1b00        ..      SUBS     r0,r0,r4
        0x00003c2a:    1909        ..      ADDS     r1,r1,r4
        0x00003c2c:    0dc6        ..      LSRS     r6,r0,#23
        0x00003c2e:    004b        K.      LSLS     r3,r1,#1
        0x00003c30:    b2f2        ..      UXTB     r2,r6
        0x00003c32:    2aff        .*      CMP      r2,#0xff
        0x00003c34:    d029        ).      BEQ      0x3c8a ; _fadd1 + 102
        0x00003c36:    0e1b        ..      LSRS     r3,r3,#24
        0x00003c38:    d02c        ,.      BEQ      0x3c94 ; _fadd1 + 112
        0x00003c3a:    0200        ..      LSLS     r0,r0,#8
        0x00003c3c:    020c        ..      LSLS     r4,r1,#8
        0x00003c3e:    1ad3        ..      SUBS     r3,r2,r3
        0x00003c40:    432c        ,C      ORRS     r4,r4,r5
        0x00003c42:    40dc        .@      LSRS     r4,r4,r3
        0x00003c44:    4328        (C      ORRS     r0,r0,r5
        0x00003c46:    1905        ..      ADDS     r5,r0,r4
        0x00003c48:    d210        ..      BCS      0x3c6c ; _fadd1 + 72
        0x00003c4a:    0a28        (.      LSRS     r0,r5,#8
        0x00003c4c:    d302        ..      BCC      0x3c54 ; _fadd1 + 48
        0x00003c4e:    1c40        @.      ADDS     r0,r0,#1
        0x00003c50:    066d        m.      LSLS     r5,r5,#25
        0x00003c52:    d011        ..      BEQ      0x3c78 ; _fadd1 + 84
        0x00003c54:    1e76        v.      SUBS     r6,r6,#1
        0x00003c56:    05f6        ..      LSLS     r6,r6,#23
        0x00003c58:    1980        ..      ADDS     r0,r0,r6
        0x00003c5a:    2aff        .*      CMP      r2,#0xff
        0x00003c5c:    da00        ..      BGE      0x3c60 ; _fadd1 + 60
        0x00003c5e:    bd70        p.      POP      {r4-r6,pc}
        0x00003c60:    0dc0        ..      LSRS     r0,r0,#23
        0x00003c62:    05c0        ..      LSLS     r0,r0,#23
        0x00003c64:    bd70        p.      POP      {r4-r6,pc}
        0x00003c66:    4069        i@      EORS     r1,r1,r5
        0x00003c68:    f000f886    ....    BL       _fsub1 ; 0x3d78
        0x00003c6c:    2001        .       MOVS     r0,#1
        0x00003c6e:    4305        .C      ORRS     r5,r5,r0
        0x00003c70:    41c5        .A      RORS     r5,r5,r0
        0x00003c72:    1c52        R.      ADDS     r2,r2,#1
        0x00003c74:    1c76        v.      ADDS     r6,r6,#1
        0x00003c76:    e7e8        ..      B        0x3c4a ; _fadd1 + 38
        0x00003c78:    0864        d.      LSRS     r4,r4,#1
        0x00003c7a:    409c        .@      LSLS     r4,r4,r3
        0x00003c7c:    01c9        ..      LSLS     r1,r1,#7
        0x00003c7e:    4061        a@      EORS     r1,r1,r4
        0x00003c80:    0089        ..      LSLS     r1,r1,#2
        0x00003c82:    d1e7        ..      BNE      0x3c54 ; _fadd1 + 48
        0x00003c84:    2401        .$      MOVS     r4,#1
        0x00003c86:    43a0        .C      BICS     r0,r0,r4
        0x00003c88:    e7e4        ..      B        0x3c54 ; _fadd1 + 48
        0x00003c8a:    0e1b        ..      LSRS     r3,r3,#24
        0x00003c8c:    0244        D.      LSLS     r4,r0,#9
        0x00003c8e:    d000        ..      BEQ      0x3c92 ; _fadd1 + 110
        0x00003c90:    4803        .H      LDR      r0,[pc,#12] ; [0x3ca0] = 0x7fc00000
        0x00003c92:    bd70        p.      POP      {r4-r6,pc}
        0x00003c94:    2a00        .*      CMP      r2,#0
        0x00003c96:    d1fc        ..      BNE      0x3c92 ; _fadd1 + 110
        0x00003c98:    0fc0        ..      LSRS     r0,r0,#31
        0x00003c9a:    07c0        ..      LSLS     r0,r0,#31
        0x00003c9c:    bd70        p.      POP      {r4-r6,pc}
        0x00003c9e:    bf00        ..      NOP      
    $d
        0x00003ca0:    7fc00000    ....    DCD    2143289344
    $t
    x$fpl$fmul
    __aeabi_fmul
    _fmul
        0x00003ca4:    b570        p.      PUSH     {r4-r6,lr}
        0x00003ca6:    0042        B.      LSLS     r2,r0,#1
        0x00003ca8:    4164        dA      ADCS     r4,r4,r4
        0x00003caa:    004b        K.      LSLS     r3,r1,#1
        0x00003cac:    415c        \A      ADCS     r4,r4,r3
        0x00003cae:    0e12        ..      LSRS     r2,r2,#24
        0x00003cb0:    d039        9.      BEQ      0x3d26 ; __aeabi_fmul + 130
        0x00003cb2:    0e1b        ..      LSRS     r3,r3,#24
        0x00003cb4:    d038        8.      BEQ      0x3d28 ; __aeabi_fmul + 132
        0x00003cb6:    2aff        .*      CMP      r2,#0xff
        0x00003cb8:    d03c        <.      BEQ      0x3d34 ; __aeabi_fmul + 144
        0x00003cba:    2bff        .+      CMP      r3,#0xff
        0x00003cbc:    d03a        :.      BEQ      0x3d34 ; __aeabi_fmul + 144
        0x00003cbe:    0240        @.      LSLS     r0,r0,#9
        0x00003cc0:    0249        I.      LSLS     r1,r1,#9
        0x00003cc2:    0a40        @.      LSRS     r0,r0,#9
        0x00003cc4:    0a49        I.      LSRS     r1,r1,#9
        0x00003cc6:    0006        ..      MOVS     r6,r0
        0x00003cc8:    1845        E.      ADDS     r5,r0,r1
        0x00003cca:    434e        NC      MULS     r6,r1,r6
        0x00003ccc:    0a00        ..      LSRS     r0,r0,#8
        0x00003cce:    0a09        ..      LSRS     r1,r1,#8
        0x00003cd0:    18d2        ..      ADDS     r2,r2,r3
        0x00003cd2:    4348        HC      MULS     r0,r1,r0
        0x00003cd4:    01ed        ..      LSLS     r5,r5,#7
        0x00003cd6:    3a7f        .:      SUBS     r2,r2,#0x7f
        0x00003cd8:    0401        ..      LSLS     r1,r0,#16
        0x00003cda:    1a73        s.      SUBS     r3,r6,r1
        0x00003cdc:    1940        @.      ADDS     r0,r0,r5
        0x00003cde:    0c19        ..      LSRS     r1,r3,#16
        0x00003ce0:    1843        C.      ADDS     r3,r0,r1
        0x00003ce2:    0f99        ..      LSRS     r1,r3,#30
        0x00003ce4:    d004        ..      BEQ      0x3cf0 ; __aeabi_fmul + 76
        0x00003ce6:    2101        .!      MOVS     r1,#1
        0x00003ce8:    085b        [.      LSRS     r3,r3,#1
        0x00003cea:    0749        I.      LSLS     r1,r1,#29
        0x00003cec:    1a5b        [.      SUBS     r3,r3,r1
        0x00003cee:    1c52        R.      ADDS     r2,r2,#1
        0x00003cf0:    09d8        ..      LSRS     r0,r3,#7
        0x00003cf2:    d304        ..      BCC      0x3cfe ; __aeabi_fmul + 90
        0x00003cf4:    1c40        @.      ADDS     r0,r0,#1
        0x00003cf6:    03f5        ..      LSLS     r5,r6,#15
        0x00003cf8:    d101        ..      BNE      0x3cfe ; __aeabi_fmul + 90
        0x00003cfa:    069d        ..      LSLS     r5,r3,#26
        0x00003cfc:    d007        ..      BEQ      0x3d0e ; __aeabi_fmul + 106
        0x00003cfe:    2aff        .*      CMP      r2,#0xff
        0x00003d00:    d208        ..      BCS      0x3d14 ; __aeabi_fmul + 112
        0x00003d02:    05d5        ..      LSLS     r5,r2,#23
        0x00003d04:    d006        ..      BEQ      0x3d14 ; __aeabi_fmul + 112
        0x00003d06:    07e4        ..      LSLS     r4,r4,#31
        0x00003d08:    4320         C      ORRS     r0,r0,r4
        0x00003d0a:    1940        @.      ADDS     r0,r0,r5
        0x00003d0c:    bd70        p.      POP      {r4-r6,pc}
        0x00003d0e:    2501        .%      MOVS     r5,#1
        0x00003d10:    43a8        .C      BICS     r0,r0,r5
        0x00003d12:    e7f4        ..      B        0x3cfe ; __aeabi_fmul + 90
        0x00003d14:    2a00        .*      CMP      r2,#0
        0x00003d16:    dc01        ..      BGT      0x3d1c ; __aeabi_fmul + 120
        0x00003d18:    07e0        ..      LSLS     r0,r4,#31
        0x00003d1a:    bd70        p.      POP      {r4-r6,pc}
        0x00003d1c:    0224        $.      LSLS     r4,r4,#8
        0x00003d1e:    20ff        .       MOVS     r0,#0xff
        0x00003d20:    4320         C      ORRS     r0,r0,r4
        0x00003d22:    05c0        ..      LSLS     r0,r0,#23
        0x00003d24:    bd70        p.      POP      {r4-r6,pc}
        0x00003d26:    0e1b        ..      LSRS     r3,r3,#24
        0x00003d28:    2aff        .*      CMP      r2,#0xff
        0x00003d2a:    d003        ..      BEQ      0x3d34 ; __aeabi_fmul + 144
        0x00003d2c:    2bff        .+      CMP      r3,#0xff
        0x00003d2e:    d001        ..      BEQ      0x3d34 ; __aeabi_fmul + 144
        0x00003d30:    07e0        ..      LSLS     r0,r4,#31
        0x00003d32:    bd70        p.      POP      {r4-r6,pc}
        0x00003d34:    26ff        .&      MOVS     r6,#0xff
        0x00003d36:    0045        E.      LSLS     r5,r0,#1
        0x00003d38:    0636        6.      LSLS     r6,r6,#24
        0x00003d3a:    42b5        .B      CMP      r5,r6
        0x00003d3c:    d806        ..      BHI      0x3d4c ; __aeabi_fmul + 168
        0x00003d3e:    004d        M.      LSLS     r5,r1,#1
        0x00003d40:    42b5        .B      CMP      r5,r6
        0x00003d42:    d803        ..      BHI      0x3d4c ; __aeabi_fmul + 168
        0x00003d44:    18d2        ..      ADDS     r2,r2,r3
        0x00003d46:    2aff        .*      CMP      r2,#0xff
        0x00003d48:    d000        ..      BEQ      0x3d4c ; __aeabi_fmul + 168
        0x00003d4a:    e7e7        ..      B        0x3d1c ; __aeabi_fmul + 120
        0x00003d4c:    4800        .H      LDR      r0,[pc,#0] ; [0x3d50] = 0x7fc00000
        0x00003d4e:    bd70        p.      POP      {r4-r6,pc}
    $d
        0x00003d50:    7fc00000    ....    DCD    2143289344
    $t
    x$fpl$frsb
    __aeabi_frsub
    _frsb
        0x00003d54:    b570        p.      PUSH     {r4-r6,lr}
        0x00003d56:    2501        .%      MOVS     r5,#1
        0x00003d58:    07ed        ..      LSLS     r5,r5,#31
        0x00003d5a:    4068        h@      EORS     r0,r0,r5
        0x00003d5c:    0004        ..      MOVS     r4,r0
        0x00003d5e:    404c        L@      EORS     r4,r4,r1
        0x00003d60:    d502        ..      BPL      0x3d68 ; __aeabi_frsub + 20
        0x00003d62:    4069        i@      EORS     r1,r1,r5
        0x00003d64:    f000f808    ....    BL       _fsub1 ; 0x3d78
        0x00003d68:    f7ffff5c    ..\.    BL       _fadd1 ; 0x3c24
    x$fpl$fsub
    __aeabi_fsub
    _fsub
        0x00003d6c:    b570        p.      PUSH     {r4-r6,lr}
        0x00003d6e:    2501        .%      MOVS     r5,#1
        0x00003d70:    0004        ..      MOVS     r4,r0
        0x00003d72:    07ed        ..      LSLS     r5,r5,#31
        0x00003d74:    404c        L@      EORS     r4,r4,r1
        0x00003d76:    d422        ".      BMI      0x3dbe ; _fsub1 + 70
    _fsub1
        0x00003d78:    1a44        D.      SUBS     r4,r0,r1
        0x00003d7a:    d202        ..      BCS      0x3d82 ; _fsub1 + 10
        0x00003d7c:    406c        l@      EORS     r4,r4,r5
        0x00003d7e:    1b00        ..      SUBS     r0,r0,r4
        0x00003d80:    1909        ..      ADDS     r1,r1,r4
        0x00003d82:    0dc6        ..      LSRS     r6,r0,#23
        0x00003d84:    004b        K.      LSLS     r3,r1,#1
        0x00003d86:    b2f2        ..      UXTB     r2,r6
        0x00003d88:    2aff        .*      CMP      r2,#0xff
        0x00003d8a:    d04b        K.      BEQ      0x3e24 ; _fsub1 + 172
        0x00003d8c:    0e1b        ..      LSRS     r3,r3,#24
        0x00003d8e:    d050        P.      BEQ      0x3e32 ; _fsub1 + 186
        0x00003d90:    0200        ..      LSLS     r0,r0,#8
        0x00003d92:    020c        ..      LSLS     r4,r1,#8
        0x00003d94:    1ad3        ..      SUBS     r3,r2,r3
        0x00003d96:    432c        ,C      ORRS     r4,r4,r5
        0x00003d98:    40dc        .@      LSRS     r4,r4,r3
        0x00003d9a:    43a8        .C      BICS     r0,r0,r5
        0x00003d9c:    1b05        ..      SUBS     r5,r0,r4
        0x00003d9e:    d505        ..      BPL      0x3dac ; _fsub1 + 52
        0x00003da0:    00ad        ..      LSLS     r5,r5,#2
        0x00003da2:    d319        ..      BCC      0x3dd8 ; _fsub1 + 96
        0x00003da4:    086d        m.      LSRS     r5,r5,#1
        0x00003da6:    1e76        v.      SUBS     r6,r6,#1
        0x00003da8:    1e52        R.      SUBS     r2,r2,#1
        0x00003daa:    d037        7.      BEQ      0x3e1c ; _fsub1 + 164
        0x00003dac:    05f6        ..      LSLS     r6,r6,#23
        0x00003dae:    0a28        (.      LSRS     r0,r5,#8
        0x00003db0:    d201        ..      BCS      0x3db6 ; _fsub1 + 62
        0x00003db2:    1980        ..      ADDS     r0,r0,r6
        0x00003db4:    bd70        p.      POP      {r4-r6,pc}
        0x00003db6:    4170        pA      ADCS     r0,r0,r6
        0x00003db8:    066d        m.      LSLS     r5,r5,#25
        0x00003dba:    d003        ..      BEQ      0x3dc4 ; _fsub1 + 76
        0x00003dbc:    bd70        p.      POP      {r4-r6,pc}
        0x00003dbe:    4069        i@      EORS     r1,r1,r5
        0x00003dc0:    f7ffff30    ..0.    BL       _fadd1 ; 0x3c24
        0x00003dc4:    409c        .@      LSLS     r4,r4,r3
        0x00003dc6:    0209        ..      LSLS     r1,r1,#8
        0x00003dc8:    4061        a@      EORS     r1,r1,r4
        0x00003dca:    0049        I.      LSLS     r1,r1,#1
        0x00003dcc:    d001        ..      BEQ      0x3dd2 ; _fsub1 + 90
        0x00003dce:    1e40        @.      SUBS     r0,r0,#1
        0x00003dd0:    bd70        p.      POP      {r4-r6,pc}
        0x00003dd2:    2401        .$      MOVS     r4,#1
        0x00003dd4:    43a0        .C      BICS     r0,r0,r4
        0x00003dd6:    bd70        p.      POP      {r4-r6,pc}
        0x00003dd8:    086d        m.      LSRS     r5,r5,#1
        0x00003dda:    d01d        ..      BEQ      0x3e18 ; _fsub1 + 160
        0x00003ddc:    2001        .       MOVS     r0,#1
        0x00003dde:    0c2b        +.      LSRS     r3,r5,#16
        0x00003de0:    d101        ..      BNE      0x3de6 ; _fsub1 + 110
        0x00003de2:    042d        -.      LSLS     r5,r5,#16
        0x00003de4:    3010        .0      ADDS     r0,r0,#0x10
        0x00003de6:    0e2b        +.      LSRS     r3,r5,#24
        0x00003de8:    d101        ..      BNE      0x3dee ; _fsub1 + 118
        0x00003dea:    022d        -.      LSLS     r5,r5,#8
        0x00003dec:    3008        .0      ADDS     r0,r0,#8
        0x00003dee:    0f2b        +.      LSRS     r3,r5,#28
        0x00003df0:    d101        ..      BNE      0x3df6 ; _fsub1 + 126
        0x00003df2:    012d        -.      LSLS     r5,r5,#4
        0x00003df4:    1d00        ..      ADDS     r0,r0,#4
        0x00003df6:    0fab        ..      LSRS     r3,r5,#30
        0x00003df8:    d101        ..      BNE      0x3dfe ; _fsub1 + 134
        0x00003dfa:    00ad        ..      LSLS     r5,r5,#2
        0x00003dfc:    1c80        ..      ADDS     r0,r0,#2
        0x00003dfe:    0feb        ..      LSRS     r3,r5,#31
        0x00003e00:    d101        ..      BNE      0x3e06 ; _fsub1 + 142
        0x00003e02:    006d        m.      LSLS     r5,r5,#1
        0x00003e04:    1c40        @.      ADDS     r0,r0,#1
        0x00003e06:    006d        m.      LSLS     r5,r5,#1
        0x00003e08:    1a36        6.      SUBS     r6,r6,r0
        0x00003e0a:    1a12        ..      SUBS     r2,r2,r0
        0x00003e0c:    0a68        h.      LSRS     r0,r5,#9
        0x00003e0e:    05f5        ..      LSLS     r5,r6,#23
        0x00003e10:    1940        @.      ADDS     r0,r0,r5
        0x00003e12:    2a01        .*      CMP      r2,#1
        0x00003e14:    db02        ..      BLT      0x3e1c ; _fsub1 + 164
        0x00003e16:    bd70        p.      POP      {r4-r6,pc}
        0x00003e18:    2000        .       MOVS     r0,#0
        0x00003e1a:    bd70        p.      POP      {r4-r6,pc}
        0x00003e1c:    36c0        .6      ADDS     r6,r6,#0xc0
        0x00003e1e:    0a30        0.      LSRS     r0,r6,#8
        0x00003e20:    07c0        ..      LSLS     r0,r0,#31
        0x00003e22:    bd70        p.      POP      {r4-r6,pc}
        0x00003e24:    0e1b        ..      LSRS     r3,r3,#24
        0x00003e26:    0244        D.      LSLS     r4,r0,#9
        0x00003e28:    d101        ..      BNE      0x3e2e ; _fsub1 + 182
        0x00003e2a:    2bff        .+      CMP      r3,#0xff
        0x00003e2c:    d100        ..      BNE      0x3e30 ; _fsub1 + 184
        0x00003e2e:    4802        .H      LDR      r0,[pc,#8] ; [0x3e38] = 0x7fc00000
        0x00003e30:    bd70        p.      POP      {r4-r6,pc}
        0x00003e32:    2a00        .*      CMP      r2,#0
        0x00003e34:    d0f0        ..      BEQ      0x3e18 ; _fsub1 + 160
        0x00003e36:    bd70        p.      POP      {r4-r6,pc}
    $d
        0x00003e38:    7fc00000    ....    DCD    2143289344
    $t
    x$fpl$printf1
    _printf_fp_dec
        0x00003e3c:    b403        ..      PUSH     {r0,r1}
        0x00003e3e:    4802        .H      LDR      r0,[pc,#8] ; [0x3e48] = 0xffffcae7
        0x00003e40:    4478        xD      ADD      r0,r0,pc
        0x00003e42:    4684        .F      MOV      r12,r0
        0x00003e44:    bc03        ..      POP      {r0,r1}
        0x00003e46:    4760        `G      BX       r12
    $d
        0x00003e48:    ffffcae7    ....    DCD    4294953703
    $d.realdata
    .constdata
    x$fpl$usenofp
    F6x8
    __I$use$fp
        0x00003e4c:    00000000    ....    DCD    0
        0x00003e50:    00000000    ....    DCD    0
        0x00003e54:    00002f00    ./..    DCD    12032
        0x00003e58:    00070000    ....    DCD    458752
        0x00003e5c:    14000007    ....    DCD    335544327
        0x00003e60:    147f147f    ....    DCD    343872639
        0x00003e64:    7f2a2400    .$*.    DCD    2133468160
        0x00003e68:    6200122a    *..b    DCD    1644171818
        0x00003e6c:    23130864    d..#    DCD    588449892
        0x00003e70:    55493600    .6IU    DCD    1430861312
        0x00003e74:    00005022    "P..    DCD    20514
        0x00003e78:    00000305    ....    DCD    773
        0x00003e7c:    221c0000    ..."    DCD    572260352
        0x00003e80:    00000041    A...    DCD    65
        0x00003e84:    001c2241    A"..    DCD    1843777
        0x00003e88:    3e081400    ...>    DCD    1040716800
        0x00003e8c:    08001408    ....    DCD    134222856
        0x00003e90:    08083e08    .>..    DCD    134757896
        0x00003e94:    a0000000    ....    DCD    2684354560
        0x00003e98:    08000060    `...    DCD    134217824
        0x00003e9c:    08080808    ....    DCD    134744072
        0x00003ea0:    60600000    ..``    DCD    1616904192
        0x00003ea4:    20000000    ...     DCD    536870912
        0x00003ea8:    02040810    ....    DCD    33818640
        0x00003eac:    49513e00    .>QI    DCD    1230061056
        0x00003eb0:    00003e45    E>..    DCD    15941
        0x00003eb4:    00407f42    B.@.    DCD    4226882
        0x00003eb8:    51614200    .BaQ    DCD    1365328384
        0x00003ebc:    21004649    IF.!    DCD    553666121
        0x00003ec0:    314b4541    AEK1    DCD    827016513
        0x00003ec4:    12141800    ....    DCD    303306752
        0x00003ec8:    2700107f    ...'    DCD    654315647
        0x00003ecc:    39454545    EEE9    DCD    960841029
        0x00003ed0:    494a3c00    .<JI    DCD    1229601792
        0x00003ed4:    01003049    I0..    DCD    16789577
        0x00003ed8:    03050971    q...    DCD    50661745
        0x00003edc:    49493600    .6II    DCD    1229534720
        0x00003ee0:    06003649    I6..    DCD    100677193
        0x00003ee4:    1e294949    II).    DCD    506022217
        0x00003ee8:    36360000    ..66    DCD    909508608
        0x00003eec:    00000000    ....    DCD    0
        0x00003ef0:    00003656    V6..    DCD    13910
        0x00003ef4:    22140800    ..."    DCD    571738112
        0x00003ef8:    14000041    A...    DCD    335544385
        0x00003efc:    14141414    ....    DCD    336860180
        0x00003f00:    22410000    ..A"    DCD    574685184
        0x00003f04:    02000814    ....    DCD    33556500
        0x00003f08:    06095101    .Q..    DCD    101273857
        0x00003f0c:    59493200    .2IY    DCD    1497969152
        0x00003f10:    7c003e51    Q>.|    DCD    2080390737
        0x00003f14:    7c121112    ...|    DCD    2081558802
        0x00003f18:    49497f00    ..II    DCD    1229553408
        0x00003f1c:    3e003649    I6.>    DCD    1040201289
        0x00003f20:    22414141    AAA"    DCD    574701889
        0x00003f24:    41417f00    ..AA    DCD    1094811392
        0x00003f28:    7f001c22    "...    DCD    2130713634
        0x00003f2c:    41494949    IIIA    DCD    1095321929
        0x00003f30:    09097f00    ....    DCD    151617280
        0x00003f34:    3e000109    ...>    DCD    1040187657
        0x00003f38:    7a494941    AIIz    DCD    2051623233
        0x00003f3c:    08087f00    ....    DCD    134774528
        0x00003f40:    00007f08    ....    DCD    32520
        0x00003f44:    00417f41    A.A.    DCD    4292417
        0x00003f48:    41402000    . @A    DCD    1094721536
        0x00003f4c:    7f00013f    ?...    DCD    2130706751
        0x00003f50:    41221408    .."A    DCD    1092752392
        0x00003f54:    40407f00    ..@@    DCD    1077968640
        0x00003f58:    7f004040    @@..    DCD    2130722880
        0x00003f5c:    7f020c02    ....    DCD    2130840578
        0x00003f60:    08047f00    ....    DCD    134512384
        0x00003f64:    3e007f10    ...>    DCD    1040219920
        0x00003f68:    3e414141    AAA>    DCD    1044463937
        0x00003f6c:    09097f00    ....    DCD    151617280
        0x00003f70:    3e000609    ...>    DCD    1040188937
        0x00003f74:    5e215141    AQ!^    DCD    1579241793
        0x00003f78:    19097f00    ....    DCD    420052736
        0x00003f7c:    46004629    )F.F    DCD    1174423081
        0x00003f80:    31494949    III1    DCD    826886473
        0x00003f84:    7f010100    ....    DCD    2130772224
        0x00003f88:    3f000101    ...?    DCD    1056964865
        0x00003f8c:    3f404040    @@@?    DCD    1061175360
        0x00003f90:    40201f00    .. @    DCD    1075846912
        0x00003f94:    3f001f20     ..?    DCD    1056972576
        0x00003f98:    3f403840    @8@?    DCD    1061173312
        0x00003f9c:    08146300    .c..    DCD    135553792
        0x00003fa0:    07006314    .c..    DCD    117465876
        0x00003fa4:    07087008    .p..    DCD    117993480
        0x00003fa8:    49516100    .aQI    DCD    1230070016
        0x00003fac:    00004345    EC..    DCD    17221
        0x00003fb0:    0041417f    .AA.    DCD    4276607
        0x00003fb4:    552a5500    .U*U    DCD    1428837632
        0x00003fb8:    0000552a    *U..    DCD    21802
        0x00003fbc:    007f4141    AA..    DCD    8339777
        0x00003fc0:    01020400    ....    DCD    16909312
        0x00003fc4:    40000402    ...@    DCD    1073742850
        0x00003fc8:    40404040    @@@@    DCD    1077952576
        0x00003fcc:    02010000    ....    DCD    33619968
        0x00003fd0:    20000004    ...     DCD    536870916
        0x00003fd4:    78545454    TTTx    DCD    2018792532
        0x00003fd8:    44487f00    ..HD    DCD    1145601792
        0x00003fdc:    38003844    D8.8    DCD    939538500
        0x00003fe0:    20444444    DDD     DCD    541344836
        0x00003fe4:    44443800    .8DD    DCD    1145321472
        0x00003fe8:    38007f48    H..8    DCD    939556680
        0x00003fec:    18545454    TTT.    DCD    408179796
        0x00003ff0:    097e0800    ..~.    DCD    159254528
        0x00003ff4:    18000201    ....    DCD    402653697
        0x00003ff8:    7ca4a4a4    ...|    DCD    2091164836
        0x00003ffc:    04087f00    ....    DCD    67665664
        0x00004000:    00007804    .x..    DCD    30724
        0x00004004:    00407d44    D}@.    DCD    4226372
        0x00004008:    84804000    .@..    DCD    2222997504
        0x0000400c:    7f00007d    }...    DCD    2130706557
        0x00004010:    00442810    .(D.    DCD    4466704
        0x00004014:    7f410000    ..A.    DCD    2134966272
        0x00004018:    7c000040    @..|    DCD    2080374848
        0x0000401c:    78041804    ...x    DCD    2013534212
        0x00004020:    04087c00    .|..    DCD    67664896
        0x00004024:    38007804    .x.8    DCD    939554820
        0x00004028:    38444444    DDD8    DCD    943998020
        0x0000402c:    2424fc00    ..$$    DCD    606403584
        0x00004030:    18001824    $...    DCD    402659364
        0x00004034:    fc182424    $$..    DCD    4229440548
        0x00004038:    04087c00    .|..    DCD    67664896
        0x0000403c:    48000804    ...H    DCD    1207961604
        0x00004040:    20545454    TTT     DCD    542397524
        0x00004044:    443f0400    ..?D    DCD    1144980480
        0x00004048:    3c002040    @ .<    DCD    1006641216
        0x0000404c:    7c204040    @@ |    DCD    2082488384
        0x00004050:    40201c00    .. @    DCD    1075846144
        0x00004054:    3c001c20     ..<    DCD    1006640160
        0x00004058:    3c403040    @0@<    DCD    1010839616
        0x0000405c:    10284400    .D(.    DCD    271074304
        0x00004060:    1c004428    (D..    DCD    469779496
        0x00004064:    7ca0a0a0    ...|    DCD    2090901664
        0x00004068:    54644400    .DdT    DCD    1415857152
        0x0000406c:    1414444c    LD..    DCD    336872524
        0x00004070:    14141414    ....    DCD    336860180
    F8X16
        0x00004074:    00000000    ....    DCD    0
        0x00004078:    00000000    ....    DCD    0
        0x0000407c:    00000000    ....    DCD    0
        0x00004080:    00000000    ....    DCD    0
        0x00004084:    f8000000    ....    DCD    4160749568
        0x00004088:    00000000    ....    DCD    0
        0x0000408c:    33000000    ...3    DCD    855638016
        0x00004090:    00000030    0...    DCD    48
        0x00004094:    060c1000    ....    DCD    101453824
        0x00004098:    00060c10    ....    DCD    396304
        0x0000409c:    00000000    ....    DCD    0
        0x000040a0:    00000000    ....    DCD    0
        0x000040a4:    4078c040    @.x@    DCD    1081655360
        0x000040a8:    004078c0    .x@.    DCD    4225216
        0x000040ac:    04043f04    .?..    DCD    67387140
        0x000040b0:    0004043f    ?...    DCD    263231
        0x000040b4:    fc887000    .p..    DCD    4236800000
        0x000040b8:    00003008    .0..    DCD    12296
        0x000040bc:    ff201800    .. .    DCD    4280293376
        0x000040c0:    00001e21    !...    DCD    7713
        0x000040c4:    00f008f0    ....    DCD    15730928
        0x000040c8:    000018e0    ....    DCD    6368
        0x000040cc:    031c2100    .!..    DCD    52175104
        0x000040d0:    001e211e    .!..    DCD    1974558
        0x000040d4:    8808f000    ....    DCD    2282287104
        0x000040d8:    00000070    p...    DCD    112
        0x000040dc:    2423211e    .!#$    DCD    606282014
        0x000040e0:    10212719    .'!.    DCD    270608153
        0x000040e4:    000e1610    ....    DCD    923152
        0x000040e8:    00000000    ....    DCD    0
        0x000040ec:    00000000    ....    DCD    0
        0x000040f0:    00000000    ....    DCD    0
        0x000040f4:    e0000000    ....    DCD    3758096384
        0x000040f8:    00020418    ....    DCD    132120
        0x000040fc:    07000000    ....    DCD    117440512
        0x00004100:    00402018    . @.    DCD    4202520
        0x00004104:    18040200    ....    DCD    402915840
        0x00004108:    000000e0    ....    DCD    224
        0x0000410c:    18204000    .@ .    DCD    404766720
        0x00004110:    00000007    ....    DCD    7
        0x00004114:    f0804040    @@..    DCD    4034936896
        0x00004118:    00404080    .@@.    DCD    4210816
        0x0000411c:    0f010202    ....    DCD    251724290
        0x00004120:    00020201    ....    DCD    131585
        0x00004124:    f0000000    ....    DCD    4026531840
        0x00004128:    00000000    ....    DCD    0
        0x0000412c:    1f010101    ....    DCD    520159489
        0x00004130:    00010101    ....    DCD    65793
        0x00004134:    00000000    ....    DCD    0
        0x00004138:    00000000    ....    DCD    0
        0x0000413c:    0070b080    ..p.    DCD    7385216
        0x00004140:    00000000    ....    DCD    0
        0x00004144:    00000000    ....    DCD    0
        0x00004148:    00000000    ....    DCD    0
        0x0000414c:    01010100    ....    DCD    16843008
        0x00004150:    01010101    ....    DCD    16843009
        0x00004154:    00000000    ....    DCD    0
        0x00004158:    00000000    ....    DCD    0
        0x0000415c:    00303000    .00.    DCD    3158016
        0x00004160:    00000000    ....    DCD    0
        0x00004164:    00000000    ....    DCD    0
        0x00004168:    04186080    .`..    DCD    68706432
        0x0000416c:    06186000    .`..    DCD    102260736
        0x00004170:    00000001    ....    DCD    1
        0x00004174:    0810e000    ....    DCD    135323648
        0x00004178:    00e01008    ....    DCD    14684168
        0x0000417c:    20100f00    ...     DCD    537923328
        0x00004180:    000f1020     ...    DCD    987168
        0x00004184:    f8101000    ....    DCD    4161802240
        0x00004188:    00000000    ....    DCD    0
        0x0000418c:    3f202000    .  ?    DCD    1059069952
        0x00004190:    00002020      ..    DCD    8224
        0x00004194:    08087000    .p..    DCD    134770688
        0x00004198:    00708808    ..p.    DCD    7374856
        0x0000419c:    24283000    .0($    DCD    606613504
        0x000041a0:    00302122    "!0.    DCD    3154210
        0x000041a4:    88083000    .0..    DCD    2282237952
        0x000041a8:    00304888    .H0.    DCD    3164296
        0x000041ac:    20201800    ..      DCD    538974208
        0x000041b0:    000e1120     ...    DCD    921888
        0x000041b4:    20c00000    ...     DCD    549453824
        0x000041b8:    0000f810    ....    DCD    63504
        0x000041bc:    24040700    ...$    DCD    604243712
        0x000041c0:    00243f24    $?$.    DCD    2375460
        0x000041c4:    8808f800    ....    DCD    2282289152
        0x000041c8:    00080888    ....    DCD    526472
        0x000041cc:    20211900    ..!     DCD    539040000
        0x000041d0:    000e1120     ...    DCD    921888
        0x000041d4:    8810e000    ....    DCD    2282807296
        0x000041d8:    00001888    ....    DCD    6280
        0x000041dc:    20110f00    ...     DCD    537988864
        0x000041e0:    000e1120     ...    DCD    921888
        0x000041e4:    08083800    .8..    DCD    134756352
        0x000041e8:    000838c8    .8..    DCD    538824
        0x000041ec:    3f000000    ...?    DCD    1056964608
        0x000041f0:    00000000    ....    DCD    0
        0x000041f4:    08887000    .p..    DCD    143159296
        0x000041f8:    00708808    ..p.    DCD    7374856
        0x000041fc:    21221c00    .."!    DCD    555883520
        0x00004200:    001c2221    !"..    DCD    1843745
        0x00004204:    0810e000    ....    DCD    135323648
        0x00004208:    00e01008    ....    DCD    14684168
        0x0000420c:    22310000    ..1"    DCD    573636608
        0x00004210:    000f1122    "...    DCD    987426
        0x00004214:    c0000000    ....    DCD    3221225472
        0x00004218:    000000c0    ....    DCD    192
        0x0000421c:    30000000    ...0    DCD    805306368
        0x00004220:    00000030    0...    DCD    48
        0x00004224:    80000000    ....    DCD    2147483648
        0x00004228:    00000000    ....    DCD    0
        0x0000422c:    60800000    ...`    DCD    1619001344
        0x00004230:    00000000    ....    DCD    0
        0x00004234:    40800000    ...@    DCD    1082130432
        0x00004238:    00081020     ...    DCD    528416
        0x0000423c:    04020100    ....    DCD    67240192
        0x00004240:    00201008    .. .    DCD    2101256
        0x00004244:    40404040    @@@@    DCD    1077952576
        0x00004248:    00404040    @@@.    DCD    4210752
        0x0000424c:    04040404    ....    DCD    67372036
        0x00004250:    00040404    ....    DCD    263172
        0x00004254:    20100800    ...     DCD    537921536
        0x00004258:    00008040    @...    DCD    32832
        0x0000425c:    08102000    . ..    DCD    135274496
        0x00004260:    00010204    ....    DCD    66052
        0x00004264:    08487000    .pH.    DCD    138964992
        0x00004268:    00f00808    ....    DCD    15730696
        0x0000426c:    30000000    ...0    DCD    805306368
        0x00004270:    00000136    6...    DCD    310
        0x00004274:    28c830c0    .0.(    DCD    684208320
        0x00004278:    00e010e8    ....    DCD    14684392
        0x0000427c:    24271807    ..'$    DCD    606541831
        0x00004280:    000b1423    #...    DCD    726051
        0x00004284:    38c00000    ...8    DCD    952107008
        0x00004288:    000000e0    ....    DCD    224
        0x0000428c:    02233c20     <#.    DCD    35863584
        0x00004290:    20382702    .'8     DCD    540550914
        0x00004294:    8888f808    ....    DCD    2290677768
        0x00004298:    00007088    .p..    DCD    28808
        0x0000429c:    20203f20     ?      DCD    538984224
        0x000042a0:    000e1120     ...    DCD    921888
        0x000042a4:    080830c0    .0..    DCD    134754496
        0x000042a8:    00380808    ..8.    DCD    3672072
        0x000042ac:    20201807    ..      DCD    538974215
        0x000042b0:    00081020     ...    DCD    528416
        0x000042b4:    0808f808    ....    DCD    134805512
        0x000042b8:    00e01008    ....    DCD    14684168
        0x000042bc:    20203f20     ?      DCD    538984224
        0x000042c0:    000f1020     ...    DCD    987168
        0x000042c4:    8888f808    ....    DCD    2290677768
        0x000042c8:    001008e8    ....    DCD    1050856
        0x000042cc:    20203f20     ?      DCD    538984224
        0x000042d0:    00182023    # ..    DCD    1581091
        0x000042d4:    8888f808    ....    DCD    2290677768
        0x000042d8:    001008e8    ....    DCD    1050856
        0x000042dc:    00203f20     ? .    DCD    2113312
        0x000042e0:    00000003    ....    DCD    3
        0x000042e4:    080830c0    .0..    DCD    134754496
        0x000042e8:    00003808    .8..    DCD    14344
        0x000042ec:    20201807    ..      DCD    538974215
        0x000042f0:    00021e22    "...    DCD    138786
        0x000042f4:    0008f808    ....    DCD    587784
        0x000042f8:    08f80800    ....    DCD    150472704
        0x000042fc:    01213f20     ?!.    DCD    18956064
        0x00004300:    203f2101    .!?     DCD    541008129
        0x00004304:    f8080800    ....    DCD    4161275904
        0x00004308:    00000808    ....    DCD    2056
        0x0000430c:    3f202000    .  ?    DCD    1059069952
        0x00004310:    00002020      ..    DCD    8224
        0x00004314:    08080000    ....    DCD    134742016
        0x00004318:    000808f8    ....    DCD    526584
        0x0000431c:    808080c0    ....    DCD    2155905216
        0x00004320:    0000007f    ....    DCD    127
        0x00004324:    c088f808    ....    DCD    3230201864
        0x00004328:    00081828    (...    DCD    530472
        0x0000432c:    01203f20     ? .    DCD    18890528
        0x00004330:    00203826    &8 .    DCD    2111526
        0x00004334:    0008f808    ....    DCD    587784
        0x00004338:    00000000    ....    DCD    0
        0x0000433c:    20203f20     ?      DCD    538984224
        0x00004340:    00302020      0.    DCD    3153952
        0x00004344:    00f8f808    ....    DCD    16316424
        0x00004348:    0008f8f8    ....    DCD    588024
        0x0000434c:    3f003f20     ?.?    DCD    1056980768
        0x00004350:    00203f00    .? .    DCD    2113280
        0x00004354:    c030f808    ..0.    DCD    3224434696
        0x00004358:    08f80800    ....    DCD    150472704
        0x0000435c:    00203f20     ? .    DCD    2113312
        0x00004360:    003f1807    ..?.    DCD    4134919
        0x00004364:    080810e0    ....    DCD    134746336
        0x00004368:    00e01008    ....    DCD    14684168
        0x0000436c:    2020100f    ..      DCD    538972175
        0x00004370:    000f1020     ...    DCD    987168
        0x00004374:    0808f808    ....    DCD    134805512
        0x00004378:    00f00808    ....    DCD    15730696
        0x0000437c:    01213f20     ?!.    DCD    18956064
        0x00004380:    00000101    ....    DCD    257
        0x00004384:    080810e0    ....    DCD    134746336
        0x00004388:    00e01008    ....    DCD    14684168
        0x0000438c:    2424180f    ..$$    DCD    606345231
        0x00004390:    004f5038    8PO.    DCD    5197880
        0x00004394:    8888f808    ....    DCD    2290677768
        0x00004398:    00708888    ..p.    DCD    7374984
        0x0000439c:    00203f20     ? .    DCD    2113312
        0x000043a0:    20300c03    ..0     DCD    540019715
        0x000043a4:    08887000    .p..    DCD    143159296
        0x000043a8:    00380808    ..8.    DCD    3672072
        0x000043ac:    21203800    .8 !    DCD    555759616
        0x000043b0:    001c2221    !"..    DCD    1843745
        0x000043b4:    f8080818    ....    DCD    4161275928
        0x000043b8:    00180808    ....    DCD    1574920
        0x000043bc:    3f200000    .. ?    DCD    1059061760
        0x000043c0:    00000020     ...    DCD    32
        0x000043c4:    0008f808    ....    DCD    587784
        0x000043c8:    08f80800    ....    DCD    150472704
        0x000043cc:    20201f00    ..      DCD    538976000
        0x000043d0:    001f2020      ..    DCD    2039840
        0x000043d4:    00887808    .x..    DCD    8943624
        0x000043d8:    0838c800    ..8.    DCD    137938944
        0x000043dc:    38070000    ...8    DCD    939982848
        0x000043e0:    0000010e    ....    DCD    270
        0x000043e4:    f80008f8    ....    DCD    4160751864
        0x000043e8:    00f80800    ....    DCD    16254976
        0x000043ec:    00073c03    .<..    DCD    474115
        0x000043f0:    00033c07    .<..    DCD    211975
        0x000043f4:    80681808    ..h.    DCD    2154305544
        0x000043f8:    08186880    .h..    DCD    135817344
        0x000043fc:    032c3020     0,.    DCD    53227552
        0x00004400:    20302c03    .,0     DCD    540027907
        0x00004404:    00c83808    .8..    DCD    13121544
        0x00004408:    000838c8    .8..    DCD    538824
        0x0000440c:    3f200000    .. ?    DCD    1059061760
        0x00004410:    00000020     ...    DCD    32
        0x00004414:    08080810    ....    DCD    134744080
        0x00004418:    000838c8    .8..    DCD    538824
        0x0000441c:    21263820     8&!    DCD    556152864
        0x00004420:    00182020      ..    DCD    1581088
        0x00004424:    fe000000    ....    DCD    4261412864
        0x00004428:    00020202    ....    DCD    131586
        0x0000442c:    7f000000    ....    DCD    2130706432
        0x00004430:    00404040    @@@.    DCD    4210752
        0x00004434:    c0300c00    ..0.    DCD    3224374272
        0x00004438:    00000000    ....    DCD    0
        0x0000443c:    01000000    ....    DCD    16777216
        0x00004440:    00c03806    .8..    DCD    12597254
        0x00004444:    02020200    ....    DCD    33686016
        0x00004448:    000000fe    ....    DCD    254
        0x0000444c:    40404000    .@@@    DCD    1077952512
        0x00004450:    0000007f    ....    DCD    127
        0x00004454:    02040000    ....    DCD    33816576
        0x00004458:    00040202    ....    DCD    262658
        0x0000445c:    00000000    ....    DCD    0
        0x00004460:    00000000    ....    DCD    0
        0x00004464:    00000000    ....    DCD    0
        0x00004468:    00000000    ....    DCD    0
        0x0000446c:    80808080    ....    DCD    2155905152
        0x00004470:    80808080    ....    DCD    2155905152
        0x00004474:    04020200    ....    DCD    67240448
        0x00004478:    00000000    ....    DCD    0
        0x0000447c:    00000000    ....    DCD    0
        0x00004480:    00000000    ....    DCD    0
        0x00004484:    80800000    ....    DCD    2155872256
        0x00004488:    00008080    ....    DCD    32896
        0x0000448c:    22241900    ..$"    DCD    572791040
        0x00004490:    203f2222    ""?     DCD    541008418
        0x00004494:    8000f808    ....    DCD    2147547144
        0x00004498:    00000080    ....    DCD    128
        0x0000449c:    20113f00    .?.     DCD    538001152
        0x000044a0:    000e1120     ...    DCD    921888
        0x000044a4:    80000000    ....    DCD    2147483648
        0x000044a8:    00008080    ....    DCD    32896
        0x000044ac:    20110e00    ...     DCD    537988608
        0x000044b0:    00112020      ..    DCD    1122336
        0x000044b4:    80000000    ....    DCD    2147483648
        0x000044b8:    00f88880    ....    DCD    16287872
        0x000044bc:    20110e00    ...     DCD    537988608
        0x000044c0:    203f1020     .?     DCD    541003808
        0x000044c4:    80800000    ....    DCD    2155872256
        0x000044c8:    00008080    ....    DCD    32896
        0x000044cc:    22221f00    ..""    DCD    572661504
        0x000044d0:    00132222    ""..    DCD    1253922
        0x000044d4:    f0808000    ....    DCD    4034953216
        0x000044d8:    18888888    ....    DCD    411601032
        0x000044dc:    3f202000    .  ?    DCD    1059069952
        0x000044e0:    00002020      ..    DCD    8224
        0x000044e4:    80800000    ....    DCD    2155872256
        0x000044e8:    00808080    ....    DCD    8421504
        0x000044ec:    94946b00    .k..    DCD    2492754688
        0x000044f0:    00609394    ..`.    DCD    6329236
        0x000044f4:    8000f808    ....    DCD    2147547144
        0x000044f8:    00008080    ....    DCD    32896
        0x000044fc:    00213f20     ?!.    DCD    2178848
        0x00004500:    203f2000    . ?     DCD    541007872
        0x00004504:    98988000    ....    DCD    2560131072
        0x00004508:    00000000    ....    DCD    0
        0x0000450c:    3f202000    .  ?    DCD    1059069952
        0x00004510:    00002020      ..    DCD    8224
        0x00004514:    80000000    ....    DCD    2147483648
        0x00004518:    00009898    ....    DCD    39064
        0x0000451c:    8080c000    ....    DCD    2155921408
        0x00004520:    00007f80    ....    DCD    32640
        0x00004524:    0000f808    ....    DCD    63496
        0x00004528:    00808080    ....    DCD    8421504
        0x0000452c:    02243f20     ?$.    DCD    35929888
        0x00004530:    0020302d    -0 .    DCD    2109485
        0x00004534:    f8080800    ....    DCD    4161275904
        0x00004538:    00000000    ....    DCD    0
        0x0000453c:    3f202000    .  ?    DCD    1059069952
        0x00004540:    00002020      ..    DCD    8224
        0x00004544:    80808080    ....    DCD    2155905152
        0x00004548:    00808080    ....    DCD    8421504
        0x0000454c:    00203f20     ? .    DCD    2113312
        0x00004550:    3f00203f    ? .?    DCD    1056972863
        0x00004554:    80008080    ....    DCD    2147516544
        0x00004558:    00008080    ....    DCD    32896
        0x0000455c:    00213f20     ?!.    DCD    2178848
        0x00004560:    203f2000    . ?     DCD    541007872
        0x00004564:    80800000    ....    DCD    2155872256
        0x00004568:    00008080    ....    DCD    32896
        0x0000456c:    20201f00    ..      DCD    538976000
        0x00004570:    001f2020      ..    DCD    2039840
        0x00004574:    80008080    ....    DCD    2147516544
        0x00004578:    00000080    ....    DCD    128
        0x0000457c:    20a1ff80    ...     DCD    547487616
        0x00004580:    000e1120     ...    DCD    921888
        0x00004584:    80000000    ....    DCD    2147483648
        0x00004588:    00808080    ....    DCD    8421504
        0x0000458c:    20110e00    ...     DCD    537988608
        0x00004590:    80ffa020     ...    DCD    2164236320
        0x00004594:    00808080    ....    DCD    8421504
        0x00004598:    00808080    ....    DCD    8421504
        0x0000459c:    213f2020      ?!    DCD    557785120
        0x000045a0:    00010020     ...    DCD    65568
        0x000045a4:    80800000    ....    DCD    2155872256
        0x000045a8:    00808080    ....    DCD    8421504
        0x000045ac:    24243300    .3$$    DCD    606352128
        0x000045b0:    00192424    $$..    DCD    1647652
        0x000045b4:    e0808000    ....    DCD    3766517760
        0x000045b8:    00008080    ....    DCD    32896
        0x000045bc:    1f000000    ....    DCD    520093696
        0x000045c0:    00002020      ..    DCD    8224
        0x000045c4:    00008080    ....    DCD    32896
        0x000045c8:    00808000    ....    DCD    8421376
        0x000045cc:    20201f00    ..      DCD    538976000
        0x000045d0:    203f1020     .?     DCD    541003808
        0x000045d4:    00808080    ....    DCD    8421504
        0x000045d8:    80808000    ....    DCD    2155905024
        0x000045dc:    300e0100    ...0    DCD    806224128
        0x000045e0:    00010608    ....    DCD    67080
        0x000045e4:    80008080    ....    DCD    2147516544
        0x000045e8:    80808000    ....    DCD    2155905024
        0x000045ec:    030c300f    .0..    DCD    51130383
        0x000045f0:    000f300c    .0..    DCD    995340
        0x000045f4:    00808000    ....    DCD    8421376
        0x000045f8:    00808080    ....    DCD    8421504
        0x000045fc:    2e312000    . 1.    DCD    774971392
        0x00004600:    0020310e    .1 .    DCD    2109710
        0x00004604:    00808080    ....    DCD    8421504
        0x00004608:    80808000    ....    DCD    2155905024
        0x0000460c:    708e8180    ...p    DCD    1888387456
        0x00004610:    00010618    ....    DCD    67096
        0x00004614:    80808000    ....    DCD    2155905024
        0x00004618:    00808080    ....    DCD    8421504
        0x0000461c:    2c302100    .!0,    DCD    741351680
        0x00004620:    00302122    "!0.    DCD    3154210
        0x00004624:    00000000    ....    DCD    0
        0x00004628:    02027c80    .|..    DCD    33717376
        0x0000462c:    00000000    ....    DCD    0
        0x00004630:    40403f00    .?@@    DCD    1077952256
        0x00004634:    00000000    ....    DCD    0
        0x00004638:    000000ff    ....    DCD    255
        0x0000463c:    00000000    ....    DCD    0
        0x00004640:    000000ff    ....    DCD    255
        0x00004644:    7c020200    ...|    DCD    2080506368
        0x00004648:    00000080    ....    DCD    128
        0x0000464c:    3f404000    .@@?    DCD    1061175296
        0x00004650:    00000000    ....    DCD    0
        0x00004654:    01010600    ....    DCD    16844288
        0x00004658:    04040202    ....    DCD    67371522
        0x0000465c:    00000000    ....    DCD    0
        0x00004660:    00000000    ....    DCD    0
    .constdata
    ascii_1206
        0x00004664:    00000000    ....    DCD    0
        0x00004668:    00000000    ....    DCD    0
        0x0000466c:    00000000    ....    DCD    0
        0x00004670:    04040000    ....    DCD    67371008
        0x00004674:    00040404    ....    DCD    263172
        0x00004678:    00000400    ....    DCD    1024
        0x0000467c:    000a1414    ....    DCD    660500
        0x00004680:    00000000    ....    DCD    0
        0x00004684:    00000000    ....    DCD    0
        0x00004688:    0a0a0000    ....    DCD    168427520
        0x0000468c:    1f0a0a1f    ....    DCD    520751647
        0x00004690:    00000a0a    ....    DCD    2570
        0x00004694:    150e0400    ....    DCD    353240064
        0x00004698:    140c0605    ....    DCD    336332293
        0x0000469c:    00040e15    ....    DCD    265749
        0x000046a0:    15120000    ....    DCD    353501184
        0x000046a4:    2c2e150d    ...,    DCD    741217549
        0x000046a8:    0000122a    *...    DCD    4650
        0x000046ac:    0a040000    ....    DCD    168034304
        0x000046b0:    1515360a    .6..    DCD    353711626
        0x000046b4:    00001629    )...    DCD    5673
        0x000046b8:    00010202    ....    DCD    66050
        0x000046bc:    00000000    ....    DCD    0
        0x000046c0:    00000000    ....    DCD    0
        0x000046c4:    04080810    ....    DCD    67635216
        0x000046c8:    04040404    ....    DCD    67372036
        0x000046cc:    00100808    ....    DCD    1050632
        0x000046d0:    08040402    ....    DCD    134480898
        0x000046d4:    08080808    ....    DCD    134744072
        0x000046d8:    00020404    ....    DCD    132100
        0x000046dc:    04000000    ....    DCD    67108864
        0x000046e0:    150e0e15    ....    DCD    353242645
        0x000046e4:    00000004    ....    DCD    4
        0x000046e8:    08000000    ....    DCD    134217728
        0x000046ec:    08083e08    .>..    DCD    134757896
        0x000046f0:    00000000    ....    DCD    0
        0x000046f4:    00000000    ....    DCD    0
        0x000046f8:    00000000    ....    DCD    0
        0x000046fc:    00010202    ....    DCD    66050
        0x00004700:    00000000    ....    DCD    0
        0x00004704:    00003f00    .?..    DCD    16128
        0x00004708:    00000000    ....    DCD    0
        0x0000470c:    00000000    ....    DCD    0
        0x00004710:    00000000    ....    DCD    0
        0x00004714:    00000200    ....    DCD    512
        0x00004718:    10102000    . ..    DCD    269492224
        0x0000471c:    04040808    ....    DCD    67373064
        0x00004720:    00010202    ....    DCD    66050
        0x00004724:    110e0000    ....    DCD    286130176
        0x00004728:    11111111    ....    DCD    286331153
        0x0000472c:    00000e11    ....    DCD    3601
        0x00004730:    06040000    ....    DCD    100925440
        0x00004734:    04040404    ....    DCD    67372036
        0x00004738:    00000e04    ....    DCD    3588
        0x0000473c:    110e0000    ....    DCD    286130176
        0x00004740:    02040811    ....    DCD    33818641
        0x00004744:    00001f01    ....    DCD    7937
        0x00004748:    110e0000    ....    DCD    286130176
        0x0000474c:    10100c10    ....    DCD    269487120
        0x00004750:    00000e11    ....    DCD    3601
        0x00004754:    0c080000    ....    DCD    201850880
        0x00004758:    1f090a0c    ....    DCD    520686092
        0x0000475c:    00001c08    ....    DCD    7176
        0x00004760:    011f0000    ....    DCD    18808832
        0x00004764:    10110f01    ....    DCD    269553409
        0x00004768:    00000e11    ....    DCD    3601
        0x0000476c:    120c0000    ....    DCD    302776320
        0x00004770:    11130d01    ....    DCD    286461185
        0x00004774:    00000e11    ....    DCD    3601
        0x00004778:    101e0000    ....    DCD    270401536
        0x0000477c:    04040808    ....    DCD    67373064
        0x00004780:    00000404    ....    DCD    1028
        0x00004784:    110e0000    ....    DCD    286130176
        0x00004788:    11110e11    ....    DCD    286330385
        0x0000478c:    00000e11    ....    DCD    3601
        0x00004790:    110e0000    ....    DCD    286130176
        0x00004794:    10161911    ....    DCD    269883665
        0x00004798:    00000609    ....    DCD    1545
        0x0000479c:    00000000    ....    DCD    0
        0x000047a0:    00000004    ....    DCD    4
        0x000047a4:    00000400    ....    DCD    1024
        0x000047a8:    00000000    ....    DCD    0
        0x000047ac:    00000400    ....    DCD    1024
        0x000047b0:    00040400    ....    DCD    263168
        0x000047b4:    08100000    ....    DCD    135266304
        0x000047b8:    04020204    ....    DCD    67240452
        0x000047bc:    00001008    ....    DCD    4104
        0x000047c0:    00000000    ....    DCD    0
        0x000047c4:    003f003f    ?.?.    DCD    4128831
        0x000047c8:    00000000    ....    DCD    0
        0x000047cc:    04020000    ....    DCD    67239936
        0x000047d0:    08101008    ....    DCD    135270408
        0x000047d4:    00000204    ....    DCD    516
        0x000047d8:    110e0000    ....    DCD    286130176
        0x000047dc:    04040811    ....    DCD    67373073
        0x000047e0:    00000400    ....    DCD    1024
        0x000047e4:    221c0000    ..."    DCD    572260352
        0x000047e8:    1d2d2d29    )--.    DCD    489499945
        0x000047ec:    00001c22    "...    DCD    7202
        0x000047f0:    04040000    ....    DCD    67371008
        0x000047f4:    1e0a0a0c    ....    DCD    503974412
        0x000047f8:    00003312    .3..    DCD    13074
        0x000047fc:    120f0000    ....    DCD    302972928
        0x00004800:    12120e12    ....    DCD    303173138
        0x00004804:    00000f12    ....    DCD    3858
        0x00004808:    111e0000    ....    DCD    287178752
        0x0000480c:    01010101    ....    DCD    16843009
        0x00004810:    00000e11    ....    DCD    3601
        0x00004814:    120f0000    ....    DCD    302972928
        0x00004818:    12121212    ....    DCD    303174162
        0x0000481c:    00000f12    ....    DCD    3858
        0x00004820:    121f0000    ....    DCD    304021504
        0x00004824:    020a0e0a    ....    DCD    34213386
        0x00004828:    00001f12    ....    DCD    7954
        0x0000482c:    121f0000    ....    DCD    304021504
        0x00004830:    020a0e0a    ....    DCD    34213386
        0x00004834:    00000702    ....    DCD    1794
        0x00004838:    121c0000    ....    DCD    303824896
        0x0000483c:    11390101    ..9.    DCD    288948481
        0x00004840:    00000c12    ....    DCD    3090
        0x00004844:    12330000    ..3.    DCD    305332224
        0x00004848:    12121e12    ....    DCD    303177234
        0x0000484c:    00003312    .3..    DCD    13074
        0x00004850:    041f0000    ....    DCD    69140480
        0x00004854:    04040404    ....    DCD    67372036
        0x00004858:    00001f04    ....    DCD    7940
        0x0000485c:    083e0000    ..>.    DCD    138280960
        0x00004860:    08080808    ....    DCD    134744072
        0x00004864:    07090808    ....    DCD    118032392
        0x00004868:    12370000    ..7.    DCD    305594368
        0x0000486c:    120a060a    ....    DCD    302646794
        0x00004870:    00003712    .7..    DCD    14098
        0x00004874:    02070000    ....    DCD    34013184
        0x00004878:    02020202    ....    DCD    33686018
        0x0000487c:    00003f22    "?..    DCD    16162
        0x00004880:    1b3b0000    ..;.    DCD    456851456
        0x00004884:    15151b1b    ....    DCD    353704731
        0x00004888:    00003515    .5..    DCD    13589
        0x0000488c:    123b0000    ..;.    DCD    305856512
        0x00004890:    1a1a1616    ....    DCD    437917206
        0x00004894:    00001712    ....    DCD    5906
        0x00004898:    110e0000    ....    DCD    286130176
        0x0000489c:    11111111    ....    DCD    286331153
        0x000048a0:    00000e11    ....    DCD    3601
        0x000048a4:    120f0000    ....    DCD    302972928
        0x000048a8:    02020e12    ....    DCD    33689106
        0x000048ac:    00000702    ....    DCD    1794
        0x000048b0:    110e0000    ....    DCD    286130176
        0x000048b4:    17111111    ....    DCD    386994449
        0x000048b8:    00180e19    ....    DCD    1576473
        0x000048bc:    120f0000    ....    DCD    302972928
        0x000048c0:    120a0e12    ....    DCD    302648850
        0x000048c4:    00003712    .7..    DCD    14098
        0x000048c8:    111e0000    ....    DCD    287178752
        0x000048cc:    10080601    ....    DCD    268961281
        0x000048d0:    00000f11    ....    DCD    3857
        0x000048d4:    151f0000    ....    DCD    354353152
        0x000048d8:    04040404    ....    DCD    67372036
        0x000048dc:    00000e04    ....    DCD    3588
        0x000048e0:    12330000    ..3.    DCD    305332224
        0x000048e4:    12121212    ....    DCD    303174162
        0x000048e8:    00000c12    ....    DCD    3090
        0x000048ec:    12330000    ..3.    DCD    305332224
        0x000048f0:    0c0a0a12    ....    DCD    201984530
        0x000048f4:    00000404    ....    DCD    1028
        0x000048f8:    15150000    ....    DCD    353697792
        0x000048fc:    0a0e1515    ....    DCD    168695061
        0x00004900:    00000a0a    ....    DCD    2570
        0x00004904:    0a1b0000    ....    DCD    169541632
        0x00004908:    0a04040a    ....    DCD    168035338
        0x0000490c:    00001b0a    ....    DCD    6922
        0x00004910:    0a1b0000    ....    DCD    169541632
        0x00004914:    04040a0a    ....    DCD    67373578
        0x00004918:    00000e04    ....    DCD    3588
        0x0000491c:    091f0000    ....    DCD    153026560
        0x00004920:    02040408    ....    DCD    33817608
        0x00004924:    00001f12    ....    DCD    7954
        0x00004928:    0404041c    ....    DCD    67372060
        0x0000492c:    04040404    ....    DCD    67372036
        0x00004930:    001c0404    ....    DCD    1836036
        0x00004934:    04020200    ....    DCD    67240448
        0x00004938:    08080404    ....    DCD    134743044
        0x0000493c:    00101008    ....    DCD    1052680
        0x00004940:    0808080e    ....    DCD    134744078
        0x00004944:    08080808    ....    DCD    134744072
        0x00004948:    000e0808    ....    DCD    919560
        0x0000494c:    00000a04    ....    DCD    2564
        0x00004950:    00000000    ....    DCD    0
        0x00004954:    00000000    ....    DCD    0
        0x00004958:    00000000    ....    DCD    0
        0x0000495c:    00000000    ....    DCD    0
        0x00004960:    3f000000    ...?    DCD    1056964608
        0x00004964:    00000402    ....    DCD    1026
        0x00004968:    00000000    ....    DCD    0
        0x0000496c:    00000000    ....    DCD    0
        0x00004970:    00000000    ....    DCD    0
        0x00004974:    1c120c00    ....    DCD    470944768
        0x00004978:    00003c12    .<..    DCD    15378
        0x0000497c:    02020300    ....    DCD    33686272
        0x00004980:    12120e02    ....    DCD    303173122
        0x00004984:    00000e12    ....    DCD    3602
        0x00004988:    00000000    ....    DCD    0
        0x0000498c:    02121c00    ....    DCD    34741248
        0x00004990:    00000c12    ....    DCD    3090
        0x00004994:    10101800    ....    DCD    269490176
        0x00004998:    12121c10    ....    DCD    303176720
        0x0000499c:    00003c12    .<..    DCD    15378
        0x000049a0:    00000000    ....    DCD    0
        0x000049a4:    1e120c00    ....    DCD    504499200
        0x000049a8:    00001c02    ....    DCD    7170
        0x000049ac:    04241800    ..$.    DCD    69474304
        0x000049b0:    04041e04    ....    DCD    67378692
        0x000049b4:    00001e04    ....    DCD    7684
        0x000049b8:    00000000    ....    DCD    0
        0x000049bc:    0c123c00    .<..    DCD    202521600
        0x000049c0:    1c221c02    ..".    DCD    471997442
        0x000049c4:    02020300    ....    DCD    33686272
        0x000049c8:    12120e02    ....    DCD    303173122
        0x000049cc:    00003712    .7..    DCD    14098
        0x000049d0:    00040400    ....    DCD    263168
        0x000049d4:    04040600    ....    DCD    67372544
        0x000049d8:    00000e04    ....    DCD    3588
        0x000049dc:    00080800    ....    DCD    526336
        0x000049e0:    08080c00    ....    DCD    134745088
        0x000049e4:    07080808    ....    DCD    117966856
        0x000049e8:    02020300    ....    DCD    33686272
        0x000049ec:    060a1a02    ....    DCD    101325314
        0x000049f0:    0000130a    ....    DCD    4874
        0x000049f4:    04040700    ....    DCD    67372800
        0x000049f8:    04040404    ....    DCD    67372036
        0x000049fc:    00001f04    ....    DCD    7940
        0x00004a00:    00000000    ....    DCD    0
        0x00004a04:    15150f00    ....    DCD    353701632
        0x00004a08:    00001515    ....    DCD    5397
        0x00004a0c:    00000000    ....    DCD    0
        0x00004a10:    12120f00    ....    DCD    303173376
        0x00004a14:    00003712    .7..    DCD    14098
        0x00004a18:    00000000    ....    DCD    0
        0x00004a1c:    12120c00    ....    DCD    303172608
        0x00004a20:    00000c12    ....    DCD    3090
        0x00004a24:    00000000    ....    DCD    0
        0x00004a28:    12120f00    ....    DCD    303173376
        0x00004a2c:    07020e12    ....    DCD    117575186
        0x00004a30:    00000000    ....    DCD    0
        0x00004a34:    12121c00    ....    DCD    303176704
        0x00004a38:    38101c12    ...8    DCD    940579858
        0x00004a3c:    00000000    ....    DCD    0
        0x00004a40:    02061b00    ....    DCD    33954560
        0x00004a44:    00000702    ....    DCD    1794
        0x00004a48:    00000000    ....    DCD    0
        0x00004a4c:    0c021e00    ....    DCD    201465344
        0x00004a50:    00001e10    ....    DCD    7696
        0x00004a54:    04000000    ....    DCD    67108864
        0x00004a58:    04041e04    ....    DCD    67378692
        0x00004a5c:    00001c04    ....    DCD    7172
        0x00004a60:    00000000    ....    DCD    0
        0x00004a64:    12121b00    ....    DCD    303176448
        0x00004a68:    00003c12    .<..    DCD    15378
        0x00004a6c:    00000000    ....    DCD    0
        0x00004a70:    0a0a1b00    ....    DCD    168434432
        0x00004a74:    00000404    ....    DCD    1028
        0x00004a78:    00000000    ....    DCD    0
        0x00004a7c:    0e151500    ....    DCD    236262656
        0x00004a80:    00000a0a    ....    DCD    2570
        0x00004a84:    00000000    ....    DCD    0
        0x00004a88:    040a1b00    ....    DCD    67771136
        0x00004a8c:    00001b0a    ....    DCD    6922
        0x00004a90:    00000000    ....    DCD    0
        0x00004a94:    12123300    .3..    DCD    303182592
        0x00004a98:    0304080c    ....    DCD    50595852
        0x00004a9c:    00000000    ....    DCD    0
        0x00004aa0:    04081e00    ....    DCD    67640832
        0x00004aa4:    00001e04    ....    DCD    7684
        0x00004aa8:    08080818    ....    DCD    134744088
        0x00004aac:    08080c08    ....    DCD    134745096
        0x00004ab0:    00180808    ....    DCD    1574920
        0x00004ab4:    08080808    ....    DCD    134744072
        0x00004ab8:    08080808    ....    DCD    134744072
        0x00004abc:    08080808    ....    DCD    134744072
        0x00004ac0:    04040406    ....    DCD    67372038
        0x00004ac4:    04040804    ....    DCD    67373060
        0x00004ac8:    00060404    ....    DCD    394244
        0x00004acc:    00000916    ....    DCD    2326
        0x00004ad0:    00000000    ....    DCD    0
        0x00004ad4:    00000000    ....    DCD    0
    ascii_1608
        0x00004ad8:    00000000    ....    DCD    0
        0x00004adc:    00000000    ....    DCD    0
        0x00004ae0:    00000000    ....    DCD    0
        0x00004ae4:    00000000    ....    DCD    0
        0x00004ae8:    08000000    ....    DCD    134217728
        0x00004aec:    08080808    ....    DCD    134744072
        0x00004af0:    00000808    ....    DCD    2056
        0x00004af4:    00001818    ....    DCD    6168
        0x00004af8:    246c4800    .Hl$    DCD    611076096
        0x00004afc:    00000012    ....    DCD    18
        0x00004b00:    00000000    ....    DCD    0
        0x00004b04:    00000000    ....    DCD    0
        0x00004b08:    24000000    ...$    DCD    603979776
        0x00004b0c:    127f2424    $$..    DCD    310322212
        0x00004b10:    127f1212    ....    DCD    310317586
        0x00004b14:    00001212    ....    DCD    4626
        0x00004b18:    1c080000    ....    DCD    470286336
        0x00004b1c:    0c0a2a2a    **..    DCD    201992746
        0x00004b20:    2a282818    .((*    DCD    707274776
        0x00004b24:    08081c2a    *...    DCD    134749226
        0x00004b28:    22000000    ..."    DCD    570425344
        0x00004b2c:    15151525    %...    DCD    353703205
        0x00004b30:    5454582a    *XTT    DCD    1414813738
        0x00004b34:    00002254    T"..    DCD    8788
        0x00004b38:    0c000000    ....    DCD    201326592
        0x00004b3c:    0a121212    ....    DCD    168956434
        0x00004b40:    11292576    v%).    DCD    287909238
        0x00004b44:    00006e91    .n..    DCD    28305
        0x00004b48:    04060600    ....    DCD    67503616
        0x00004b4c:    00000003    ....    DCD    3
        0x00004b50:    00000000    ....    DCD    0
        0x00004b54:    00000000    ....    DCD    0
        0x00004b58:    10204000    .@ .    DCD    270548992
        0x00004b5c:    08080810    ....    DCD    134744080
        0x00004b60:    10080808    ....    DCD    268961800
        0x00004b64:    00402010    . @.    DCD    4202512
        0x00004b68:    08040200    ....    DCD    134480384
        0x00004b6c:    10101008    ....    DCD    269488136
        0x00004b70:    08101010    ....    DCD    135270416
        0x00004b74:    00020408    ....    DCD    132104
        0x00004b78:    00000000    ....    DCD    0
        0x00004b7c:    1c6b0808    ..k.    DCD    476776456
        0x00004b80:    08086b1c    .k..    DCD    134769436
        0x00004b84:    00000000    ....    DCD    0
        0x00004b88:    00000000    ....    DCD    0
        0x00004b8c:    08080808    ....    DCD    134744072
        0x00004b90:    0808087f    ....    DCD    134744191
        0x00004b94:    00000008    ....    DCD    8
        0x00004b98:    00000000    ....    DCD    0
        0x00004b9c:    00000000    ....    DCD    0
        0x00004ba0:    00000000    ....    DCD    0
        0x00004ba4:    03040606    ....    DCD    50595334
        0x00004ba8:    00000000    ....    DCD    0
        0x00004bac:    00000000    ....    DCD    0
        0x00004bb0:    000000fe    ....    DCD    254
        0x00004bb4:    00000000    ....    DCD    0
        0x00004bb8:    00000000    ....    DCD    0
        0x00004bbc:    00000000    ....    DCD    0
        0x00004bc0:    00000000    ....    DCD    0
        0x00004bc4:    00000606    ....    DCD    1542
        0x00004bc8:    40800000    ...@    DCD    1082130432
        0x00004bcc:    10202040    @  .    DCD    270540864
        0x00004bd0:    04080810    ....    DCD    67635216
        0x00004bd4:    00020204    ....    DCD    131588
        0x00004bd8:    18000000    ....    DCD    402653184
        0x00004bdc:    42424224    $BBB    DCD    1111638564
        0x00004be0:    42424242    BBBB    DCD    1111638594
        0x00004be4:    00001824    $...    DCD    6180
        0x00004be8:    08000000    ....    DCD    134217728
        0x00004bec:    0808080e    ....    DCD    134744078
        0x00004bf0:    08080808    ....    DCD    134744072
        0x00004bf4:    00003e08    .>..    DCD    15880
        0x00004bf8:    3c000000    ...<    DCD    1006632960
        0x00004bfc:    20424242    BBB     DCD    541213250
        0x00004c00:    04081020     ...    DCD    67637280
        0x00004c04:    00007e42    B~..    DCD    32322
        0x00004c08:    3c000000    ...<    DCD    1006632960
        0x00004c0c:    18204242    BB .    DCD    404767298
        0x00004c10:    42404020     @@B    DCD    1111506976
        0x00004c14:    00001c22    "...    DCD    7202
        0x00004c18:    20000000    ...     DCD    536870912
        0x00004c1c:    24242830    0($$    DCD    606349360
        0x00004c20:    207e2222    ""~     DCD    545137186
        0x00004c24:    00007820     x..    DCD    30752
        0x00004c28:    7e000000    ...~    DCD    2113929216
        0x00004c2c:    1a020202    ....    DCD    436339202
        0x00004c30:    42404026    &@@B    DCD    1111506982
        0x00004c34:    00001c22    "...    DCD    7202
        0x00004c38:    38000000    ...8    DCD    939524096
        0x00004c3c:    1a020224    $...    DCD    436339236
        0x00004c40:    42424226    &BBB    DCD    1111638566
        0x00004c44:    00001824    $...    DCD    6180
        0x00004c48:    7e000000    ...~    DCD    2113929216
        0x00004c4c:    10102222    ""..    DCD    269492770
        0x00004c50:    08080808    ....    DCD    134744072
        0x00004c54:    00000808    ....    DCD    2056
        0x00004c58:    3c000000    ...<    DCD    1006632960
        0x00004c5c:    24424242    BBB$    DCD    608322114
        0x00004c60:    42422418    .$BB    DCD    1111630872
        0x00004c64:    00003c42    B<..    DCD    15426
        0x00004c68:    18000000    ....    DCD    402653184
        0x00004c6c:    42424224    $BBB    DCD    1111638564
        0x00004c70:    40405864    dX@@    DCD    1077958756
        0x00004c74:    00001c24    $...    DCD    7204
        0x00004c78:    00000000    ....    DCD    0
        0x00004c7c:    18180000    ....    DCD    404226048
        0x00004c80:    00000000    ....    DCD    0
        0x00004c84:    00001818    ....    DCD    6168
        0x00004c88:    00000000    ....    DCD    0
        0x00004c8c:    08000000    ....    DCD    134217728
        0x00004c90:    00000000    ....    DCD    0
        0x00004c94:    04080800    ....    DCD    67635200
        0x00004c98:    40000000    ...@    DCD    1073741824
        0x00004c9c:    04081020     ...    DCD    67637280
        0x00004ca0:    10080402    ....    DCD    268960770
        0x00004ca4:    00004020     @..    DCD    16416
        0x00004ca8:    00000000    ....    DCD    0
        0x00004cac:    007f0000    ....    DCD    8323072
        0x00004cb0:    007f0000    ....    DCD    8323072
        0x00004cb4:    00000000    ....    DCD    0
        0x00004cb8:    02000000    ....    DCD    33554432
        0x00004cbc:    20100804    ...     DCD    537921540
        0x00004cc0:    08102040    @ ..    DCD    135274560
        0x00004cc4:    00000204    ....    DCD    516
        0x00004cc8:    3c000000    ...<    DCD    1006632960
        0x00004ccc:    40464242    BBF@    DCD    1078346306
        0x00004cd0:    00101020     ...    DCD    1052704
        0x00004cd4:    00001818    ....    DCD    6168
        0x00004cd8:    1c000000    ....    DCD    469762048
        0x00004cdc:    55555a22    "ZUU    DCD    1431656994
        0x00004ce0:    422d5555    UU-B    DCD    1110267221
        0x00004ce4:    00001c22    "...    DCD    7202
        0x00004ce8:    08000000    ....    DCD    134217728
        0x00004cec:    14141808    ....    DCD    336861192
        0x00004cf0:    42223c24    $<"B    DCD    1109539876
        0x00004cf4:    0000e742    B...    DCD    59202
        0x00004cf8:    1f000000    ....    DCD    520093696
        0x00004cfc:    1e222222    """.    DCD    505553442
        0x00004d00:    42424222    "BBB    DCD    1111638562
        0x00004d04:    00001f22    "...    DCD    7970
        0x00004d08:    7c000000    ...|    DCD    2080374784
        0x00004d0c:    01014242    BB..    DCD    16859714
        0x00004d10:    42010101    ...B    DCD    1107362049
        0x00004d14:    00001c22    "...    DCD    7202
        0x00004d18:    1f000000    ....    DCD    520093696
        0x00004d1c:    42424222    "BBB    DCD    1111638562
        0x00004d20:    42424242    BBBB    DCD    1111638594
        0x00004d24:    00001f22    "...    DCD    7970
        0x00004d28:    3f000000    ...?    DCD    1056964608
        0x00004d2c:    1e121242    B...    DCD    504500802
        0x00004d30:    42021212    ...B    DCD    1107431954
        0x00004d34:    00003f42    B?..    DCD    16194
        0x00004d38:    3f000000    ...?    DCD    1056964608
        0x00004d3c:    1e121242    B...    DCD    504500802
        0x00004d40:    02021212    ....    DCD    33690130
        0x00004d44:    00000702    ....    DCD    1794
        0x00004d48:    3c000000    ...<    DCD    1006632960
        0x00004d4c:    01012222    ""..    DCD    16851490
        0x00004d50:    22217101    .q!"    DCD    572616961
        0x00004d54:    00001c22    "...    DCD    7202
        0x00004d58:    e7000000    ....    DCD    3875536896
        0x00004d5c:    42424242    BBBB    DCD    1111638594
        0x00004d60:    4242427e    ~BBB    DCD    1111638654
        0x00004d64:    0000e742    B...    DCD    59202
        0x00004d68:    3e000000    ...>    DCD    1040187392
        0x00004d6c:    08080808    ....    DCD    134744072
        0x00004d70:    08080808    ....    DCD    134744072
        0x00004d74:    00003e08    .>..    DCD    15880
        0x00004d78:    7c000000    ...|    DCD    2080374784
        0x00004d7c:    10101010    ....    DCD    269488144
        0x00004d80:    10101010    ....    DCD    269488144
        0x00004d84:    0f111010    ....    DCD    252776464
        0x00004d88:    77000000    ...w    DCD    1996488704
        0x00004d8c:    0e0a1222    "...    DCD    235541026
        0x00004d90:    2212120a    ..."    DCD    571609610
        0x00004d94:    00007722    "w..    DCD    30498
        0x00004d98:    07000000    ....    DCD    117440512
        0x00004d9c:    02020202    ....    DCD    33686018
        0x00004da0:    02020202    ....    DCD    33686018
        0x00004da4:    00007f42    B...    DCD    32578
        0x00004da8:    77000000    ...w    DCD    1996488704
        0x00004dac:    36363636    6666    DCD    909522486
        0x00004db0:    2a2a2a2a    ****    DCD    707406378
        0x00004db4:    00006b2a    *k..    DCD    27434
        0x00004db8:    e3000000    ....    DCD    3808428032
        0x00004dbc:    4a4a4646    FFJJ    DCD    1246381638
        0x00004dc0:    62525252    RRRb    DCD    1649562194
        0x00004dc4:    00004762    bG..    DCD    18274
        0x00004dc8:    1c000000    ....    DCD    469762048
        0x00004dcc:    41414122    "AAA    DCD    1094795554
        0x00004dd0:    41414141    AAAA    DCD    1094795585
        0x00004dd4:    00001c22    "...    DCD    7202
        0x00004dd8:    3f000000    ...?    DCD    1056964608
        0x00004ddc:    42424242    BBBB    DCD    1111638594
        0x00004de0:    0202023e    >...    DCD    33686078
        0x00004de4:    00000702    ....    DCD    1794
        0x00004de8:    1c000000    ....    DCD    469762048
        0x00004dec:    41414122    "AAA    DCD    1094795554
        0x00004df0:    534d4141    AAMS    DCD    1397571905
        0x00004df4:    00601c32    2.`.    DCD    6298674
        0x00004df8:    3f000000    ...?    DCD    1056964608
        0x00004dfc:    3e424242    BBB>    DCD    1044529730
        0x00004e00:    22221212    ..""    DCD    572658194
        0x00004e04:    0000c742    B...    DCD    51010
        0x00004e08:    7c000000    ...|    DCD    2080374784
        0x00004e0c:    04024242    BB..    DCD    67256898
        0x00004e10:    42402018    . @B    DCD    1111498776
        0x00004e14:    00003e42    B>..    DCD    15938
        0x00004e18:    7f000000    ....    DCD    2130706432
        0x00004e1c:    08080849    I...    DCD    134744137
        0x00004e20:    08080808    ....    DCD    134744072
        0x00004e24:    00001c08    ....    DCD    7176
        0x00004e28:    e7000000    ....    DCD    3875536896
        0x00004e2c:    42424242    BBBB    DCD    1111638594
        0x00004e30:    42424242    BBBB    DCD    1111638594
        0x00004e34:    00003c42    B<..    DCD    15426
        0x00004e38:    e7000000    ....    DCD    3875536896
        0x00004e3c:    24224242    BB"$    DCD    606224962
        0x00004e40:    18141424    $...    DCD    403969060
        0x00004e44:    00000808    ....    DCD    2056
        0x00004e48:    6b000000    ...k    DCD    1795162112
        0x00004e4c:    49494949    IIII    DCD    1229539657
        0x00004e50:    22365555    UU6"    DCD    573986133
        0x00004e54:    00002222    ""..    DCD    8738
        0x00004e58:    e7000000    ....    DCD    3875536896
        0x00004e5c:    18242442    B$$.    DCD    405021762
        0x00004e60:    24241818    ..$$    DCD    606345240
        0x00004e64:    0000e742    B...    DCD    59202
        0x00004e68:    77000000    ...w    DCD    1996488704
        0x00004e6c:    14142222    ""..    DCD    336863778
        0x00004e70:    08080808    ....    DCD    134744072
        0x00004e74:    00001c08    ....    DCD    7176
        0x00004e78:    7e000000    ...~    DCD    2113929216
        0x00004e7c:    10102021    ! ..    DCD    269492257
        0x00004e80:    42040408    ...B    DCD    1107559432
        0x00004e84:    00003f42    B?..    DCD    16194
        0x00004e88:    08087800    .x..    DCD    134772736
        0x00004e8c:    08080808    ....    DCD    134744072
        0x00004e90:    08080808    ....    DCD    134744072
        0x00004e94:    00780808    ..x.    DCD    7866376
        0x00004e98:    02020000    ....    DCD    33685504
        0x00004e9c:    08080404    ....    DCD    134743044
        0x00004ea0:    20101008    ...     DCD    537923592
        0x00004ea4:    40402020      @@    DCD    1077944352
        0x00004ea8:    10101e00    ....    DCD    269491712
        0x00004eac:    10101010    ....    DCD    269488144
        0x00004eb0:    10101010    ....    DCD    269488144
        0x00004eb4:    001e1010    ....    DCD    1970192
        0x00004eb8:    00443800    .8D.    DCD    4470784
        0x00004ebc:    00000000    ....    DCD    0
        0x00004ec0:    00000000    ....    DCD    0
        0x00004ec4:    00000000    ....    DCD    0
        0x00004ec8:    00000000    ....    DCD    0
        0x00004ecc:    00000000    ....    DCD    0
        0x00004ed0:    00000000    ....    DCD    0
        0x00004ed4:    ff000000    ....    DCD    4278190080
        0x00004ed8:    00080600    ....    DCD    525824
        0x00004edc:    00000000    ....    DCD    0
        0x00004ee0:    00000000    ....    DCD    0
        0x00004ee4:    00000000    ....    DCD    0
        0x00004ee8:    00000000    ....    DCD    0
        0x00004eec:    3c000000    ...<    DCD    1006632960
        0x00004ef0:    42447842    BxDB    DCD    1111783490
        0x00004ef4:    0000fc42    B...    DCD    64578
        0x00004ef8:    03000000    ....    DCD    50331648
        0x00004efc:    1a020202    ....    DCD    436339202
        0x00004f00:    42424226    &BBB    DCD    1111638566
        0x00004f04:    00001a26    &...    DCD    6694
        0x00004f08:    00000000    ....    DCD    0
        0x00004f0c:    38000000    ...8    DCD    939524096
        0x00004f10:    02020244    D...    DCD    33686084
        0x00004f14:    00003844    D8..    DCD    14404
        0x00004f18:    60000000    ...`    DCD    1610612736
        0x00004f1c:    78404040    @@@x    DCD    2017476672
        0x00004f20:    42424244    DBBB    DCD    1111638596
        0x00004f24:    0000d864    d...    DCD    55396
        0x00004f28:    00000000    ....    DCD    0
        0x00004f2c:    3c000000    ...<    DCD    1006632960
        0x00004f30:    02027e42    B~..    DCD    33717826
        0x00004f34:    00003c42    B<..    DCD    15426
        0x00004f38:    f0000000    ....    DCD    4026531840
        0x00004f3c:    7e080888    ...~    DCD    2114455688
        0x00004f40:    08080808    ....    DCD    134744072
        0x00004f44:    00003e08    .>..    DCD    15880
        0x00004f48:    00000000    ....    DCD    0
        0x00004f4c:    7c000000    ...|    DCD    2080374784
        0x00004f50:    021c2222    ""..    DCD    35398178
        0x00004f54:    3c42423c    <BB<    DCD    1010975292
        0x00004f58:    03000000    ....    DCD    50331648
        0x00004f5c:    3a020202    ...:    DCD    973210114
        0x00004f60:    42424246    FBBB    DCD    1111638598
        0x00004f64:    0000e742    B...    DCD    59202
        0x00004f68:    0c000000    ....    DCD    201326592
        0x00004f6c:    0e00000c    ....    DCD    234881036
        0x00004f70:    08080808    ....    DCD    134744072
        0x00004f74:    00003e08    .>..    DCD    15880
        0x00004f78:    30000000    ...0    DCD    805306368
        0x00004f7c:    38000030    0..8    DCD    939524144
        0x00004f80:    20202020            DCD    538976288
        0x00004f84:    1e222020      ".    DCD    505552928
        0x00004f88:    03000000    ....    DCD    50331648
        0x00004f8c:    72020202    ...r    DCD    1912734210
        0x00004f90:    12160a12    ....    DCD    303434258
        0x00004f94:    00007722    "w..    DCD    30498
        0x00004f98:    0e000000    ....    DCD    234881024
        0x00004f9c:    08080808    ....    DCD    134744072
        0x00004fa0:    08080808    ....    DCD    134744072
        0x00004fa4:    00003e08    .>..    DCD    15880
        0x00004fa8:    00000000    ....    DCD    0
        0x00004fac:    7f000000    ....    DCD    2130706432
        0x00004fb0:    92929292    ....    DCD    2459079314
        0x00004fb4:    0000b792    ....    DCD    46994
        0x00004fb8:    00000000    ....    DCD    0
        0x00004fbc:    3b000000    ...;    DCD    989855744
        0x00004fc0:    42424246    FBBB    DCD    1111638598
        0x00004fc4:    0000e742    B...    DCD    59202
        0x00004fc8:    00000000    ....    DCD    0
        0x00004fcc:    3c000000    ...<    DCD    1006632960
        0x00004fd0:    42424242    BBBB    DCD    1111638594
        0x00004fd4:    00003c42    B<..    DCD    15426
        0x00004fd8:    00000000    ....    DCD    0
        0x00004fdc:    1b000000    ....    DCD    452984832
        0x00004fe0:    42424226    &BBB    DCD    1111638566
        0x00004fe4:    07021e22    "...    DCD    117579298
        0x00004fe8:    00000000    ....    DCD    0
        0x00004fec:    78000000    ...x    DCD    2013265920
        0x00004ff0:    42424244    DBBB    DCD    1111638596
        0x00004ff4:    e0407844    Dx@.    DCD    3762321476
        0x00004ff8:    00000000    ....    DCD    0
        0x00004ffc:    77000000    ...w    DCD    1996488704
        0x00005000:    0404044c    L...    DCD    67372108
        0x00005004:    00001f04    ....    DCD    7940
        0x00005008:    00000000    ....    DCD    0
        0x0000500c:    7c000000    ...|    DCD    2080374784
        0x00005010:    403c0242    B.<@    DCD    1077674562
        0x00005014:    00003e42    B>..    DCD    15938
        0x00005018:    00000000    ....    DCD    0
        0x0000501c:    3e080800    ...>    DCD    1040713728
        0x00005020:    08080808    ....    DCD    134744072
        0x00005024:    00003008    .0..    DCD    12296
        0x00005028:    00000000    ....    DCD    0
        0x0000502c:    63000000    ...c    DCD    1660944384
        0x00005030:    42424242    BBBB    DCD    1111638594
        0x00005034:    0000dc62    b...    DCD    56418
        0x00005038:    00000000    ....    DCD    0
        0x0000503c:    e7000000    ....    DCD    3875536896
        0x00005040:    14242442    B$$.    DCD    337912898
        0x00005044:    00000808    ....    DCD    2056
        0x00005048:    00000000    ....    DCD    0
        0x0000504c:    eb000000    ....    DCD    3942645760
        0x00005050:    55554949    IIUU    DCD    1431652681
        0x00005054:    00002222    ""..    DCD    8738
        0x00005058:    00000000    ....    DCD    0
        0x0000505c:    76000000    ...v    DCD    1979711488
        0x00005060:    18181824    $...    DCD    404232228
        0x00005064:    00006e24    $n..    DCD    28196
        0x00005068:    00000000    ....    DCD    0
        0x0000506c:    e7000000    ....    DCD    3875536896
        0x00005070:    14242442    B$$.    DCD    337912898
        0x00005074:    07080818    ....    DCD    117966872
        0x00005078:    00000000    ....    DCD    0
        0x0000507c:    7e000000    ...~    DCD    2113929216
        0x00005080:    08081022    "...    DCD    134746146
        0x00005084:    00007e44    D~..    DCD    32324
        0x00005088:    2020c000    ..      DCD    539017216
        0x0000508c:    10202020       .    DCD    270540832
        0x00005090:    20202020            DCD    538976288
        0x00005094:    00c02020      ..    DCD    12591136
        0x00005098:    10101010    ....    DCD    269488144
        0x0000509c:    10101010    ....    DCD    269488144
        0x000050a0:    10101010    ....    DCD    269488144
        0x000050a4:    10101010    ....    DCD    269488144
        0x000050a8:    08080600    ....    DCD    134743552
        0x000050ac:    10080808    ....    DCD    268961800
        0x000050b0:    08080808    ....    DCD    134744072
        0x000050b4:    00060808    ....    DCD    395272
        0x000050b8:    00c2320c    .2..    DCD    12726796
        0x000050bc:    00000000    ....    DCD    0
        0x000050c0:    00000000    ....    DCD    0
        0x000050c4:    00000000    ....    DCD    0
    ascii_2412
        0x000050c8:    00000000    ....    DCD    0
        0x000050cc:    00000000    ....    DCD    0
        0x000050d0:    00000000    ....    DCD    0
        0x000050d4:    00000000    ....    DCD    0
        0x000050d8:    00000000    ....    DCD    0
        0x000050dc:    00000000    ....    DCD    0
        0x000050e0:    00000000    ....    DCD    0
        0x000050e4:    00000000    ....    DCD    0
        0x000050e8:    00000000    ....    DCD    0
        0x000050ec:    00000000    ....    DCD    0
        0x000050f0:    00000000    ....    DCD    0
        0x000050f4:    00000000    ....    DCD    0
        0x000050f8:    00000000    ....    DCD    0
        0x000050fc:    00000000    ....    DCD    0
        0x00005100:    00e000e0    ....    DCD    14680288
        0x00005104:    00e000e0    ....    DCD    14680288
        0x00005108:    004000e0    ..@.    DCD    4194528
        0x0000510c:    00400040    @.@.    DCD    4194368
        0x00005110:    00400040    @.@.    DCD    4194368
        0x00005114:    00000040    @...    DCD    64
        0x00005118:    00000000    ....    DCD    0
        0x0000511c:    00e000e0    ....    DCD    14680288
        0x00005120:    000000e0    ....    DCD    224
        0x00005124:    00000000    ....    DCD    0
        0x00005128:    00000000    ....    DCD    0
        0x0000512c:    06600660    `.`.    DCD    106956384
        0x00005130:    01980330    0...    DCD    26739504
        0x00005134:    00440088    ..D.    DCD    4456584
        0x00005138:    00000000    ....    DCD    0
        0x0000513c:    00000000    ....    DCD    0
        0x00005140:    00000000    ....    DCD    0
        0x00005144:    00000000    ....    DCD    0
        0x00005148:    00000000    ....    DCD    0
        0x0000514c:    00000000    ....    DCD    0
        0x00005150:    00000000    ....    DCD    0
        0x00005154:    00000000    ....    DCD    0
        0x00005158:    00000000    ....    DCD    0
        0x0000515c:    00000000    ....    DCD    0
        0x00005160:    02080000    ....    DCD    34078720
        0x00005164:    02080208    ....    DCD    34079240
        0x00005168:    07fe0208    ....    DCD    134087176
        0x0000516c:    020807fe    ....    DCD    34080766
        0x00005170:    01040208    ....    DCD    17039880
        0x00005174:    07fe0104    ....    DCD    134086916
        0x00005178:    010407fe    ....    DCD    17041406
        0x0000517c:    01040104    ....    DCD    17039620
        0x00005180:    00000104    ....    DCD    260
        0x00005184:    00000000    ....    DCD    0
        0x00005188:    00000000    ....    DCD    0
        0x0000518c:    00400000    ..@.    DCD    4194304
        0x00005190:    01f00040    @...    DCD    32505920
        0x00005194:    034c0358    X.L.    DCD    55313240
        0x00005198:    004c034c    L.L.    DCD    4981580
        0x0000519c:    00700058    X.p.    DCD    7340120
        0x000051a0:    01c000e0    ....    DCD    29360352
        0x000051a4:    034001c0    ..@.    DCD    54526400
        0x000051a8:    034c034c    L.L.    DCD    55313228
        0x000051ac:    0148034c    L.H.    DCD    21496652
        0x000051b0:    004000f0    ..@.    DCD    4194544
        0x000051b4:    00000040    @...    DCD    64
        0x000051b8:    00000000    ....    DCD    0
        0x000051bc:    00000000    ....    DCD    0
        0x000051c0:    030e0000    ....    DCD    51249152
        0x000051c4:    0111010a    ....    DCD    17891594
        0x000051c8:    00910091    ....    DCD    9502865
        0x000051cc:    005100d1    ..Q.    DCD    5308625
        0x000051d0:    02ae03fa    ....    DCD    44958714
        0x000051d4:    04500460    `.P.    DCD    72352864
        0x000051d8:    04580450    P.X.    DCD    72877136
        0x000051dc:    02880448    H...    DCD    42468424
        0x000051e0:    00000384    ....    DCD    900
        0x000051e4:    00000000    ....    DCD    0
        0x000051e8:    00000000    ....    DCD    0
        0x000051ec:    00000000    ....    DCD    0
        0x000051f0:    00380000    ..8.    DCD    3670016
        0x000051f4:    00640064    d.d.    DCD    6553700
        0x000051f8:    00640064    d.d.    DCD    6553700
        0x000051fc:    011c03a4    ....    DCD    18613156
        0x00005200:    011a010c    ....    DCD    18481420
        0x00005204:    00b30092    ....    DCD    11731090
        0x00005208:    006300e3    ..c.    DCD    6488291
        0x0000520c:    04a600c3    ....    DCD    77988035
        0x00005210:    0000031c    ....    DCD    796
        0x00005214:    00000000    ....    DCD    0
        0x00005218:    00000000    ....    DCD    0
        0x0000521c:    001c000c    ....    DCD    1835020
        0x00005220:    00100010    ....    DCD    1048592
        0x00005224:    00060008    ....    DCD    393224
        0x00005228:    00000000    ....    DCD    0
        0x0000522c:    00000000    ....    DCD    0
        0x00005230:    00000000    ....    DCD    0
        0x00005234:    00000000    ....    DCD    0
        0x00005238:    00000000    ....    DCD    0
        0x0000523c:    00000000    ....    DCD    0
        0x00005240:    00000000    ....    DCD    0
        0x00005244:    00000000    ....    DCD    0
        0x00005248:    00000000    ....    DCD    0
        0x0000524c:    02000400    ....    DCD    33555456
        0x00005250:    01800100    ....    DCD    25166080
        0x00005254:    00c00080    ....    DCD    12583040
        0x00005258:    006000c0    ..`.    DCD    6291648
        0x0000525c:    00600060    `.`.    DCD    6291552
        0x00005260:    00600060    `.`.    DCD    6291552
        0x00005264:    00600060    `.`.    DCD    6291552
        0x00005268:    00c000c0    ....    DCD    12583104
        0x0000526c:    01800080    ....    DCD    25165952
        0x00005270:    02000100    ....    DCD    33554688
        0x00005274:    00000400    ....    DCD    1024
        0x00005278:    00000000    ....    DCD    0
        0x0000527c:    00040002    ....    DCD    262146
        0x00005280:    00180008    ....    DCD    1572872
        0x00005284:    00300010    ..0.    DCD    3145744
        0x00005288:    00600030    0.`.    DCD    6291504
        0x0000528c:    00600060    `.`.    DCD    6291552
        0x00005290:    00600060    `.`.    DCD    6291552
        0x00005294:    00600060    `.`.    DCD    6291552
        0x00005298:    00300030    0.0.    DCD    3145776
        0x0000529c:    00180010    ....    DCD    1572880
        0x000052a0:    00040008    ....    DCD    262152
        0x000052a4:    00000002    ....    DCD    2
        0x000052a8:    00000000    ....    DCD    0
        0x000052ac:    00000000    ....    DCD    0
        0x000052b0:    00000000    ....    DCD    0
        0x000052b4:    00400040    @.@.    DCD    4194368
        0x000052b8:    0e4e0040    @.N.    DCD    239992896
        0x000052bc:    01f0075c    \...    DCD    32507740
        0x000052c0:    075c01f0    ..\.    DCD    123470320
        0x000052c4:    00400e4e    N.@.    DCD    4197966
        0x000052c8:    00400040    @.@.    DCD    4194368
        0x000052cc:    00000000    ....    DCD    0
        0x000052d0:    00000000    ....    DCD    0
        0x000052d4:    00000000    ....    DCD    0
        0x000052d8:    00000000    ....    DCD    0
        0x000052dc:    00000000    ....    DCD    0
        0x000052e0:    00000000    ....    DCD    0
        0x000052e4:    00400000    ..@.    DCD    4194304
        0x000052e8:    00400040    @.@.    DCD    4194368
        0x000052ec:    00400040    @.@.    DCD    4194368
        0x000052f0:    00400ffe    ..@.    DCD    4198398
        0x000052f4:    00400040    @.@.    DCD    4194368
        0x000052f8:    00400040    @.@.    DCD    4194368
        0x000052fc:    00000000    ....    DCD    0
        0x00005300:    00000000    ....    DCD    0
        0x00005304:    00000000    ....    DCD    0
        0x00005308:    00000000    ....    DCD    0
        0x0000530c:    00000000    ....    DCD    0
        0x00005310:    00000000    ....    DCD    0
        0x00005314:    00000000    ....    DCD    0
        0x00005318:    00000000    ....    DCD    0
        0x0000531c:    00000000    ....    DCD    0
        0x00005320:    00000000    ....    DCD    0
        0x00005324:    00000000    ....    DCD    0
        0x00005328:    00000000    ....    DCD    0
        0x0000532c:    001c000c    ....    DCD    1835020
        0x00005330:    00100010    ....    DCD    1048592
        0x00005334:    00060008    ....    DCD    393224
        0x00005338:    00000000    ....    DCD    0
        0x0000533c:    00000000    ....    DCD    0
        0x00005340:    00000000    ....    DCD    0
        0x00005344:    00000000    ....    DCD    0
        0x00005348:    00000000    ....    DCD    0
        0x0000534c:    00000000    ....    DCD    0
        0x00005350:    000007fe    ....    DCD    2046
        0x00005354:    00000000    ....    DCD    0
        0x00005358:    00000000    ....    DCD    0
        0x0000535c:    00000000    ....    DCD    0
        0x00005360:    00000000    ....    DCD    0
        0x00005364:    00000000    ....    DCD    0
        0x00005368:    00000000    ....    DCD    0
        0x0000536c:    00000000    ....    DCD    0
        0x00005370:    00000000    ....    DCD    0
        0x00005374:    00000000    ....    DCD    0
        0x00005378:    00000000    ....    DCD    0
        0x0000537c:    00000000    ....    DCD    0
        0x00005380:    00000000    ....    DCD    0
        0x00005384:    00000000    ....    DCD    0
        0x00005388:    00000000    ....    DCD    0
        0x0000538c:    001c001c    ....    DCD    1835036
        0x00005390:    0000001c    ....    DCD    28
        0x00005394:    00000000    ....    DCD    0
        0x00005398:    00000000    ....    DCD    0
        0x0000539c:    06000400    ....    DCD    100664320
        0x000053a0:    03000200    ....    DCD    50332160
        0x000053a4:    01000100    ....    DCD    16777472
        0x000053a8:    00800080    ....    DCD    8388736
        0x000053ac:    00400040    @.@.    DCD    4194368
        0x000053b0:    00200060    `. .    DCD    2097248
        0x000053b4:    00100020     ...    DCD    1048608
        0x000053b8:    00080010    ....    DCD    524304
        0x000053bc:    000c0008    ....    DCD    786440
        0x000053c0:    00060004    ....    DCD    393220
        0x000053c4:    00000002    ....    DCD    2
        0x000053c8:    00000000    ....    DCD    0
        0x000053cc:    00000000    ....    DCD    0
        0x000053d0:    00f00000    ....    DCD    15728640
        0x000053d4:    030c0198    ....    DCD    51118488
        0x000053d8:    0606030c    ....    DCD    101057292
        0x000053dc:    06060606    ....    DCD    101058054
        0x000053e0:    06060606    ....    DCD    101058054
        0x000053e4:    06060606    ....    DCD    101058054
        0x000053e8:    030c0606    ....    DCD    51119622
        0x000053ec:    0198030c    ....    DCD    26739468
        0x000053f0:    000000f0    ....    DCD    240
        0x000053f4:    00000000    ....    DCD    0
        0x000053f8:    00000000    ....    DCD    0
        0x000053fc:    00000000    ....    DCD    0
        0x00005400:    00400000    ..@.    DCD    4194304
        0x00005404:    007c0060    `.|.    DCD    8126560
        0x00005408:    00600060    `.`.    DCD    6291552
        0x0000540c:    00600060    `.`.    DCD    6291552
        0x00005410:    00600060    `.`.    DCD    6291552
        0x00005414:    00600060    `.`.    DCD    6291552
        0x00005418:    00600060    `.`.    DCD    6291552
        0x0000541c:    00600060    `.`.    DCD    6291552
        0x00005420:    000003fc    ....    DCD    1020
        0x00005424:    00000000    ....    DCD    0
        0x00005428:    00000000    ....    DCD    0
        0x0000542c:    00000000    ....    DCD    0
        0x00005430:    00f80000    ....    DCD    16252928
        0x00005434:    03020184    ....    DCD    50463108
        0x00005438:    03060306    ....    DCD    50725638
        0x0000543c:    01800300    ....    DCD    25166592
        0x00005440:    00c00180    ....    DCD    12583296
        0x00005444:    00100020     ...    DCD    1048608
        0x00005448:    02040208    ....    DCD    33817096
        0x0000544c:    03fe0202    ....    DCD    66978306
        0x00005450:    000003fe    ....    DCD    1022
        0x00005454:    00000000    ....    DCD    0
        0x00005458:    00000000    ....    DCD    0
        0x0000545c:    00000000    ....    DCD    0
        0x00005460:    00780000    ..x.    DCD    7864320
        0x00005464:    018600c4    ....    DCD    25559236
        0x00005468:    01860186    ....    DCD    25559430
        0x0000546c:    00c00180    ....    DCD    12583296
        0x00005470:    01800070    p...    DCD    25165936
        0x00005474:    03000100    ....    DCD    50331904
        0x00005478:    03060306    ....    DCD    50725638
        0x0000547c:    01840306    ....    DCD    25428742
        0x00005480:    000000f8    ....    DCD    248
        0x00005484:    00000000    ....    DCD    0
        0x00005488:    00000000    ....    DCD    0
        0x0000548c:    00000000    ....    DCD    0
        0x00005490:    01800100    ....    DCD    25166080
        0x00005494:    01c001c0    ....    DCD    29360576
        0x00005498:    019001a0    ....    DCD    26214816
        0x0000549c:    01880190    ....    DCD    25690512
        0x000054a0:    01840184    ....    DCD    25428356
        0x000054a4:    07fe0182    ....    DCD    134087042
        0x000054a8:    01800180    ....    DCD    25166208
        0x000054ac:    01800180    ....    DCD    25166208
        0x000054b0:    000007e0    ....    DCD    2016
        0x000054b4:    00000000    ....    DCD    0
        0x000054b8:    00000000    ....    DCD    0
        0x000054bc:    00000000    ....    DCD    0
        0x000054c0:    03fc0000    ....    DCD    66846720
        0x000054c4:    000403fc    ....    DCD    263164
        0x000054c8:    00040004    ....    DCD    262148
        0x000054cc:    00f40004    ....    DCD    15990788
        0x000054d0:    0304018c    ....    DCD    50594188
        0x000054d4:    03000300    ....    DCD    50332416
        0x000054d8:    03060306    ....    DCD    50725638
        0x000054dc:    01840182    ....    DCD    25428354
        0x000054e0:    000000f8    ....    DCD    248
        0x000054e4:    00000000    ....    DCD    0
        0x000054e8:    00000000    ....    DCD    0
        0x000054ec:    00000000    ....    DCD    0
        0x000054f0:    01e00000    ....    DCD    31457280
        0x000054f4:    030c0318    ....    DCD    51118872
        0x000054f8:    0004000c    ....    DCD    262156
        0x000054fc:    01e60006    ....    DCD    31850502
        0x00005500:    060e0316    ....    DCD    101581590
        0x00005504:    06060606    ....    DCD    101058054
        0x00005508:    06040606    ....    DCD    100926982
        0x0000550c:    0318020c    ....    DCD    51905036
        0x00005510:    000000f0    ....    DCD    240
        0x00005514:    00000000    ....    DCD    0
        0x00005518:    00000000    ....    DCD    0
        0x0000551c:    00000000    ....    DCD    0
        0x00005520:    07f80000    ....    DCD    133693440
        0x00005524:    020c07fc    ....    DCD    34342908
        0x00005528:    01040104    ....    DCD    17039620
        0x0000552c:    00800100    ....    DCD    8388864
        0x00005530:    00400080    ..@.    DCD    4194432
        0x00005534:    00400040    @.@.    DCD    4194368
        0x00005538:    00600060    `.`.    DCD    6291552
        0x0000553c:    00600060    `.`.    DCD    6291552
        0x00005540:    00000060    `...    DCD    96
        0x00005544:    00000000    ....    DCD    0
        0x00005548:    00000000    ....    DCD    0
        0x0000554c:    00000000    ....    DCD    0
        0x00005550:    01f80000    ....    DCD    33030144
        0x00005554:    0606030c    ....    DCD    101057292
        0x00005558:    06060606    ....    DCD    101058054
        0x0000555c:    033c020e    ..<.    DCD    54264334
        0x00005560:    01cc00f0    ....    DCD    30146800
        0x00005564:    06060304    ....    DCD    101057284
        0x00005568:    06060606    ....    DCD    101058054
        0x0000556c:    030c0606    ....    DCD    51119622
        0x00005570:    000001f0    ....    DCD    496
        0x00005574:    00000000    ....    DCD    0
        0x00005578:    00000000    ....    DCD    0
        0x0000557c:    00000000    ....    DCD    0
        0x00005580:    00f00000    ....    DCD    15728640
        0x00005584:    030c010c    ....    DCD    51118348
        0x00005588:    06060206    ....    DCD    101057030
        0x0000558c:    06060606    ....    DCD    101058054
        0x00005590:    068c0706    ....    DCD    109840134
        0x00005594:    06000678    x...    DCD    100664952
        0x00005598:    03000300    ....    DCD    50332416
        0x0000559c:    018c010c    ....    DCD    25952524
        0x000055a0:    00000078    x...    DCD    120
        0x000055a4:    00000000    ....    DCD    0
        0x000055a8:    00000000    ....    DCD    0
        0x000055ac:    00000000    ....    DCD    0
        0x000055b0:    00000000    ....    DCD    0
        0x000055b4:    00000000    ....    DCD    0
        0x000055b8:    00e00000    ....    DCD    14680064
        0x000055bc:    00e000e0    ....    DCD    14680288
        0x000055c0:    00000000    ....    DCD    0
        0x000055c4:    00000000    ....    DCD    0
        0x000055c8:    00000000    ....    DCD    0
        0x000055cc:    00e000e0    ....    DCD    14680288
        0x000055d0:    000000e0    ....    DCD    224
        0x000055d4:    00000000    ....    DCD    0
        0x000055d8:    00000000    ....    DCD    0
        0x000055dc:    00000000    ....    DCD    0
        0x000055e0:    00000000    ....    DCD    0
        0x000055e4:    00000000    ....    DCD    0
        0x000055e8:    00000000    ....    DCD    0
        0x000055ec:    00600060    `.`.    DCD    6291552
        0x000055f0:    00000000    ....    DCD    0
        0x000055f4:    00000000    ....    DCD    0
        0x000055f8:    00000000    ....    DCD    0
        0x000055fc:    00600000    ..`.    DCD    6291456
        0x00005600:    00400060    `.@.    DCD    4194400
        0x00005604:    00000020     ...    DCD    32
        0x00005608:    00000000    ....    DCD    0
        0x0000560c:    00000000    ....    DCD    0
        0x00005610:    02000400    ....    DCD    33555456
        0x00005614:    00800100    ....    DCD    8388864
        0x00005618:    00200040    @. .    DCD    2097216
        0x0000561c:    00080010    ....    DCD    524304
        0x00005620:    00080004    ....    DCD    524292
        0x00005624:    00200010    .. .    DCD    2097168
        0x00005628:    00800040    @...    DCD    8388672
        0x0000562c:    02000100    ....    DCD    33554688
        0x00005630:    00000400    ....    DCD    1024
        0x00005634:    00000000    ....    DCD    0
        0x00005638:    00000000    ....    DCD    0
        0x0000563c:    00000000    ....    DCD    0
        0x00005640:    00000000    ....    DCD    0
        0x00005644:    00000000    ....    DCD    0
        0x00005648:    00000000    ....    DCD    0
        0x0000564c:    000007fe    ....    DCD    2046
        0x00005650:    00000000    ....    DCD    0
        0x00005654:    07fe0000    ....    DCD    134086656
        0x00005658:    00000000    ....    DCD    0
        0x0000565c:    00000000    ....    DCD    0
        0x00005660:    00000000    ....    DCD    0
        0x00005664:    00000000    ....    DCD    0
        0x00005668:    00000000    ....    DCD    0
        0x0000566c:    00000000    ....    DCD    0
        0x00005670:    00080004    ....    DCD    524292
        0x00005674:    00200010    .. .    DCD    2097168
        0x00005678:    00800040    @...    DCD    8388672
        0x0000567c:    02000100    ....    DCD    33554688
        0x00005680:    02000400    ....    DCD    33555456
        0x00005684:    00800100    ....    DCD    8388864
        0x00005688:    00200040    @. .    DCD    2097216
        0x0000568c:    00080010    ....    DCD    524304
        0x00005690:    00000004    ....    DCD    4
        0x00005694:    00000000    ....    DCD    0
        0x00005698:    00000000    ....    DCD    0
        0x0000569c:    00000000    ....    DCD    0
        0x000056a0:    030c01f0    ....    DCD    51118576
        0x000056a4:    06020602    ....    DCD    100795906
        0x000056a8:    06060606    ....    DCD    101058054
        0x000056ac:    01800300    ....    DCD    25166592
        0x000056b0:    00200060    `. .    DCD    2097248
        0x000056b4:    00200020     . .    DCD    2097184
        0x000056b8:    00000000    ....    DCD    0
        0x000056bc:    00700070    p.p.    DCD    7340144
        0x000056c0:    00000070    p...    DCD    112
        0x000056c4:    00000000    ....    DCD    0
        0x000056c8:    00000000    ....    DCD    0
        0x000056cc:    00000000    ....    DCD    0
        0x000056d0:    01e00000    ....    DCD    31457280
        0x000056d4:    04080638    8...    DCD    67634744
        0x000056d8:    0b640acc    ..d.    DCD    191105740
        0x000056dc:    09260926    &.&.    DCD    153487654
        0x000056e0:    09160916    ....    DCD    152439062
        0x000056e4:    05960996    ....    DCD    93718934
        0x000056e8:    080c0366    f...    DCD    135005030
        0x000056ec:    0218040c    ....    DCD    35128332
        0x000056f0:    000001e0    ....    DCD    480
        0x000056f4:    00000000    ....    DCD    0
        0x000056f8:    00000000    ....    DCD    0
        0x000056fc:    00000000    ....    DCD    0
        0x00005700:    00600000    ..`.    DCD    6291456
        0x00005704:    00700060    `.p.    DCD    7340128
        0x00005708:    00d000d0    ....    DCD    13631696
        0x0000570c:    018800c8    ....    DCD    25690312
        0x00005710:    01880188    ....    DCD    25690504
        0x00005714:    030401f8    ....    DCD    50594296
        0x00005718:    03040304    ....    DCD    50594564
        0x0000571c:    06060604    ....    DCD    101058052
        0x00005720:    00000f0f    ....    DCD    3855
        0x00005724:    00000000    ....    DCD    0
        0x00005728:    00000000    ....    DCD    0
        0x0000572c:    00000000    ....    DCD    0
        0x00005730:    00ff0000    ....    DCD    16711680
        0x00005734:    03060186    ....    DCD    50725254
        0x00005738:    03060306    ....    DCD    50725638
        0x0000573c:    01860306    ....    DCD    25559814
        0x00005740:    030600fe    ....    DCD    50725118
        0x00005744:    06060206    ....    DCD    101057030
        0x00005748:    06060606    ....    DCD    101058054
        0x0000574c:    03060606    ....    DCD    50726406
        0x00005750:    000001ff    ....    DCD    511
        0x00005754:    00000000    ....    DCD    0
        0x00005758:    00000000    ....    DCD    0
        0x0000575c:    00000000    ....    DCD    0
        0x00005760:    07e00000    ....    DCD    132120576
        0x00005764:    040c0618    ....    DCD    67896856
        0x00005768:    0004040c    ....    DCD    263180
        0x0000576c:    00060006    ....    DCD    393222
        0x00005770:    00060006    ....    DCD    393222
        0x00005774:    00060006    ....    DCD    393222
        0x00005778:    040c0406    ....    DCD    67896326
        0x0000577c:    0118020c    ....    DCD    18350604
        0x00005780:    000000f0    ....    DCD    240
        0x00005784:    00000000    ....    DCD    0
        0x00005788:    00000000    ....    DCD    0
        0x0000578c:    00000000    ....    DCD    0
        0x00005790:    007f0000    ....    DCD    8323072
        0x00005794:    03060186    ....    DCD    50725254
        0x00005798:    06060306    ....    DCD    101057286
        0x0000579c:    06060606    ....    DCD    101058054
        0x000057a0:    06060606    ....    DCD    101058054
        0x000057a4:    06060606    ....    DCD    101058054
        0x000057a8:    03060606    ....    DCD    50726406
        0x000057ac:    01c60306    ....    DCD    29754118
        0x000057b0:    0000007f    ....    DCD    127
        0x000057b4:    00000000    ....    DCD    0
        0x000057b8:    00000000    ....    DCD    0
        0x000057bc:    00000000    ....    DCD    0
        0x000057c0:    03ff0000    ....    DCD    67043328
        0x000057c4:    04060206    ....    DCD    67502598
        0x000057c8:    00060006    ....    DCD    393222
        0x000057cc:    00860086    ....    DCD    8781958
        0x000057d0:    008600fe    ....    DCD    8782078
        0x000057d4:    00060086    ....    DCD    393350
        0x000057d8:    04060006    ....    DCD    67502086
        0x000057dc:    02060406    ....    DCD    33948678
        0x000057e0:    000003ff    ....    DCD    1023
        0x000057e4:    00000000    ....    DCD    0
        0x000057e8:    00000000    ....    DCD    0
        0x000057ec:    00000000    ....    DCD    0
        0x000057f0:    03ff0000    ....    DCD    67043328
        0x000057f4:    04060306    ....    DCD    67502854
        0x000057f8:    00060406    ....    DCD    394246
        0x000057fc:    00860086    ....    DCD    8781958
        0x00005800:    008600fe    ....    DCD    8782078
        0x00005804:    00060086    ....    DCD    393350
        0x00005808:    00060006    ....    DCD    393222
        0x0000580c:    00060006    ....    DCD    393222
        0x00005810:    0000000f    ....    DCD    15
        0x00005814:    00000000    ....    DCD    0
        0x00005818:    00000000    ....    DCD    0
        0x0000581c:    00000000    ....    DCD    0
        0x00005820:    02f00000    ....    DCD    49283072
        0x00005824:    020c0318    ....    DCD    34341656
        0x00005828:    0004020c    ....    DCD    262668
        0x0000582c:    00060006    ....    DCD    393222
        0x00005830:    00060006    ....    DCD    393222
        0x00005834:    03060fc6    ....    DCD    50728902
        0x00005838:    030c0306    ....    DCD    51118854
        0x0000583c:    0318030c    ....    DCD    51905292
        0x00005840:    000000f0    ....    DCD    240
        0x00005844:    00000000    ....    DCD    0
        0x00005848:    00000000    ....    DCD    0
        0x0000584c:    00000000    ....    DCD    0
        0x00005850:    0f0f0000    ....    DCD    252641280
        0x00005854:    06060606    ....    DCD    101058054
        0x00005858:    06060606    ....    DCD    101058054
        0x0000585c:    06060606    ....    DCD    101058054
        0x00005860:    060607fe    ....    DCD    101058558
        0x00005864:    06060606    ....    DCD    101058054
        0x00005868:    06060606    ....    DCD    101058054
        0x0000586c:    06060606    ....    DCD    101058054
        0x00005870:    00000f0f    ....    DCD    3855
        0x00005874:    00000000    ....    DCD    0
        0x00005878:    00000000    ....    DCD    0
        0x0000587c:    00000000    ....    DCD    0
        0x00005880:    03fc0000    ....    DCD    66846720
        0x00005884:    00600060    `.`.    DCD    6291552
        0x00005888:    00600060    `.`.    DCD    6291552
        0x0000588c:    00600060    `.`.    DCD    6291552
        0x00005890:    00600060    `.`.    DCD    6291552
        0x00005894:    00600060    `.`.    DCD    6291552
        0x00005898:    00600060    `.`.    DCD    6291552
        0x0000589c:    00600060    `.`.    DCD    6291552
        0x000058a0:    000003fc    ....    DCD    1020
        0x000058a4:    00000000    ....    DCD    0
        0x000058a8:    00000000    ....    DCD    0
        0x000058ac:    00000000    ....    DCD    0
        0x000058b0:    0ff00000    ....    DCD    267386880
        0x000058b4:    01800180    ....    DCD    25166208
        0x000058b8:    01800180    ....    DCD    25166208
        0x000058bc:    01800180    ....    DCD    25166208
        0x000058c0:    01800180    ....    DCD    25166208
        0x000058c4:    01800180    ....    DCD    25166208
        0x000058c8:    01800180    ....    DCD    25166208
        0x000058cc:    01800180    ....    DCD    25166208
        0x000058d0:    01860180    ....    DCD    25559424
        0x000058d4:    007c00c6    ..|.    DCD    8126662
        0x000058d8:    00000000    ....    DCD    0
        0x000058dc:    00000000    ....    DCD    0
        0x000058e0:    07cf0000    ....    DCD    131006464
        0x000058e4:    00860106    ....    DCD    8782086
        0x000058e8:    00460046    F.F.    DCD    4587590
        0x000058ec:    00360026    &.6.    DCD    3538982
        0x000058f0:    006e003e    >.n.    DCD    7209022
        0x000058f4:    00c600e6    ....    DCD    12976358
        0x000058f8:    018601c6    ....    DCD    25559494
        0x000058fc:    07060306    ....    DCD    117834502
        0x00005900:    00000f8f    ....    DCD    3983
        0x00005904:    00000000    ....    DCD    0
        0x00005908:    00000000    ....    DCD    0
        0x0000590c:    00000000    ....    DCD    0
        0x00005910:    000f0000    ....    DCD    983040
        0x00005914:    00060006    ....    DCD    393222
        0x00005918:    00060006    ....    DCD    393222
        0x0000591c:    00060006    ....    DCD    393222
        0x00005920:    00060006    ....    DCD    393222
        0x00005924:    00060006    ....    DCD    393222
        0x00005928:    04060006    ....    DCD    67502086
        0x0000592c:    02060406    ....    DCD    33948678
        0x00005930:    000003ff    ....    DCD    1023
        0x00005934:    00000000    ....    DCD    0
        0x00005938:    00000000    ....    DCD    0
        0x0000593c:    00000000    ....    DCD    0
        0x00005940:    0f0f0000    ....    DCD    252641280
        0x00005944:    070e070e    ....    DCD    118359822
        0x00005948:    069a070e    ....    DCD    110757646
        0x0000594c:    069a069a    ....    DCD    110757530
        0x00005950:    065a069a    ..Z.    DCD    106563226
        0x00005954:    06720672    r.r.    DCD    108136050
        0x00005958:    06720672    r.r.    DCD    108136050
        0x0000595c:    06220622    ".".    DCD    102893090
        0x00005960:    00000f27    '...    DCD    3879
        0x00005964:    00000000    ....    DCD    0
        0x00005968:    00000000    ....    DCD    0
        0x0000596c:    00000000    ....    DCD    0
        0x00005970:    0e070000    ....    DCD    235339776
        0x00005974:    040e040e    ....    DCD    68027406
        0x00005978:    041a041a    ....    DCD    68813850
        0x0000597c:    04620432    2.b.    DCD    73532466
        0x00005980:    04c20462    b...    DCD    79823970
        0x00005984:    058204c2    ....    DCD    92406978
        0x00005988:    07020702    ....    DCD    117573378
        0x0000598c:    06020602    ....    DCD    100795906
        0x00005990:    00000407    ....    DCD    1031
        0x00005994:    00000000    ....    DCD    0
        0x00005998:    00000000    ....    DCD    0
        0x0000599c:    00000000    ....    DCD    0
        0x000059a0:    00f00000    ....    DCD    15728640
        0x000059a4:    030c0198    ....    DCD    51118488
        0x000059a8:    0606020c    ....    DCD    101057036
        0x000059ac:    06060606    ....    DCD    101058054
        0x000059b0:    06060606    ....    DCD    101058054
        0x000059b4:    06060606    ....    DCD    101058054
        0x000059b8:    020c0606    ....    DCD    34342406
        0x000059bc:    0198030c    ....    DCD    26739468
        0x000059c0:    000000f0    ....    DCD    240
        0x000059c4:    00000000    ....    DCD    0
        0x000059c8:    00000000    ....    DCD    0
        0x000059cc:    00000000    ....    DCD    0
        0x000059d0:    01ff0000    ....    DCD    33488896
        0x000059d4:    06060306    ....    DCD    101057286
        0x000059d8:    06060606    ....    DCD    101058054
        0x000059dc:    06060606    ....    DCD    101058054
        0x000059e0:    01fe0306    ....    DCD    33424134
        0x000059e4:    00060006    ....    DCD    393222
        0x000059e8:    00060006    ....    DCD    393222
        0x000059ec:    00060006    ....    DCD    393222
        0x000059f0:    0000000f    ....    DCD    15
        0x000059f4:    00000000    ....    DCD    0
        0x000059f8:    00000000    ....    DCD    0
        0x000059fc:    00000000    ....    DCD    0
        0x00005a00:    00f00000    ....    DCD    15728640
        0x00005a04:    030c0198    ....    DCD    51118488
        0x00005a08:    0606020c    ....    DCD    101057036
        0x00005a0c:    06060606    ....    DCD    101058054
        0x00005a10:    06060606    ....    DCD    101058054
        0x00005a14:    06060606    ....    DCD    101058054
        0x00005a18:    024c0676    v.L.    DCD    38536822
        0x00005a1c:    0188038c    ....    DCD    25691020
        0x00005a20:    078001f0    ....    DCD    125829616
        0x00005a24:    00000300    ....    DCD    768
        0x00005a28:    00000000    ....    DCD    0
        0x00005a2c:    00000000    ....    DCD    0
        0x00005a30:    01ff0000    ....    DCD    33488896
        0x00005a34:    06060306    ....    DCD    101057286
        0x00005a38:    06060606    ....    DCD    101058054
        0x00005a3c:    03060606    ....    DCD    50726406
        0x00005a40:    006600fe    ..f.    DCD    6684926
        0x00005a44:    00c600c6    ....    DCD    12976326
        0x00005a48:    01860186    ....    DCD    25559430
        0x00005a4c:    03060306    ....    DCD    50725638
        0x00005a50:    00000e0f    ....    DCD    3599
        0x00005a54:    00000000    ....    DCD    0
        0x00005a58:    00000000    ....    DCD    0
        0x00005a5c:    00000000    ....    DCD    0
        0x00005a60:    04f80000    ....    DCD    83361792
        0x00005a64:    0406070c    ....    DCD    67503884
        0x00005a68:    00060406    ....    DCD    394246
        0x00005a6c:    003c000e    ..<.    DCD    3932174
        0x00005a70:    03c000f0    ....    DCD    62914800
        0x00005a74:    06000300    ....    DCD    100664064
        0x00005a78:    06020602    ....    DCD    100795906
        0x00005a7c:    030e0606    ....    DCD    51250694
        0x00005a80:    000001f2    ....    DCD    498
        0x00005a84:    00000000    ....    DCD    0
        0x00005a88:    00000000    ....    DCD    0
        0x00005a8c:    00000000    ....    DCD    0
        0x00005a90:    07fe0000    ....    DCD    134086656
        0x00005a94:    08610462    b.a.    DCD    140575842
        0x00005a98:    00600861    a.`.    DCD    6293601
        0x00005a9c:    00600060    `.`.    DCD    6291552
        0x00005aa0:    00600060    `.`.    DCD    6291552
        0x00005aa4:    00600060    `.`.    DCD    6291552
        0x00005aa8:    00600060    `.`.    DCD    6291552
        0x00005aac:    00600060    `.`.    DCD    6291552
        0x00005ab0:    000000f0    ....    DCD    240
        0x00005ab4:    00000000    ....    DCD    0
        0x00005ab8:    00000000    ....    DCD    0
        0x00005abc:    00000000    ....    DCD    0
        0x00005ac0:    0e0f0000    ....    DCD    235864064
        0x00005ac4:    04060406    ....    DCD    67503110
        0x00005ac8:    04060406    ....    DCD    67503110
        0x00005acc:    04060406    ....    DCD    67503110
        0x00005ad0:    04060406    ....    DCD    67503110
        0x00005ad4:    04060406    ....    DCD    67503110
        0x00005ad8:    04060406    ....    DCD    67503110
        0x00005adc:    020c0406    ....    DCD    34341894
        0x00005ae0:    000001f8    ....    DCD    504
        0x00005ae4:    00000000    ....    DCD    0
        0x00005ae8:    00000000    ....    DCD    0
        0x00005aec:    00000000    ....    DCD    0
        0x00005af0:    0f1f0000    ....    DCD    253689856
        0x00005af4:    020c060e    ....    DCD    34342414
        0x00005af8:    020c020c    ....    DCD    34341388
        0x00005afc:    0118010c    ....    DCD    18350348
        0x00005b00:    01180118    ....    DCD    18350360
        0x00005b04:    00b00118    ....    DCD    11534616
        0x00005b08:    00b000b0    ....    DCD    11534512
        0x00005b0c:    006000f0    ..`.    DCD    6291696
        0x00005b10:    00000060    `...    DCD    96
        0x00005b14:    00000000    ....    DCD    0
        0x00005b18:    00000000    ....    DCD    0
        0x00005b1c:    00000000    ....    DCD    0
        0x00005b20:    0eef0000    ....    DCD    250544128
        0x00005b24:    04660466    f.f.    DCD    73794662
        0x00005b28:    02660266    f.f.    DCD    40239718
        0x00005b2c:    02ec02e6    ....    DCD    49021670
        0x00005b30:    01dc02ec    ....    DCD    31195884
        0x00005b34:    01dc01dc    ....    DCD    31195612
        0x00005b38:    019c01dc    ....    DCD    27001308
        0x00005b3c:    00880088    ....    DCD    8913032
        0x00005b40:    00000088    ....    DCD    136
        0x00005b44:    00000000    ....    DCD    0
        0x00005b48:    00000000    ....    DCD    0
        0x00005b4c:    00000000    ....    DCD    0
        0x00005b50:    079e0000    ....    DCD    127795200
        0x00005b54:    0118030c    ....    DCD    18350860
        0x00005b58:    00980118    ....    DCD    9961752
        0x00005b5c:    007000b0    ..p.    DCD    7340208
        0x00005b60:    00600060    `.`.    DCD    6291552
        0x00005b64:    00d000e0    ....    DCD    13631712
        0x00005b68:    019801d0    ....    DCD    26739152
        0x00005b6c:    030c0188    ....    DCD    51118472
        0x00005b70:    0000079e    ....    DCD    1950
        0x00005b74:    00000000    ....    DCD    0
        0x00005b78:    00000000    ....    DCD    0
        0x00005b7c:    00000000    ....    DCD    0
        0x00005b80:    0f1f0000    ....    DCD    253689856
        0x00005b84:    020c060e    ....    DCD    34342414
        0x00005b88:    0118010c    ....    DCD    18350348
        0x00005b8c:    00b00118    ....    DCD    11534616
        0x00005b90:    007000b0    ..p.    DCD    7340208
        0x00005b94:    00600060    `.`.    DCD    6291552
        0x00005b98:    00600060    `.`.    DCD    6291552
        0x00005b9c:    00600060    `.`.    DCD    6291552
        0x00005ba0:    000001f8    ....    DCD    504
        0x00005ba4:    00000000    ....    DCD    0
        0x00005ba8:    00000000    ....    DCD    0
        0x00005bac:    00000000    ....    DCD    0
        0x00005bb0:    07fc0000    ....    DCD    133955584
        0x00005bb4:    03820304    ....    DCD    58852100
        0x00005bb8:    01c00180    ....    DCD    29360512
        0x00005bbc:    00c000c0    ....    DCD    12583104
        0x00005bc0:    00600060    `.`.    DCD    6291552
        0x00005bc4:    00300030    0.0.    DCD    3145776
        0x00005bc8:    04180018    ....    DCD    68681752
        0x00005bcc:    020c041c    ....    DCD    34341916
        0x00005bd0:    000003fe    ....    DCD    1022
        0x00005bd4:    00000000    ....    DCD    0
        0x00005bd8:    00000000    ....    DCD    0
        0x00005bdc:    002007e0    .. .    DCD    2099168
        0x00005be0:    00200020     . .    DCD    2097184
        0x00005be4:    00200020     . .    DCD    2097184
        0x00005be8:    00200020     . .    DCD    2097184
        0x00005bec:    00200020     . .    DCD    2097184
        0x00005bf0:    00200020     . .    DCD    2097184
        0x00005bf4:    00200020     . .    DCD    2097184
        0x00005bf8:    00200020     . .    DCD    2097184
        0x00005bfc:    00200020     . .    DCD    2097184
        0x00005c00:    00200020     . .    DCD    2097184
        0x00005c04:    000007e0    ....    DCD    2016
        0x00005c08:    00000000    ....    DCD    0
        0x00005c0c:    00000000    ....    DCD    0
        0x00005c10:    00080004    ....    DCD    524292
        0x00005c14:    00080008    ....    DCD    524296
        0x00005c18:    00100010    ....    DCD    1048592
        0x00005c1c:    00200020     . .    DCD    2097184
        0x00005c20:    00400020     .@.    DCD    4194336
        0x00005c24:    00800040    @...    DCD    8388672
        0x00005c28:    00800080    ....    DCD    8388736
        0x00005c2c:    01000100    ....    DCD    16777472
        0x00005c30:    02000200    ....    DCD    33554944
        0x00005c34:    04000200    ....    DCD    67109376
        0x00005c38:    00000000    ....    DCD    0
        0x00005c3c:    008000fc    ....    DCD    8388860
        0x00005c40:    00800080    ....    DCD    8388736
        0x00005c44:    00800080    ....    DCD    8388736
        0x00005c48:    00800080    ....    DCD    8388736
        0x00005c4c:    00800080    ....    DCD    8388736
        0x00005c50:    00800080    ....    DCD    8388736
        0x00005c54:    00800080    ....    DCD    8388736
        0x00005c58:    00800080    ....    DCD    8388736
        0x00005c5c:    00800080    ....    DCD    8388736
        0x00005c60:    00800080    ....    DCD    8388736
        0x00005c64:    000000fc    ....    DCD    252
        0x00005c68:    00000000    ....    DCD    0
        0x00005c6c:    01b000e0    ....    DCD    28311776
        0x00005c70:    00000208    ....    DCD    520
        0x00005c74:    00000000    ....    DCD    0
        0x00005c78:    00000000    ....    DCD    0
        0x00005c7c:    00000000    ....    DCD    0
        0x00005c80:    00000000    ....    DCD    0
        0x00005c84:    00000000    ....    DCD    0
        0x00005c88:    00000000    ....    DCD    0
        0x00005c8c:    00000000    ....    DCD    0
        0x00005c90:    00000000    ....    DCD    0
        0x00005c94:    00000000    ....    DCD    0
        0x00005c98:    00000000    ....    DCD    0
        0x00005c9c:    00000000    ....    DCD    0
        0x00005ca0:    00000000    ....    DCD    0
        0x00005ca4:    00000000    ....    DCD    0
        0x00005ca8:    00000000    ....    DCD    0
        0x00005cac:    00000000    ....    DCD    0
        0x00005cb0:    00000000    ....    DCD    0
        0x00005cb4:    00000000    ....    DCD    0
        0x00005cb8:    00000000    ....    DCD    0
        0x00005cbc:    00000000    ....    DCD    0
        0x00005cc0:    00000000    ....    DCD    0
        0x00005cc4:    0fff0000    ....    DCD    268369920
        0x00005cc8:    00000000    ....    DCD    0
        0x00005ccc:    00600018    ..`.    DCD    6291480
        0x00005cd0:    00000000    ....    DCD    0
        0x00005cd4:    00000000    ....    DCD    0
        0x00005cd8:    00000000    ....    DCD    0
        0x00005cdc:    00000000    ....    DCD    0
        0x00005ce0:    00000000    ....    DCD    0
        0x00005ce4:    00000000    ....    DCD    0
        0x00005ce8:    00000000    ....    DCD    0
        0x00005cec:    00000000    ....    DCD    0
        0x00005cf0:    00000000    ....    DCD    0
        0x00005cf4:    00000000    ....    DCD    0
        0x00005cf8:    00000000    ....    DCD    0
        0x00005cfc:    00000000    ....    DCD    0
        0x00005d00:    00000000    ....    DCD    0
        0x00005d04:    00000000    ....    DCD    0
        0x00005d08:    00000000    ....    DCD    0
        0x00005d0c:    030c01f0    ....    DCD    51118576
        0x00005d10:    03e0030c    ....    DCD    65012492
        0x00005d14:    030c0338    8...    DCD    51118904
        0x00005d18:    03060306    ....    DCD    50725638
        0x00005d1c:    0b8e0306    ....    DCD    193856262
        0x00005d20:    00000f7c    |...    DCD    3964
        0x00005d24:    00000000    ....    DCD    0
        0x00005d28:    00000000    ....    DCD    0
        0x00005d2c:    00000000    ....    DCD    0
        0x00005d30:    000e0008    ....    DCD    917512
        0x00005d34:    000c000c    ....    DCD    786444
        0x00005d38:    000c000c    ....    DCD    786444
        0x00005d3c:    033c01cc    ..<.    DCD    54264268
        0x00005d40:    060c061c    ....    DCD    101451292
        0x00005d44:    060c060c    ....    DCD    101451276
        0x00005d48:    060c060c    ....    DCD    101451276
        0x00005d4c:    031c020c    ....    DCD    52167180
        0x00005d50:    000001f4    ....    DCD    500
        0x00005d54:    00000000    ....    DCD    0
        0x00005d58:    00000000    ....    DCD    0
        0x00005d5c:    00000000    ....    DCD    0
        0x00005d60:    00000000    ....    DCD    0
        0x00005d64:    00000000    ....    DCD    0
        0x00005d68:    00000000    ....    DCD    0
        0x00005d6c:    018c00f0    ....    DCD    25952496
        0x00005d70:    0186018c    ....    DCD    25559436
        0x00005d74:    00060006    ....    DCD    393222
        0x00005d78:    02060006    ....    DCD    33947654
        0x00005d7c:    010c020c    ....    DCD    17564172
        0x00005d80:    000000f0    ....    DCD    240
        0x00005d84:    00000000    ....    DCD    0
        0x00005d88:    00000000    ....    DCD    0
        0x00005d8c:    00000000    ....    DCD    0
        0x00005d90:    03800200    ....    DCD    58720768
        0x00005d94:    03000300    ....    DCD    50332416
        0x00005d98:    03000300    ....    DCD    50332416
        0x00005d9c:    038c0378    x...    DCD    59507576
        0x00005da0:    0306030c    ....    DCD    50725644
        0x00005da4:    03060306    ....    DCD    50725638
        0x00005da8:    03060306    ....    DCD    50725638
        0x00005dac:    078c0304    ....    DCD    126616324
        0x00005db0:    00000178    x...    DCD    376
        0x00005db4:    00000000    ....    DCD    0
        0x00005db8:    00000000    ....    DCD    0
        0x00005dbc:    00000000    ....    DCD    0
        0x00005dc0:    00000000    ....    DCD    0
        0x00005dc4:    00000000    ....    DCD    0
        0x00005dc8:    00000000    ....    DCD    0
        0x00005dcc:    031801e0    ....    DCD    51904992
        0x00005dd0:    060c0608    ....    DCD    101451272
        0x00005dd4:    000c07fc    ....    DCD    788476
        0x00005dd8:    000c000c    ....    DCD    786444
        0x00005ddc:    02380418    ..8.    DCD    37225496
        0x00005de0:    000001e0    ....    DCD    480
        0x00005de4:    00000000    ....    DCD    0
        0x00005de8:    00000000    ....    DCD    0
        0x00005dec:    00000000    ....    DCD    0
        0x00005df0:    03c00000    ....    DCD    62914560
        0x00005df4:    06300660    `.0.    DCD    103810656
        0x00005df8:    00300030    0.0.    DCD    3145776
        0x00005dfc:    003003fe    ..0.    DCD    3146750
        0x00005e00:    00300030    0.0.    DCD    3145776
        0x00005e04:    00300030    0.0.    DCD    3145776
        0x00005e08:    00300030    0.0.    DCD    3145776
        0x00005e0c:    00300030    0.0.    DCD    3145776
        0x00005e10:    000001fc    ....    DCD    508
        0x00005e14:    00000000    ....    DCD    0
        0x00005e18:    00000000    ....    DCD    0
        0x00005e1c:    00000000    ....    DCD    0
        0x00005e20:    00000000    ....    DCD    0
        0x00005e24:    00000000    ....    DCD    0
        0x00005e28:    00000000    ....    DCD    0
        0x00005e2c:    09980ef0    ....    DCD    160960240
        0x00005e30:    030c030c    ....    DCD    51118860
        0x00005e34:    0198030c    ....    DCD    26739468
        0x00005e38:    000c00f8    ....    DCD    786680
        0x00005e3c:    03f8007c    |...    DCD    66584700
        0x00005e40:    06060606    ....    DCD    101058054
        0x00005e44:    01f8070e    ....    DCD    33031950
        0x00005e48:    00000000    ....    DCD    0
        0x00005e4c:    00000000    ....    DCD    0
        0x00005e50:    000e0008    ....    DCD    917512
        0x00005e54:    000c000c    ....    DCD    786444
        0x00005e58:    000c000c    ....    DCD    786444
        0x00005e5c:    031c01ec    ....    DCD    52167148
        0x00005e60:    030c030c    ....    DCD    51118860
        0x00005e64:    030c030c    ....    DCD    51118860
        0x00005e68:    030c030c    ....    DCD    51118860
        0x00005e6c:    030c030c    ....    DCD    51118860
        0x00005e70:    0000079e    ....    DCD    1950
        0x00005e74:    00000000    ....    DCD    0
        0x00005e78:    00000000    ....    DCD    0
        0x00005e7c:    00000000    ....    DCD    0
        0x00005e80:    00600000    ..`.    DCD    6291456
        0x00005e84:    00000060    `...    DCD    96
        0x00005e88:    00000000    ....    DCD    0
        0x00005e8c:    0060007c    |.`.    DCD    6291580
        0x00005e90:    00600060    `.`.    DCD    6291552
        0x00005e94:    00600060    `.`.    DCD    6291552
        0x00005e98:    00600060    `.`.    DCD    6291552
        0x00005e9c:    00600060    `.`.    DCD    6291552
        0x00005ea0:    000003fc    ....    DCD    1020
        0x00005ea4:    00000000    ....    DCD    0
        0x00005ea8:    00000000    ....    DCD    0
        0x00005eac:    00000000    ....    DCD    0
        0x00005eb0:    01800000    ....    DCD    25165824
        0x00005eb4:    00000180    ....    DCD    384
        0x00005eb8:    00000000    ....    DCD    0
        0x00005ebc:    018001f0    ....    DCD    25166320
        0x00005ec0:    01800180    ....    DCD    25166208
        0x00005ec4:    01800180    ....    DCD    25166208
        0x00005ec8:    01800180    ....    DCD    25166208
        0x00005ecc:    01800180    ....    DCD    25166208
        0x00005ed0:    01800180    ....    DCD    25166208
        0x00005ed4:    007c00cc    ..|.    DCD    8126668
        0x00005ed8:    00000000    ....    DCD    0
        0x00005edc:    00000000    ....    DCD    0
        0x00005ee0:    000e0008    ....    DCD    917512
        0x00005ee4:    000c000c    ....    DCD    786444
        0x00005ee8:    000c000c    ....    DCD    786444
        0x00005eec:    008c03cc    ....    DCD    9176012
        0x00005ef0:    004c00cc    ..L.    DCD    4980940
        0x00005ef4:    007c006c    l.|.    DCD    8126572
        0x00005ef8:    00cc00dc    ....    DCD    13369564
        0x00005efc:    018c018c    ....    DCD    25952652
        0x00005f00:    0000079e    ....    DCD    1950
        0x00005f04:    00000000    ....    DCD    0
        0x00005f08:    00000000    ....    DCD    0
        0x00005f0c:    00000000    ....    DCD    0
        0x00005f10:    007c0040    @.|.    DCD    8126528
        0x00005f14:    00600060    `.`.    DCD    6291552
        0x00005f18:    00600060    `.`.    DCD    6291552
        0x00005f1c:    00600060    `.`.    DCD    6291552
        0x00005f20:    00600060    `.`.    DCD    6291552
        0x00005f24:    00600060    `.`.    DCD    6291552
        0x00005f28:    00600060    `.`.    DCD    6291552
        0x00005f2c:    00600060    `.`.    DCD    6291552
        0x00005f30:    000003fc    ....    DCD    1020
        0x00005f34:    00000000    ....    DCD    0
        0x00005f38:    00000000    ....    DCD    0
        0x00005f3c:    00000000    ....    DCD    0
        0x00005f40:    00000000    ....    DCD    0
        0x00005f44:    00000000    ....    DCD    0
        0x00005f48:    00000000    ....    DCD    0
        0x00005f4c:    06ee0777    w...    DCD    116262775
        0x00005f50:    06660666    f.f.    DCD    107349606
        0x00005f54:    06660666    f.f.    DCD    107349606
        0x00005f58:    06660666    f.f.    DCD    107349606
        0x00005f5c:    06660666    f.f.    DCD    107349606
        0x00005f60:    00000eef    ....    DCD    3823
        0x00005f64:    00000000    ....    DCD    0
        0x00005f68:    00000000    ....    DCD    0
        0x00005f6c:    00000000    ....    DCD    0
        0x00005f70:    00000000    ....    DCD    0
        0x00005f74:    00000000    ....    DCD    0
        0x00005f78:    00000000    ....    DCD    0
        0x00005f7c:    033c01ce    ..<.    DCD    54264270
        0x00005f80:    030c030c    ....    DCD    51118860
        0x00005f84:    030c030c    ....    DCD    51118860
        0x00005f88:    030c030c    ....    DCD    51118860
        0x00005f8c:    030c030c    ....    DCD    51118860
        0x00005f90:    0000079e    ....    DCD    1950
        0x00005f94:    00000000    ....    DCD    0
        0x00005f98:    00000000    ....    DCD    0
        0x00005f9c:    00000000    ....    DCD    0
        0x00005fa0:    00000000    ....    DCD    0
        0x00005fa4:    00000000    ....    DCD    0
        0x00005fa8:    00000000    ....    DCD    0
        0x00005fac:    019800f0    ....    DCD    26738928
        0x00005fb0:    0606030c    ....    DCD    101057292
        0x00005fb4:    06060606    ....    DCD    101058054
        0x00005fb8:    06060606    ....    DCD    101058054
        0x00005fbc:    030c030c    ....    DCD    51118860
        0x00005fc0:    000000f0    ....    DCD    240
        0x00005fc4:    00000000    ....    DCD    0
        0x00005fc8:    00000000    ....    DCD    0
        0x00005fcc:    00000000    ....    DCD    0
        0x00005fd0:    00000000    ....    DCD    0
        0x00005fd4:    00000000    ....    DCD    0
        0x00005fd8:    00000000    ....    DCD    0
        0x00005fdc:    031c01ee    ....    DCD    52167150
        0x00005fe0:    060c060c    ....    DCD    101451276
        0x00005fe4:    060c060c    ....    DCD    101451276
        0x00005fe8:    060c060c    ....    DCD    101451276
        0x00005fec:    031c030c    ....    DCD    52167436
        0x00005ff0:    000c01ec    ....    DCD    786924
        0x00005ff4:    003e000c    ..>.    DCD    4063244
        0x00005ff8:    00000000    ....    DCD    0
        0x00005ffc:    00000000    ....    DCD    0
        0x00006000:    00000000    ....    DCD    0
        0x00006004:    00000000    ....    DCD    0
        0x00006008:    00000000    ....    DCD    0
        0x0000600c:    038c0278    x...    DCD    59507320
        0x00006010:    0306030c    ....    DCD    50725644
        0x00006014:    03060306    ....    DCD    50725638
        0x00006018:    03060306    ....    DCD    50725638
        0x0000601c:    038c0304    ....    DCD    59507460
        0x00006020:    03000378    x...    DCD    50332536
        0x00006024:    07c00300    ....    DCD    130024192
        0x00006028:    00000000    ....    DCD    0
        0x0000602c:    00000000    ....    DCD    0
        0x00006030:    00000000    ....    DCD    0
        0x00006034:    00000000    ....    DCD    0
        0x00006038:    00000000    ....    DCD    0
        0x0000603c:    0658079f    ..X.    DCD    106432415
        0x00006040:    00180038    8...    DCD    1572920
        0x00006044:    00180018    ....    DCD    1572888
        0x00006048:    00180018    ....    DCD    1572888
        0x0000604c:    00180018    ....    DCD    1572888
        0x00006050:    000000ff    ....    DCD    255
        0x00006054:    00000000    ....    DCD    0
        0x00006058:    00000000    ....    DCD    0
        0x0000605c:    00000000    ....    DCD    0
        0x00006060:    00000000    ....    DCD    0
        0x00006064:    00000000    ....    DCD    0
        0x00006068:    00000000    ....    DCD    0
        0x0000606c:    061807f0    ....    DCD    102238192
        0x00006070:    000c040c    ....    DCD    787468
        0x00006074:    01f00038    8...    DCD    32505912
        0x00006078:    06040380    ....    DCD    100926336
        0x0000607c:    030c0604    ....    DCD    51119620
        0x00006080:    000001fc    ....    DCD    508
        0x00006084:    00000000    ....    DCD    0
        0x00006088:    00000000    ....    DCD    0
        0x0000608c:    00000000    ....    DCD    0
        0x00006090:    00000000    ....    DCD    0
        0x00006094:    00200020     . .    DCD    2097184
        0x00006098:    00300030    0.0.    DCD    3145776
        0x0000609c:    003001fe    ..0.    DCD    3146238
        0x000060a0:    00300030    0.0.    DCD    3145776
        0x000060a4:    00300030    0.0.    DCD    3145776
        0x000060a8:    00300030    0.0.    DCD    3145776
        0x000060ac:    02300230    0.0.    DCD    36700720
        0x000060b0:    000001e0    ....    DCD    480
        0x000060b4:    00000000    ....    DCD    0
        0x000060b8:    00000000    ....    DCD    0
        0x000060bc:    00000000    ....    DCD    0
        0x000060c0:    00000000    ....    DCD    0
        0x000060c4:    00000000    ....    DCD    0
        0x000060c8:    02080000    ....    DCD    34078720
        0x000060cc:    030c038e    ....    DCD    51118990
        0x000060d0:    030c030c    ....    DCD    51118860
        0x000060d4:    030c030c    ....    DCD    51118860
        0x000060d8:    030c030c    ....    DCD    51118860
        0x000060dc:    079c030c    ....    DCD    127664908
        0x000060e0:    00000178    x...    DCD    376
        0x000060e4:    00000000    ....    DCD    0
        0x000060e8:    00000000    ....    DCD    0
        0x000060ec:    00000000    ....    DCD    0
        0x000060f0:    00000000    ....    DCD    0
        0x000060f4:    00000000    ....    DCD    0
        0x000060f8:    00000000    ....    DCD    0
        0x000060fc:    061c0f3e    >...    DCD    102502206
        0x00006100:    02180218    ....    DCD    35127832
        0x00006104:    01300130    0.0.    DCD    19923248
        0x00006108:    00e00130    0...    DCD    14680368
        0x0000610c:    00e000e0    ....    DCD    14680288
        0x00006110:    00000040    @...    DCD    64
        0x00006114:    00000000    ....    DCD    0
        0x00006118:    00000000    ....    DCD    0
        0x0000611c:    00000000    ....    DCD    0
        0x00006120:    00000000    ....    DCD    0
        0x00006124:    00000000    ....    DCD    0
        0x00006128:    00000000    ....    DCD    0
        0x0000612c:    04c60def    ....    DCD    80088559
        0x00006130:    04e604c6    ....    DCD    82183366
        0x00006134:    03ac04ec    ....    DCD    61605100
        0x00006138:    039c039c    ....    DCD    60556188
        0x0000613c:    0108039c    ....    DCD    17302428
        0x00006140:    00000108    ....    DCD    264
        0x00006144:    00000000    ....    DCD    0
        0x00006148:    00000000    ....    DCD    0
        0x0000614c:    00000000    ....    DCD    0
        0x00006150:    00000000    ....    DCD    0
        0x00006154:    00000000    ....    DCD    0
        0x00006158:    00000000    ....    DCD    0
        0x0000615c:    011807be    ....    DCD    18352062
        0x00006160:    00b00198    ....    DCD    11534744
        0x00006164:    00600070    p.`.    DCD    6291568
        0x00006168:    00d000e0    ....    DCD    13631712
        0x0000616c:    03880198    ....    DCD    59244952
        0x00006170:    000007de    ....    DCD    2014
        0x00006174:    00000000    ....    DCD    0
        0x00006178:    00000000    ....    DCD    0
        0x0000617c:    00000000    ....    DCD    0
        0x00006180:    00000000    ....    DCD    0
        0x00006184:    00000000    ....    DCD    0
        0x00006188:    00000000    ....    DCD    0
        0x0000618c:    011c07be    ....    DCD    18614206
        0x00006190:    01180118    ....    DCD    18350360
        0x00006194:    00b000b0    ....    DCD    11534512
        0x00006198:    006000b0    ..`.    DCD    6291632
        0x0000619c:    00400060    `.@.    DCD    4194400
        0x000061a0:    00200020     . .    DCD    2097184
        0x000061a4:    001c0014    ....    DCD    1835028
        0x000061a8:    00000000    ....    DCD    0
        0x000061ac:    00000000    ....    DCD    0
        0x000061b0:    00000000    ....    DCD    0
        0x000061b4:    00000000    ....    DCD    0
        0x000061b8:    00000000    ....    DCD    0
        0x000061bc:    018403fc    ....    DCD    25428988
        0x000061c0:    00c001c4    ....    DCD    12583364
        0x000061c4:    006000e0    ..`.    DCD    6291680
        0x000061c8:    04300070    p.0.    DCD    70254704
        0x000061cc:    06180438    8...    DCD    102237240
        0x000061d0:    000003fc    ....    DCD    1020
        0x000061d4:    00000000    ....    DCD    0
        0x000061d8:    00000000    ....    DCD    0
        0x000061dc:    01800300    ....    DCD    25166592
        0x000061e0:    00800080    ....    DCD    8388736
        0x000061e4:    00800080    ....    DCD    8388736
        0x000061e8:    00800080    ....    DCD    8388736
        0x000061ec:    00c00080    ....    DCD    12583040
        0x000061f0:    00c00020     ...    DCD    12582944
        0x000061f4:    00800080    ....    DCD    8388736
        0x000061f8:    00800080    ....    DCD    8388736
        0x000061fc:    00800080    ....    DCD    8388736
        0x00006200:    01800080    ....    DCD    25165952
        0x00006204:    00000300    ....    DCD    768
        0x00006208:    00400040    @.@.    DCD    4194368
        0x0000620c:    00400040    @.@.    DCD    4194368
        0x00006210:    00400040    @.@.    DCD    4194368
        0x00006214:    00400040    @.@.    DCD    4194368
        0x00006218:    00400040    @.@.    DCD    4194368
        0x0000621c:    00400040    @.@.    DCD    4194368
        0x00006220:    00400040    @.@.    DCD    4194368
        0x00006224:    00400040    @.@.    DCD    4194368
        0x00006228:    00400040    @.@.    DCD    4194368
        0x0000622c:    00400040    @.@.    DCD    4194368
        0x00006230:    00400040    @.@.    DCD    4194368
        0x00006234:    00400040    @.@.    DCD    4194368
        0x00006238:    00000000    ....    DCD    0
        0x0000623c:    0018000c    ....    DCD    1572876
        0x00006240:    00100010    ....    DCD    1048592
        0x00006244:    00100010    ....    DCD    1048592
        0x00006248:    00100010    ....    DCD    1048592
        0x0000624c:    00300010    ..0.    DCD    3145744
        0x00006250:    00300040    @.0.    DCD    3145792
        0x00006254:    00100010    ....    DCD    1048592
        0x00006258:    00100010    ....    DCD    1048592
        0x0000625c:    00100010    ....    DCD    1048592
        0x00006260:    00180010    ....    DCD    1572880
        0x00006264:    0000000c    ....    DCD    12
        0x00006268:    001c0000    ....    DCD    1835008
        0x0000626c:    08420024    $.B.    DCD    138543140
        0x00006270:    07000482    ....    DCD    117441666
        0x00006274:    00000000    ....    DCD    0
        0x00006278:    00000000    ....    DCD    0
        0x0000627c:    00000000    ....    DCD    0
        0x00006280:    00000000    ....    DCD    0
        0x00006284:    00000000    ....    DCD    0
        0x00006288:    00000000    ....    DCD    0
        0x0000628c:    00000000    ....    DCD    0
        0x00006290:    00000000    ....    DCD    0
        0x00006294:    00000000    ....    DCD    0
    ascii_3216
        0x00006298:    00000000    ....    DCD    0
        0x0000629c:    00000000    ....    DCD    0
        0x000062a0:    00000000    ....    DCD    0
        0x000062a4:    00000000    ....    DCD    0
        0x000062a8:    00000000    ....    DCD    0
        0x000062ac:    00000000    ....    DCD    0
        0x000062b0:    00000000    ....    DCD    0
        0x000062b4:    00000000    ....    DCD    0
        0x000062b8:    00000000    ....    DCD    0
        0x000062bc:    00000000    ....    DCD    0
        0x000062c0:    00000000    ....    DCD    0
        0x000062c4:    00000000    ....    DCD    0
        0x000062c8:    00000000    ....    DCD    0
        0x000062cc:    00000000    ....    DCD    0
        0x000062d0:    00000000    ....    DCD    0
        0x000062d4:    00000000    ....    DCD    0
        0x000062d8:    00000000    ....    DCD    0
        0x000062dc:    00000000    ....    DCD    0
        0x000062e0:    01c00000    ....    DCD    29360128
        0x000062e4:    01c001c0    ....    DCD    29360576
        0x000062e8:    01c001c0    ....    DCD    29360576
        0x000062ec:    01c001c0    ....    DCD    29360576
        0x000062f0:    00800080    ....    DCD    8388736
        0x000062f4:    00800080    ....    DCD    8388736
        0x000062f8:    00800080    ....    DCD    8388736
        0x000062fc:    00000080    ....    DCD    128
        0x00006300:    00000000    ....    DCD    0
        0x00006304:    01800000    ....    DCD    25165824
        0x00006308:    03c003c0    ....    DCD    62915520
        0x0000630c:    00000180    ....    DCD    384
        0x00006310:    00000000    ....    DCD    0
        0x00006314:    00000000    ....    DCD    0
        0x00006318:    00000000    ....    DCD    0
        0x0000631c:    1ce00000    ....    DCD    484442112
        0x00006320:    1ef01ce0    ....    DCD    519052512
        0x00006324:    07380e70    p.8.    DCD    121114224
        0x00006328:    01080318    ....    DCD    17302296
        0x0000632c:    00000084    ....    DCD    132
        0x00006330:    00000000    ....    DCD    0
        0x00006334:    00000000    ....    DCD    0
        0x00006338:    00000000    ....    DCD    0
        0x0000633c:    00000000    ....    DCD    0
        0x00006340:    00000000    ....    DCD    0
        0x00006344:    00000000    ....    DCD    0
        0x00006348:    00000000    ....    DCD    0
        0x0000634c:    00000000    ....    DCD    0
        0x00006350:    00000000    ....    DCD    0
        0x00006354:    00000000    ....    DCD    0
        0x00006358:    00000000    ....    DCD    0
        0x0000635c:    00000000    ....    DCD    0
        0x00006360:    00000000    ....    DCD    0
        0x00006364:    10201020     . .    DCD    270536736
        0x00006368:    10201020     . .    DCD    270536736
        0x0000636c:    7ffe1020     ...    DCD    2147356704
        0x00006370:    08107ffe    ....    DCD    135299070
        0x00006374:    08100810    ....    DCD    135268368
        0x00006378:    08100810    ....    DCD    135268368
        0x0000637c:    08100810    ....    DCD    135268368
        0x00006380:    7ffe7ffe    ....    DCD    2147385342
        0x00006384:    04080408    ....    DCD    67634184
        0x00006388:    04080408    ....    DCD    67634184
        0x0000638c:    00000408    ....    DCD    1032
        0x00006390:    00000000    ....    DCD    0
        0x00006394:    00000000    ....    DCD    0
        0x00006398:    00000000    ....    DCD    0
        0x0000639c:    00000000    ....    DCD    0
        0x000063a0:    01000100    ....    DCD    16777472
        0x000063a4:    196007c0    ..`.    DCD    425723840
        0x000063a8:    31183110    .1.1    DCD    823669008
        0x000063ac:    39183918    .9.9    DCD    957888792
        0x000063b0:    01700138    8.p.    DCD    24117560
        0x000063b4:    03c001e0    ....    DCD    62915040
        0x000063b8:    0f000780    ....    DCD    251660160
        0x000063bc:    39001d00    ...9    DCD    956308736
        0x000063c0:    311c3100    .1.1    DCD    823931136
        0x000063c4:    310c311c    .1.1    DCD    822882588
        0x000063c8:    0d18110c    ....    DCD    219681036
        0x000063cc:    010007e0    ....    DCD    16779232
        0x000063d0:    01000100    ....    DCD    16777472
        0x000063d4:    00000000    ....    DCD    0
        0x000063d8:    00000000    ....    DCD    0
        0x000063dc:    00000000    ....    DCD    0
        0x000063e0:    00000000    ....    DCD    0
        0x000063e4:    1836101c    ..6.    DCD    406196252
        0x000063e8:    0c630863    c.c.    DCD    207816803
        0x000063ec:    04630463    c.c.    DCD    73598051
        0x000063f0:    02630263    c.c.    DCD    40043107
        0x000063f4:    1d360163    c.6.    DCD    490078563
        0x000063f8:    2280379c    .7."    DCD    578828188
        0x000063fc:    63406380    .c@c    DCD    1665164160
        0x00006400:    63206340    @c c    DCD    1663066944
        0x00006404:    63306320     c0c    DCD    1664115488
        0x00006408:    36182210    .".6    DCD    907551248
        0x0000640c:    00001c08    ....    DCD    7176
        0x00006410:    00000000    ....    DCD    0
        0x00006414:    00000000    ....    DCD    0
        0x00006418:    00000000    ....    DCD    0
        0x0000641c:    00000000    ....    DCD    0
        0x00006420:    00000000    ....    DCD    0
        0x00006424:    019800f0    ....    DCD    26738928
        0x00006428:    018c018c    ....    DCD    25952652
        0x0000642c:    018c018c    ....    DCD    25952652
        0x00006430:    00cc008c    ....    DCD    13369484
        0x00006434:    3e180078    x..>    DCD    1041760376
        0x00006438:    0836081c    ..6.    DCD    137758748
        0x0000643c:    04630832    2.c.    DCD    73599026
        0x00006440:    04c30463    c...    DCD    79889507
        0x00006444:    438303c3    ...C    DCD    1132659651
        0x00006448:    268e4306    .C.&    DCD    646857478
        0x0000644c:    00001c78    x...    DCD    7288
        0x00006450:    00000000    ....    DCD    0
        0x00006454:    00000000    ....    DCD    0
        0x00006458:    00000000    ....    DCD    0
        0x0000645c:    001c0000    ....    DCD    1835008
        0x00006460:    003c003c    <.<.    DCD    3932220
        0x00006464:    00300030    0.0.    DCD    3145776
        0x00006468:    000c0010    ....    DCD    786448
        0x0000646c:    00000006    ....    DCD    6
        0x00006470:    00000000    ....    DCD    0
        0x00006474:    00000000    ....    DCD    0
        0x00006478:    00000000    ....    DCD    0
        0x0000647c:    00000000    ....    DCD    0
        0x00006480:    00000000    ....    DCD    0
        0x00006484:    00000000    ....    DCD    0
        0x00006488:    00000000    ....    DCD    0
        0x0000648c:    00000000    ....    DCD    0
        0x00006490:    00000000    ....    DCD    0
        0x00006494:    00000000    ....    DCD    0
        0x00006498:    00000000    ....    DCD    0
        0x0000649c:    40000000    ...@    DCD    1073741824
        0x000064a0:    10002000    . ..    DCD    268443648
        0x000064a4:    0c000800    ....    DCD    201328640
        0x000064a8:    06000400    ....    DCD    100664320
        0x000064ac:    03000300    ....    DCD    50332416
        0x000064b0:    01800300    ....    DCD    25166592
        0x000064b4:    01800180    ....    DCD    25166208
        0x000064b8:    01800180    ....    DCD    25166208
        0x000064bc:    01800180    ....    DCD    25166208
        0x000064c0:    03000180    ....    DCD    50332032
        0x000064c4:    03000300    ....    DCD    50332416
        0x000064c8:    06000600    ....    DCD    100664832
        0x000064cc:    08000c00    ....    DCD    134220800
        0x000064d0:    20001000    ...     DCD    536875008
        0x000064d4:    00004000    .@..    DCD    16384
        0x000064d8:    00000000    ....    DCD    0
        0x000064dc:    00020000    ....    DCD    131072
        0x000064e0:    00080004    ....    DCD    524292
        0x000064e4:    00300010    ..0.    DCD    3145744
        0x000064e8:    00600020     .`.    DCD    6291488
        0x000064ec:    00c000c0    ....    DCD    12583104
        0x000064f0:    018000c0    ....    DCD    25166016
        0x000064f4:    01800180    ....    DCD    25166208
        0x000064f8:    01800180    ....    DCD    25166208
        0x000064fc:    01800180    ....    DCD    25166208
        0x00006500:    00c00180    ....    DCD    12583296
        0x00006504:    00c000c0    ....    DCD    12583104
        0x00006508:    00600060    `.`.    DCD    6291552
        0x0000650c:    00100030    0...    DCD    1048624
        0x00006510:    00040008    ....    DCD    262152
        0x00006514:    00000002    ....    DCD    2
        0x00006518:    00000000    ....    DCD    0
        0x0000651c:    00000000    ....    DCD    0
        0x00006520:    00000000    ....    DCD    0
        0x00006524:    00000000    ....    DCD    0
        0x00006528:    03800100    ....    DCD    58720512
        0x0000652c:    01000380    ....    DCD    16778112
        0x00006530:    793c711c    .q<y    DCD    2034004252
        0x00006534:    07c03d78    x=..    DCD    130039160
        0x00006538:    07c00100    ....    DCD    130023680
        0x0000653c:    793c3d78    x=<y    DCD    2033991032
        0x00006540:    0100711c    .q..    DCD    16806172
        0x00006544:    03800380    ....    DCD    58721152
        0x00006548:    00000180    ....    DCD    384
        0x0000654c:    00000000    ....    DCD    0
        0x00006550:    00000000    ....    DCD    0
        0x00006554:    00000000    ....    DCD    0
        0x00006558:    00000000    ....    DCD    0
        0x0000655c:    00000000    ....    DCD    0
        0x00006560:    00000000    ....    DCD    0
        0x00006564:    00000000    ....    DCD    0
        0x00006568:    01000000    ....    DCD    16777216
        0x0000656c:    01000100    ....    DCD    16777472
        0x00006570:    01000100    ....    DCD    16777472
        0x00006574:    01000100    ....    DCD    16777472
        0x00006578:    01007ffc    ....    DCD    16809980
        0x0000657c:    01000100    ....    DCD    16777472
        0x00006580:    01000100    ....    DCD    16777472
        0x00006584:    01000100    ....    DCD    16777472
        0x00006588:    00000000    ....    DCD    0
        0x0000658c:    00000000    ....    DCD    0
        0x00006590:    00000000    ....    DCD    0
        0x00006594:    00000000    ....    DCD    0
        0x00006598:    00000000    ....    DCD    0
        0x0000659c:    00000000    ....    DCD    0
        0x000065a0:    00000000    ....    DCD    0
        0x000065a4:    00000000    ....    DCD    0
        0x000065a8:    00000000    ....    DCD    0
        0x000065ac:    00000000    ....    DCD    0
        0x000065b0:    00000000    ....    DCD    0
        0x000065b4:    00000000    ....    DCD    0
        0x000065b8:    00000000    ....    DCD    0
        0x000065bc:    00000000    ....    DCD    0
        0x000065c0:    00000000    ....    DCD    0
        0x000065c4:    00000000    ....    DCD    0
        0x000065c8:    003c001c    ..<.    DCD    3932188
        0x000065cc:    0030003c    <.0.    DCD    3145788
        0x000065d0:    00100030    0...    DCD    1048624
        0x000065d4:    0006000c    ....    DCD    393228
        0x000065d8:    00000000    ....    DCD    0
        0x000065dc:    00000000    ....    DCD    0
        0x000065e0:    00000000    ....    DCD    0
        0x000065e4:    00000000    ....    DCD    0
        0x000065e8:    00000000    ....    DCD    0
        0x000065ec:    00000000    ....    DCD    0
        0x000065f0:    00000000    ....    DCD    0
        0x000065f4:    00000000    ....    DCD    0
        0x000065f8:    00007ffe    ....    DCD    32766
        0x000065fc:    00000000    ....    DCD    0
        0x00006600:    00000000    ....    DCD    0
        0x00006604:    00000000    ....    DCD    0
        0x00006608:    00000000    ....    DCD    0
        0x0000660c:    00000000    ....    DCD    0
        0x00006610:    00000000    ....    DCD    0
        0x00006614:    00000000    ....    DCD    0
        0x00006618:    00000000    ....    DCD    0
        0x0000661c:    00000000    ....    DCD    0
        0x00006620:    00000000    ....    DCD    0
        0x00006624:    00000000    ....    DCD    0
        0x00006628:    00000000    ....    DCD    0
        0x0000662c:    00000000    ....    DCD    0
        0x00006630:    00000000    ....    DCD    0
        0x00006634:    00000000    ....    DCD    0
        0x00006638:    00000000    ....    DCD    0
        0x0000663c:    00000000    ....    DCD    0
        0x00006640:    00000000    ....    DCD    0
        0x00006644:    00180000    ....    DCD    1572864
        0x00006648:    003c003c    <.<.    DCD    3932220
        0x0000664c:    00000018    ....    DCD    24
        0x00006650:    00000000    ....    DCD    0
        0x00006654:    00000000    ....    DCD    0
        0x00006658:    00000000    ....    DCD    0
        0x0000665c:    40000000    ...@    DCD    1073741824
        0x00006660:    20006000    .`.     DCD    536895488
        0x00006664:    10003000    .0..    DCD    268447744
        0x00006668:    08001800    ....    DCD    134223872
        0x0000666c:    04000c00    ....    DCD    67111936
        0x00006670:    02000600    ....    DCD    33555968
        0x00006674:    01000300    ....    DCD    16777984
        0x00006678:    00800180    ....    DCD    8388992
        0x0000667c:    004000c0    ..@.    DCD    4194496
        0x00006680:    00200060    `. .    DCD    2097248
        0x00006684:    00100030    0...    DCD    1048624
        0x00006688:    00080018    ....    DCD    524312
        0x0000668c:    0004000c    ....    DCD    262156
        0x00006690:    00020006    ....    DCD    131078
        0x00006694:    00000000    ....    DCD    0
        0x00006698:    00000000    ....    DCD    0
        0x0000669c:    00000000    ....    DCD    0
        0x000066a0:    00000000    ....    DCD    0
        0x000066a4:    0c6007c0    ..`.    DCD    207620032
        0x000066a8:    30181830    0..0    DCD    806885424
        0x000066ac:    20183018    .0.     DCD    538456088
        0x000066b0:    600c600c    .`.`    DCD    1611423756
        0x000066b4:    600c600c    .`.`    DCD    1611423756
        0x000066b8:    600c600c    .`.`    DCD    1611423756
        0x000066bc:    600c600c    .`.`    DCD    1611423756
        0x000066c0:    2018600c    .`.     DCD    538468364
        0x000066c4:    30183018    .0.0    DCD    806891544
        0x000066c8:    0c601830    0.`.    DCD    207624240
        0x000066cc:    000007c0    ....    DCD    1984
        0x000066d0:    00000000    ....    DCD    0
        0x000066d4:    00000000    ....    DCD    0
        0x000066d8:    00000000    ....    DCD    0
        0x000066dc:    00000000    ....    DCD    0
        0x000066e0:    00000000    ....    DCD    0
        0x000066e4:    01800100    ....    DCD    25166080
        0x000066e8:    018001f8    ....    DCD    25166328
        0x000066ec:    01800180    ....    DCD    25166208
        0x000066f0:    01800180    ....    DCD    25166208
        0x000066f4:    01800180    ....    DCD    25166208
        0x000066f8:    01800180    ....    DCD    25166208
        0x000066fc:    01800180    ....    DCD    25166208
        0x00006700:    01800180    ....    DCD    25166208
        0x00006704:    01800180    ....    DCD    25166208
        0x00006708:    03c00180    ....    DCD    62914944
        0x0000670c:    00001ff8    ....    DCD    8184
        0x00006710:    00000000    ....    DCD    0
        0x00006714:    00000000    ....    DCD    0
        0x00006718:    00000000    ....    DCD    0
        0x0000671c:    00000000    ....    DCD    0
        0x00006720:    00000000    ....    DCD    0
        0x00006724:    1c1007e0    ....    DCD    470812640
        0x00006728:    30041808    ...0    DCD    805574664
        0x0000672c:    300c3004    .0.0    DCD    806105092
        0x00006730:    3000300c    .0.0    DCD    805318668
        0x00006734:    08001800    ....    DCD    134223872
        0x00006738:    02000400    ....    DCD    33555456
        0x0000673c:    00800100    ....    DCD    8388864
        0x00006740:    20200040    @.      DCD    538968128
        0x00006744:    20082010    . .     DCD    537403408
        0x00006748:    1ffc3004    .0..    DCD    536621060
        0x0000674c:    00001ffc    ....    DCD    8188
        0x00006750:    00000000    ....    DCD    0
        0x00006754:    00000000    ....    DCD    0
        0x00006758:    00000000    ....    DCD    0
        0x0000675c:    00000000    ....    DCD    0
        0x00006760:    00000000    ....    DCD    0
        0x00006764:    0e1803e0    ....    DCD    236454880
        0x00006768:    180c0c0c    ....    DCD    403442700
        0x0000676c:    180c180c    ....    DCD    403445772
        0x00006770:    0c001800    ....    DCD    201332736
        0x00006774:    03c00600    ....    DCD    62916096
        0x00006778:    18000e00    ....    DCD    402656768
        0x0000677c:    30001000    ...0    DCD    805310464
        0x00006780:    300c3000    .0.0    DCD    806105088
        0x00006784:    100c300c    .0..    DCD    269234188
        0x00006788:    0c18180c    ....    DCD    202905612
        0x0000678c:    000003e0    ....    DCD    992
        0x00006790:    00000000    ....    DCD    0
        0x00006794:    00000000    ....    DCD    0
        0x00006798:    00000000    ....    DCD    0
        0x0000679c:    00000000    ....    DCD    0
        0x000067a0:    00000000    ....    DCD    0
        0x000067a4:    0e000c00    ....    DCD    234884096
        0x000067a8:    0f000e00    ....    DCD    251661824
        0x000067ac:    0e800e80    ....    DCD    243273344
        0x000067b0:    0e600e40    @.`.    DCD    241176128
        0x000067b4:    0e100e20     ...    DCD    235933216
        0x000067b8:    0e080e10    ....    DCD    235408912
        0x000067bc:    0e040e04    ....    DCD    235146756
        0x000067c0:    0e007ffe    ....    DCD    234913790
        0x000067c4:    0e000e00    ....    DCD    234884608
        0x000067c8:    0e000e00    ....    DCD    234884608
        0x000067cc:    7fc00e00    ....    DCD    2143292928
        0x000067d0:    00000000    ....    DCD    0
        0x000067d4:    00000000    ....    DCD    0
        0x000067d8:    00000000    ....    DCD    0
        0x000067dc:    00000000    ....    DCD    0
        0x000067e0:    00000000    ....    DCD    0
        0x000067e4:    3ff03ff0    .?.?    DCD    1072709616
        0x000067e8:    00100010    ....    DCD    1048592
        0x000067ec:    00080010    ....    DCD    524304
        0x000067f0:    07c80008    ....    DCD    130547720
        0x000067f4:    18180c28    (...    DCD    404229160
        0x000067f8:    30001008    ...0    DCD    805310472
        0x000067fc:    30003000    .0.0    DCD    805318656
        0x00006800:    300c3000    .0.0    DCD    806105088
        0x00006804:    1804300c    .0..    DCD    402927628
        0x00006808:    0c081804    ....    DCD    201857028
        0x0000680c:    000003f0    ....    DCD    1008
        0x00006810:    00000000    ....    DCD    0
        0x00006814:    00000000    ....    DCD    0
        0x00006818:    00000000    ....    DCD    0
        0x0000681c:    00000000    ....    DCD    0
        0x00006820:    00000000    ....    DCD    0
        0x00006824:    10c00f80    ....    DCD    281022336
        0x00006828:    30103020     0.0    DCD    806367264
        0x0000682c:    00180018    ....    DCD    1572888
        0x00006830:    000c0008    ....    DCD    786440
        0x00006834:    186c0f8c    ..l.    DCD    409735052
        0x00006838:    601c303c    <0.`    DCD    1612460092
        0x0000683c:    600c600c    .`.`    DCD    1611423756
        0x00006840:    600c600c    .`.`    DCD    1611423756
        0x00006844:    20186018    .`.     DCD    538468376
        0x00006848:    18603030    00`.    DCD    408956976
        0x0000684c:    000007c0    ....    DCD    1984
        0x00006850:    00000000    ....    DCD    0
        0x00006854:    00000000    ....    DCD    0
        0x00006858:    00000000    ....    DCD    0
        0x0000685c:    00000000    ....    DCD    0
        0x00006860:    00000000    ....    DCD    0
        0x00006864:    3ff83ff8    .?.?    DCD    1073233912
        0x00006868:    080c101c    ....    DCD    135008284
        0x0000686c:    04040804    ....    DCD    67373060
        0x00006870:    02000400    ....    DCD    33555456
        0x00006874:    01000200    ....    DCD    16777728
        0x00006878:    01000100    ....    DCD    16777472
        0x0000687c:    00800080    ....    DCD    8388736
        0x00006880:    00c00080    ....    DCD    12583040
        0x00006884:    00c000c0    ....    DCD    12583104
        0x00006888:    00c000c0    ....    DCD    12583104
        0x0000688c:    000000c0    ....    DCD    192
        0x00006890:    00000000    ....    DCD    0
        0x00006894:    00000000    ....    DCD    0
        0x00006898:    00000000    ....    DCD    0
        0x0000689c:    00000000    ....    DCD    0
        0x000068a0:    00000000    ....    DCD    0
        0x000068a4:    0c3007e0    ..0.    DCD    204474336
        0x000068a8:    300c1818    ...0    DCD    806098968
        0x000068ac:    300c300c    .0.0    DCD    806105100
        0x000068b0:    1838301c    .08.    DCD    406335516
        0x000068b4:    07e00870    p...    DCD    132122736
        0x000068b8:    0e1807b0    ....    DCD    236455856
        0x000068bc:    38061c0c    ...8    DCD    939924492
        0x000068c0:    30063006    .0.0    DCD    805711878
        0x000068c4:    30063006    .0.0    DCD    805711878
        0x000068c8:    0c18180c    ....    DCD    202905612
        0x000068cc:    000003e0    ....    DCD    992
        0x000068d0:    00000000    ....    DCD    0
        0x000068d4:    00000000    ....    DCD    0
        0x000068d8:    00000000    ....    DCD    0
        0x000068dc:    00000000    ....    DCD    0
        0x000068e0:    00000000    ....    DCD    0
        0x000068e4:    041803e0    ....    DCD    68682720
        0x000068e8:    180c080c    ....    DCD    403441676
        0x000068ec:    30061006    ...0    DCD    805703686
        0x000068f0:    30063006    .0.0    DCD    805711878
        0x000068f4:    38063006    .0.8    DCD    939929606
        0x000068f8:    36183c0c    .<.6    DCD    907557900
        0x000068fc:    300031f0    .1.0    DCD    805319152
        0x00006900:    18001800    ....    DCD    402659328
        0x00006904:    0c0c1800    ....    DCD    202119168
        0x00006908:    030c060c    ....    DCD    51119628
        0x0000690c:    000001f0    ....    DCD    496
        0x00006910:    00000000    ....    DCD    0
        0x00006914:    00000000    ....    DCD    0
        0x00006918:    00000000    ....    DCD    0
        0x0000691c:    00000000    ....    DCD    0
        0x00006920:    00000000    ....    DCD    0
        0x00006924:    00000000    ....    DCD    0
        0x00006928:    00000000    ....    DCD    0
        0x0000692c:    00000000    ....    DCD    0
        0x00006930:    01800000    ....    DCD    25165824
        0x00006934:    03c003c0    ....    DCD    62915520
        0x00006938:    00000180    ....    DCD    384
        0x0000693c:    00000000    ....    DCD    0
        0x00006940:    00000000    ....    DCD    0
        0x00006944:    01800000    ....    DCD    25165824
        0x00006948:    03c003c0    ....    DCD    62915520
        0x0000694c:    00000180    ....    DCD    384
        0x00006950:    00000000    ....    DCD    0
        0x00006954:    00000000    ....    DCD    0
        0x00006958:    00000000    ....    DCD    0
        0x0000695c:    00000000    ....    DCD    0
        0x00006960:    00000000    ....    DCD    0
        0x00006964:    00000000    ....    DCD    0
        0x00006968:    00000000    ....    DCD    0
        0x0000696c:    00000000    ....    DCD    0
        0x00006970:    00c00000    ....    DCD    12582912
        0x00006974:    000000c0    ....    DCD    192
        0x00006978:    00000000    ....    DCD    0
        0x0000697c:    00000000    ....    DCD    0
        0x00006980:    00000000    ....    DCD    0
        0x00006984:    00000000    ....    DCD    0
        0x00006988:    00c00000    ....    DCD    12582912
        0x0000698c:    008000c0    ....    DCD    8388800
        0x00006990:    00400080    ..@.    DCD    4194432
        0x00006994:    00000040    @...    DCD    64
        0x00006998:    00000000    ....    DCD    0
        0x0000699c:    00000000    ....    DCD    0
        0x000069a0:    20000000    ...     DCD    536870912
        0x000069a4:    08001000    ....    DCD    134221824
        0x000069a8:    06000400    ....    DCD    100664320
        0x000069ac:    01800300    ....    DCD    25166592
        0x000069b0:    006000c0    ..`.    DCD    6291648
        0x000069b4:    00180030    0...    DCD    1572912
        0x000069b8:    0018000c    ....    DCD    1572876
        0x000069bc:    00600030    0.`.    DCD    6291504
        0x000069c0:    018000c0    ....    DCD    25166016
        0x000069c4:    06000300    ....    DCD    100664064
        0x000069c8:    08000400    ....    DCD    134218752
        0x000069cc:    20001000    ...     DCD    536875008
        0x000069d0:    00000000    ....    DCD    0
        0x000069d4:    00000000    ....    DCD    0
        0x000069d8:    00000000    ....    DCD    0
        0x000069dc:    00000000    ....    DCD    0
        0x000069e0:    00000000    ....    DCD    0
        0x000069e4:    00000000    ....    DCD    0
        0x000069e8:    00000000    ....    DCD    0
        0x000069ec:    00000000    ....    DCD    0
        0x000069f0:    7ffe0000    ....    DCD    2147352576
        0x000069f4:    00000000    ....    DCD    0
        0x000069f8:    00000000    ....    DCD    0
        0x000069fc:    7ffe0000    ....    DCD    2147352576
        0x00006a00:    00000000    ....    DCD    0
        0x00006a04:    00000000    ....    DCD    0
        0x00006a08:    00000000    ....    DCD    0
        0x00006a0c:    00000000    ....    DCD    0
        0x00006a10:    00000000    ....    DCD    0
        0x00006a14:    00000000    ....    DCD    0
        0x00006a18:    00000000    ....    DCD    0
        0x00006a1c:    00000000    ....    DCD    0
        0x00006a20:    00040000    ....    DCD    262144
        0x00006a24:    00100008    ....    DCD    1048584
        0x00006a28:    00600020     .`.    DCD    6291488
        0x00006a2c:    018000c0    ....    DCD    25166016
        0x00006a30:    06000300    ....    DCD    100664064
        0x00006a34:    18000c00    ....    DCD    402656256
        0x00006a38:    18003000    .0..    DCD    402665472
        0x00006a3c:    06000c00    ....    DCD    100666368
        0x00006a40:    01800300    ....    DCD    25166592
        0x00006a44:    006000c0    ..`.    DCD    6291648
        0x00006a48:    00100020     ...    DCD    1048608
        0x00006a4c:    00040008    ....    DCD    262152
        0x00006a50:    00000000    ....    DCD    0
        0x00006a54:    00000000    ....    DCD    0
        0x00006a58:    00000000    ....    DCD    0
        0x00006a5c:    00000000    ....    DCD    0
        0x00006a60:    07c00000    ....    DCD    130023424
        0x00006a64:    30081830    0..0    DCD    805836848
        0x00006a68:    600c6008    .`.`    DCD    1611423752
        0x00006a6c:    601c601c    .`.`    DCD    1612472348
        0x00006a70:    3000601c    .`.0    DCD    805330972
        0x00006a74:    06001c00    ....    DCD    100670464
        0x00006a78:    00800100    ....    DCD    8388864
        0x00006a7c:    00800080    ....    DCD    8388736
        0x00006a80:    00000080    ....    DCD    128
        0x00006a84:    01800000    ....    DCD    25165824
        0x00006a88:    03c003c0    ....    DCD    62915520
        0x00006a8c:    00000180    ....    DCD    384
        0x00006a90:    00000000    ....    DCD    0
        0x00006a94:    00000000    ....    DCD    0
        0x00006a98:    00000000    ....    DCD    0
        0x00006a9c:    00000000    ....    DCD    0
        0x00006aa0:    00000000    ....    DCD    0
        0x00006aa4:    186007c0    ..`.    DCD    408946624
        0x00006aa8:    20183010    .0.     DCD    538456080
        0x00006aac:    4d8c2f0c    ./.M    DCD    1301032716
        0x00006ab0:    4cc64c86    .L.L    DCD    1288064134
        0x00006ab4:    4c664cc6    .LfL    DCD    1281772742
        0x00006ab8:    44664466    fDfD    DCD    1147552870
        0x00006abc:    26662666    f&f&    DCD    644228710
        0x00006ac0:    1ccc1566    f...    DCD    483136870
        0x00006ac4:    2008400c    .@.     DCD    537411596
        0x00006ac8:    18303018    .00.    DCD    405811224
        0x00006acc:    000007c0    ....    DCD    1984
        0x00006ad0:    00000000    ....    DCD    0
        0x00006ad4:    00000000    ....    DCD    0
        0x00006ad8:    00000000    ....    DCD    0
        0x00006adc:    00000000    ....    DCD    0
        0x00006ae0:    01000000    ....    DCD    16777216
        0x00006ae4:    01c001c0    ....    DCD    29360576
        0x00006ae8:    014001c0    ..@.    DCD    20971968
        0x00006aec:    03200360    `. .    DCD    52429664
        0x00006af0:    03200320     . .    DCD    52429600
        0x00006af4:    06100630    0...    DCD    101713456
        0x00006af8:    06100610    ....    DCD    101713424
        0x00006afc:    0c080ff8    ....    DCD    201854968
        0x00006b00:    0c080c08    ....    DCD    201853960
        0x00006b04:    18040c0c    ....    DCD    402918412
        0x00006b08:    18061804    ....    DCD    403052548
        0x00006b0c:    00007c1f    .|..    DCD    31775
        0x00006b10:    00000000    ....    DCD    0
        0x00006b14:    00000000    ....    DCD    0
        0x00006b18:    00000000    ....    DCD    0
        0x00006b1c:    00000000    ....    DCD    0
        0x00006b20:    00000000    ....    DCD    0
        0x00006b24:    1c1807fe    ....    DCD    471336958
        0x00006b28:    30183818    .8.0    DCD    806893592
        0x00006b2c:    30183018    .0.0    DCD    806891544
        0x00006b30:    18183018    .0..    DCD    404238360
        0x00006b34:    07f80c18    ....    DCD    133696536
        0x00006b38:    30181818    ...0    DCD    806885400
        0x00006b3c:    60182018    . .`    DCD    1612193816
        0x00006b40:    60186018    .`.`    DCD    1612210200
        0x00006b44:    60186018    .`.`    DCD    1612210200
        0x00006b48:    18183018    .0..    DCD    404238360
        0x00006b4c:    00000ffe    ....    DCD    4094
        0x00006b50:    00000000    ....    DCD    0
        0x00006b54:    00000000    ....    DCD    0
        0x00006b58:    00000000    ....    DCD    0
        0x00006b5c:    00000000    ....    DCD    0
        0x00006b60:    00000000    ....    DCD    0
        0x00006b64:    386027c0    .'`8    DCD    945825728
        0x00006b68:    20183010    .0.     DCD    538456080
        0x00006b6c:    400c400c    .@.@    DCD    1074544652
        0x00006b70:    00060004    ....    DCD    393220
        0x00006b74:    00060006    ....    DCD    393222
        0x00006b78:    00060006    ....    DCD    393222
        0x00006b7c:    00060006    ....    DCD    393222
        0x00006b80:    400c0006    ...@    DCD    1074528262
        0x00006b84:    200c400c    .@.     DCD    537673740
        0x00006b88:    18303018    .00.    DCD    405811224
        0x00006b8c:    000007c0    ....    DCD    1984
        0x00006b90:    00000000    ....    DCD    0
        0x00006b94:    00000000    ....    DCD    0
        0x00006b98:    00000000    ....    DCD    0
        0x00006b9c:    00000000    ....    DCD    0
        0x00006ba0:    00000000    ....    DCD    0
        0x00006ba4:    0e1803fe    ....    DCD    236454910
        0x00006ba8:    30181818    ...0    DCD    806885400
        0x00006bac:    30183018    .0.0    DCD    806891544
        0x00006bb0:    60186018    .`.`    DCD    1612210200
        0x00006bb4:    60186018    .`.`    DCD    1612210200
        0x00006bb8:    60186018    .`.`    DCD    1612210200
        0x00006bbc:    60186018    .`.`    DCD    1612210200
        0x00006bc0:    30186018    .`.0    DCD    806903832
        0x00006bc4:    10183018    .0..    DCD    270020632
        0x00006bc8:    0e181818    ....    DCD    236460056
        0x00006bcc:    000003fe    ....    DCD    1022
        0x00006bd0:    00000000    ....    DCD    0
        0x00006bd4:    00000000    ....    DCD    0
        0x00006bd8:    00000000    ....    DCD    0
        0x00006bdc:    00000000    ....    DCD    0
        0x00006be0:    00000000    ....    DCD    0
        0x00006be4:    30183ffe    .?.0    DCD    806895614
        0x00006be8:    60182018    . .`    DCD    1612193816
        0x00006bec:    00184018    .@..    DCD    1589272
        0x00006bf0:    08180818    ....    DCD    135792664
        0x00006bf4:    0ff80c18    ....    DCD    267914264
        0x00006bf8:    08180c18    ....    DCD    135793688
        0x00006bfc:    00180818    ....    DCD    1574936
        0x00006c00:    00180018    ....    DCD    1572888
        0x00006c04:    40184018    .@.@    DCD    1075331096
        0x00006c08:    30182018    . .0    DCD    806887448
        0x00006c0c:    00003ffe    .?..    DCD    16382
        0x00006c10:    00000000    ....    DCD    0
        0x00006c14:    00000000    ....    DCD    0
        0x00006c18:    00000000    ....    DCD    0
        0x00006c1c:    00000000    ....    DCD    0
        0x00006c20:    00000000    ....    DCD    0
        0x00006c24:    70187ffe    ...p    DCD    1880653822
        0x00006c28:    c0184018    .@..    DCD    3222814744
        0x00006c2c:    00188018    ....    DCD    1605656
        0x00006c30:    10181018    ....    DCD    270012440
        0x00006c34:    1ff81818    ....    DCD    536352792
        0x00006c38:    10181818    ....    DCD    270014488
        0x00006c3c:    00181018    ....    DCD    1576984
        0x00006c40:    00180018    ....    DCD    1572888
        0x00006c44:    00180018    ....    DCD    1572888
        0x00006c48:    00180018    ....    DCD    1572888
        0x00006c4c:    0000007e    ~...    DCD    126
        0x00006c50:    00000000    ....    DCD    0
        0x00006c54:    00000000    ....    DCD    0
        0x00006c58:    00000000    ....    DCD    0
        0x00006c5c:    00000000    ....    DCD    0
        0x00006c60:    00000000    ....    DCD    0
        0x00006c64:    1c7013c0    ..p.    DCD    477107136
        0x00006c68:    10181010    ....    DCD    270012432
        0x00006c6c:    200c200c    . .     DCD    537665548
        0x00006c70:    00060004    ....    DCD    393220
        0x00006c74:    00060006    ....    DCD    393222
        0x00006c78:    00060006    ....    DCD    393222
        0x00006c7c:    3006fc06    ...0    DCD    805764102
        0x00006c80:    300c3006    .0.0    DCD    806105094
        0x00006c84:    3018300c    .0.0    DCD    806891532
        0x00006c88:    08303018    .00.    DCD    137375768
        0x00006c8c:    000007c0    ....    DCD    1984
        0x00006c90:    00000000    ....    DCD    0
        0x00006c94:    00000000    ....    DCD    0
        0x00006c98:    00000000    ....    DCD    0
        0x00006c9c:    00000000    ....    DCD    0
        0x00006ca0:    00000000    ....    DCD    0
        0x00006ca4:    180c7e3f    ?~..    DCD    403471935
        0x00006ca8:    180c180c    ....    DCD    403445772
        0x00006cac:    180c180c    ....    DCD    403445772
        0x00006cb0:    180c180c    ....    DCD    403445772
        0x00006cb4:    180c180c    ....    DCD    403445772
        0x00006cb8:    180c1ffc    ....    DCD    403447804
        0x00006cbc:    180c180c    ....    DCD    403445772
        0x00006cc0:    180c180c    ....    DCD    403445772
        0x00006cc4:    180c180c    ....    DCD    403445772
        0x00006cc8:    180c180c    ....    DCD    403445772
        0x00006ccc:    00007e3f    ?~..    DCD    32319
        0x00006cd0:    00000000    ....    DCD    0
        0x00006cd4:    00000000    ....    DCD    0
        0x00006cd8:    00000000    ....    DCD    0
        0x00006cdc:    00000000    ....    DCD    0
        0x00006ce0:    00000000    ....    DCD    0
        0x00006ce4:    01801ff8    ....    DCD    25174008
        0x00006ce8:    01800180    ....    DCD    25166208
        0x00006cec:    01800180    ....    DCD    25166208
        0x00006cf0:    01800180    ....    DCD    25166208
        0x00006cf4:    01800180    ....    DCD    25166208
        0x00006cf8:    01800180    ....    DCD    25166208
        0x00006cfc:    01800180    ....    DCD    25166208
        0x00006d00:    01800180    ....    DCD    25166208
        0x00006d04:    01800180    ....    DCD    25166208
        0x00006d08:    01800180    ....    DCD    25166208
        0x00006d0c:    00001ff8    ....    DCD    8184
        0x00006d10:    00000000    ....    DCD    0
        0x00006d14:    00000000    ....    DCD    0
        0x00006d18:    00000000    ....    DCD    0
        0x00006d1c:    00000000    ....    DCD    0
        0x00006d20:    00000000    ....    DCD    0
        0x00006d24:    06007fe0    ....    DCD    100696032
        0x00006d28:    06000600    ....    DCD    100664832
        0x00006d2c:    06000600    ....    DCD    100664832
        0x00006d30:    06000600    ....    DCD    100664832
        0x00006d34:    06000600    ....    DCD    100664832
        0x00006d38:    06000600    ....    DCD    100664832
        0x00006d3c:    06000600    ....    DCD    100664832
        0x00006d40:    06000600    ....    DCD    100664832
        0x00006d44:    06000600    ....    DCD    100664832
        0x00006d48:    06000600    ....    DCD    100664832
        0x00006d4c:    06000600    ....    DCD    100664832
        0x00006d50:    030e060e    ....    DCD    51250702
        0x00006d54:    00fc018e    ....    DCD    16515470
        0x00006d58:    00000000    ....    DCD    0
        0x00006d5c:    00000000    ....    DCD    0
        0x00006d60:    00000000    ....    DCD    0
        0x00006d64:    18187c7e    ~|..    DCD    404257918
        0x00006d68:    04180818    ....    DCD    68683800
        0x00006d6c:    02180618    ....    DCD    35128856
        0x00006d70:    01980118    ....    DCD    26738968
        0x00006d74:    01d80198    ....    DCD    30933400
        0x00006d78:    033803b8    ..8.    DCD    54002616
        0x00006d7c:    06180718    ....    DCD    102237976
        0x00006d80:    0c180e18    ....    DCD    202903064
        0x00006d84:    18181c18    ....    DCD    404233240
        0x00006d88:    30183018    .0.0    DCD    806891544
        0x00006d8c:    0000fc7e    ~...    DCD    64638
        0x00006d90:    00000000    ....    DCD    0
        0x00006d94:    00000000    ....    DCD    0
        0x00006d98:    00000000    ....    DCD    0
        0x00006d9c:    00000000    ....    DCD    0
        0x00006da0:    00000000    ....    DCD    0
        0x00006da4:    0018007e    ~...    DCD    1572990
        0x00006da8:    00180018    ....    DCD    1572888
        0x00006dac:    00180018    ....    DCD    1572888
        0x00006db0:    00180018    ....    DCD    1572888
        0x00006db4:    00180018    ....    DCD    1572888
        0x00006db8:    00180018    ....    DCD    1572888
        0x00006dbc:    00180018    ....    DCD    1572888
        0x00006dc0:    00180018    ....    DCD    1572888
        0x00006dc4:    40184018    .@.@    DCD    1075331096
        0x00006dc8:    30182018    . .0    DCD    806887448
        0x00006dcc:    00003ffe    .?..    DCD    16382
        0x00006dd0:    00000000    ....    DCD    0
        0x00006dd4:    00000000    ....    DCD    0
        0x00006dd8:    00000000    ....    DCD    0
        0x00006ddc:    00000000    ....    DCD    0
        0x00006de0:    00000000    ....    DCD    0
        0x00006de4:    381cf81f    ...8    DCD    941422623
        0x00006de8:    381c381c    .8.8    DCD    941373468
        0x00006dec:    34343c1c    .<44    DCD    875838492
        0x00006df0:    34343434    4444    DCD    875836468
        0x00006df4:    32743634    46t2    DCD    846476852
        0x00006df8:    32643264    d2d2    DCD    845427300
        0x00006dfc:    31643264    d2d1    DCD    828650084
        0x00006e00:    31c431c4    .1.1    DCD    834941380
        0x00006e04:    30c431c4    .1.0    DCD    818164164
        0x00006e08:    308430c4    .0.0    DCD    813969604
        0x00006e0c:    0000fc9f    ....    DCD    64671
        0x00006e10:    00000000    ....    DCD    0
        0x00006e14:    00000000    ....    DCD    0
        0x00006e18:    00000000    ....    DCD    0
        0x00006e1c:    00000000    ....    DCD    0
        0x00006e20:    00000000    ....    DCD    0
        0x00006e24:    101c7c1f    .|..    DCD    270302239
        0x00006e28:    1034103c    <.4.    DCD    271847484
        0x00006e2c:    10741034    4.t.    DCD    276041780
        0x00006e30:    10e41064    d...    DCD    283381860
        0x00006e34:    11c410c4    ....    DCD    298062020
        0x00006e38:    13841184    ....    DCD    327422340
        0x00006e3c:    17041304    ....    DCD    386142980
        0x00006e40:    1e041604    ....    DCD    503584260
        0x00006e44:    1c041c04    ....    DCD    470031364
        0x00006e48:    18041c04    ....    DCD    402922500
        0x00006e4c:    0000181f    ....    DCD    6175
        0x00006e50:    00000000    ....    DCD    0
        0x00006e54:    00000000    ....    DCD    0
        0x00006e58:    00000000    ....    DCD    0
        0x00006e5c:    00000000    ....    DCD    0
        0x00006e60:    00000000    ....    DCD    0
        0x00006e64:    0c3003c0    ..0.    DCD    204473280
        0x00006e68:    10081818    ....    DCD    268965912
        0x00006e6c:    300c300c    .0.0    DCD    806105100
        0x00006e70:    60066006    .`.`    DCD    1611030534
        0x00006e74:    60066006    .`.`    DCD    1611030534
        0x00006e78:    60066006    .`.`    DCD    1611030534
        0x00006e7c:    60066006    .`.`    DCD    1611030534
        0x00006e80:    200c6006    .`.     DCD    537681926
        0x00006e84:    1008300c    .0..    DCD    268972044
        0x00006e88:    0c301818    ..0.    DCD    204478488
        0x00006e8c:    000003c0    ....    DCD    960
        0x00006e90:    00000000    ....    DCD    0
        0x00006e94:    00000000    ....    DCD    0
        0x00006e98:    00000000    ....    DCD    0
        0x00006e9c:    00000000    ....    DCD    0
        0x00006ea0:    00000000    ....    DCD    0
        0x00006ea4:    18180ffe    ....    DCD    404230142
        0x00006ea8:    60183018    .0.`    DCD    1612197912
        0x00006eac:    60186018    .`.`    DCD    1612210200
        0x00006eb0:    60186018    .`.`    DCD    1612210200
        0x00006eb4:    18183018    .0..    DCD    404238360
        0x00006eb8:    00180ff8    ....    DCD    1576952
        0x00006ebc:    00180018    ....    DCD    1572888
        0x00006ec0:    00180018    ....    DCD    1572888
        0x00006ec4:    00180018    ....    DCD    1572888
        0x00006ec8:    00180018    ....    DCD    1572888
        0x00006ecc:    0000007e    ~...    DCD    126
        0x00006ed0:    00000000    ....    DCD    0
        0x00006ed4:    00000000    ....    DCD    0
        0x00006ed8:    00000000    ....    DCD    0
        0x00006edc:    00000000    ....    DCD    0
        0x00006ee0:    00000000    ....    DCD    0
        0x00006ee4:    0c3003c0    ..0.    DCD    204473280
        0x00006ee8:    100c1818    ....    DCD    269228056
        0x00006eec:    200c300c    .0.     DCD    537669644
        0x00006ef0:    60066006    .`.`    DCD    1611030534
        0x00006ef4:    60066006    .`.`    DCD    1611030534
        0x00006ef8:    60066006    .`.`    DCD    1611030534
        0x00006efc:    60066006    .`.`    DCD    1611030534
        0x00006f00:    61e46006    .`.a    DCD    1642356742
        0x00006f04:    321c332c    ,3.2    DCD    840708908
        0x00006f08:    0e301618    ..0.    DCD    238032408
        0x00006f0c:    4c0007c0    ...L    DCD    1275070400
        0x00006f10:    38007c00    .|.8    DCD    939555840
        0x00006f14:    00000000    ....    DCD    0
        0x00006f18:    00000000    ....    DCD    0
        0x00006f1c:    00000000    ....    DCD    0
        0x00006f20:    00000000    ....    DCD    0
        0x00006f24:    1c1807fe    ....    DCD    471336958
        0x00006f28:    30183818    .8.0    DCD    806893592
        0x00006f2c:    30183018    .0.0    DCD    806891544
        0x00006f30:    18183018    .0..    DCD    404238360
        0x00006f34:    07f80c18    ....    DCD    133696536
        0x00006f38:    03180398    ....    DCD    51905432
        0x00006f3c:    06180718    ....    DCD    102237976
        0x00006f40:    0e180618    ....    DCD    236455448
        0x00006f44:    0c180c18    ....    DCD    202902552
        0x00006f48:    18181c18    ....    DCD    404233240
        0x00006f4c:    0000787e    ~x..    DCD    30846
        0x00006f50:    00000000    ....    DCD    0
        0x00006f54:    00000000    ....    DCD    0
        0x00006f58:    00000000    ....    DCD    0
        0x00006f5c:    00000000    ....    DCD    0
        0x00006f60:    00000000    ....    DCD    0
        0x00006f64:    383027e0    .'08    DCD    942680032
        0x00006f68:    200c3018    .0.     DCD    537669656
        0x00006f6c:    000c200c    . ..    DCD    794636
        0x00006f70:    0018000c    ....    DCD    1572876
        0x00006f74:    03e00078    x...    DCD    65011832
        0x00006f78:    1e000f80    ....    DCD    503320448
        0x00006f7c:    70003800    .8.p    DCD    1879062528
        0x00006f80:    60046000    .`.`    DCD    1610899456
        0x00006f84:    60086004    .`.`    DCD    1611161604
        0x00006f88:    18383018    .08.    DCD    406335512
        0x00006f8c:    00000fc8    ....    DCD    4040
        0x00006f90:    00000000    ....    DCD    0
        0x00006f94:    00000000    ....    DCD    0
        0x00006f98:    00000000    ....    DCD    0
        0x00006f9c:    00000000    ....    DCD    0
        0x00006fa0:    00000000    ....    DCD    0
        0x00006fa4:    218c3ffc    .?.!    DCD    562839548
        0x00006fa8:    41826184    .a.A    DCD    1099063684
        0x00006fac:    01804182    .A..    DCD    25182594
        0x00006fb0:    01800180    ....    DCD    25166208
        0x00006fb4:    01800180    ....    DCD    25166208
        0x00006fb8:    01800180    ....    DCD    25166208
        0x00006fbc:    01800180    ....    DCD    25166208
        0x00006fc0:    01800180    ....    DCD    25166208
        0x00006fc4:    01800180    ....    DCD    25166208
        0x00006fc8:    01800180    ....    DCD    25166208
        0x00006fcc:    000007e0    ....    DCD    2016
        0x00006fd0:    00000000    ....    DCD    0
        0x00006fd4:    00000000    ....    DCD    0
        0x00006fd8:    00000000    ....    DCD    0
        0x00006fdc:    00000000    ....    DCD    0
        0x00006fe0:    00000000    ....    DCD    0
        0x00006fe4:    100c7c3f    ?|..    DCD    269253695
        0x00006fe8:    100c100c    ....    DCD    269225996
        0x00006fec:    100c100c    ....    DCD    269225996
        0x00006ff0:    100c100c    ....    DCD    269225996
        0x00006ff4:    100c100c    ....    DCD    269225996
        0x00006ff8:    100c100c    ....    DCD    269225996
        0x00006ffc:    100c100c    ....    DCD    269225996
        0x00007000:    100c100c    ....    DCD    269225996
        0x00007004:    100c100c    ....    DCD    269225996
        0x00007008:    04380808    ..8.    DCD    70780936
        0x0000700c:    000003e0    ....    DCD    992
        0x00007010:    00000000    ....    DCD    0
        0x00007014:    00000000    ....    DCD    0
        0x00007018:    00000000    ....    DCD    0
        0x0000701c:    00000000    ....    DCD    0
        0x00007020:    00000000    ....    DCD    0
        0x00007024:    2018f83e    >..     DCD    538507326
        0x00007028:    20182018    . .     DCD    538451992
        0x0000702c:    10301030    0.0.    DCD    271585328
        0x00007030:    10301030    0.0.    DCD    271585328
        0x00007034:    08600860    `.`.    DCD    140511328
        0x00007038:    0ce00860    `...    DCD    216008800
        0x0000703c:    04c004c0    ....    DCD    79692992
        0x00007040:    038004c0    ....    DCD    58721472
        0x00007044:    03800380    ....    DCD    58721152
        0x00007048:    01000380    ....    DCD    16778112
        0x0000704c:    00000100    ....    DCD    256
        0x00007050:    00000000    ....    DCD    0
        0x00007054:    00000000    ....    DCD    0
        0x00007058:    00000000    ....    DCD    0
        0x0000705c:    00000000    ....    DCD    0
        0x00007060:    00000000    ....    DCD    0
        0x00007064:    6186f3df    ...a    DCD    1636234207
        0x00007068:    21862186    .!.!    DCD    562438534
        0x0000706c:    210c218c    .!.!    DCD    554443148
        0x00007070:    138c238c    .#..    DCD    327951244
        0x00007074:    138c138c    ....    DCD    327947148
        0x00007078:    1258134c    L.X.    DCD    307761996
        0x0000707c:    0e581658    X.X.    DCD    240653912
        0x00007080:    0e380e38    8.8.    DCD    238554680
        0x00007084:    0c300e38    8.0.    DCD    204475960
        0x00007088:    04100410    ....    DCD    68158480
        0x0000708c:    00000410    ....    DCD    1040
        0x00007090:    00000000    ....    DCD    0
        0x00007094:    00000000    ....    DCD    0
        0x00007098:    00000000    ....    DCD    0
        0x0000709c:    00000000    ....    DCD    0
        0x000070a0:    00000000    ....    DCD    0
        0x000070a4:    08183e7e    ~>..    DCD    135806590
        0x000070a8:    04300838    8.0.    DCD    70256696
        0x000070ac:    02700430    0.p.    DCD    40895536
        0x000070b0:    01e00260    `...    DCD    31457888
        0x000070b4:    01c001c0    ....    DCD    29360576
        0x000070b8:    03800180    ....    DCD    58720640
        0x000070bc:    07400340    @.@.    DCD    121635648
        0x000070c0:    06200620     . .    DCD    102762016
        0x000070c4:    0c100c10    ....    DCD    202378256
        0x000070c8:    18081808    ....    DCD    403183624
        0x000070cc:    00007c3e    >|..    DCD    31806
        0x000070d0:    00000000    ....    DCD    0
        0x000070d4:    00000000    ....    DCD    0
        0x000070d8:    00000000    ....    DCD    0
        0x000070dc:    00000000    ....    DCD    0
        0x000070e0:    00000000    ....    DCD    0
        0x000070e4:    101c7c7e    ~|..    DCD    270302334
        0x000070e8:    08181018    ....    DCD    135794712
        0x000070ec:    0c300830    0.0.    DCD    204474416
        0x000070f0:    04600470    p.`.    DCD    73401456
        0x000070f4:    02c00260    `...    DCD    46137952
        0x000070f8:    01c002c0    ....    DCD    29360832
        0x000070fc:    01800180    ....    DCD    25166208
        0x00007100:    01800180    ....    DCD    25166208
        0x00007104:    01800180    ....    DCD    25166208
        0x00007108:    01800180    ....    DCD    25166208
        0x0000710c:    000007e0    ....    DCD    2016
        0x00007110:    00000000    ....    DCD    0
        0x00007114:    00000000    ....    DCD    0
        0x00007118:    00000000    ....    DCD    0
        0x0000711c:    00000000    ....    DCD    0
        0x00007120:    00000000    ....    DCD    0
        0x00007124:    18183ff8    .?..    DCD    404242424
        0x00007128:    0c041808    ....    DCD    201594888
        0x0000712c:    06000e04    ....    DCD    100666884
        0x00007130:    03000700    ....    DCD    50333440
        0x00007134:    01800380    ....    DCD    25166720
        0x00007138:    00c001c0    ....    DCD    12583360
        0x0000713c:    006000e0    ..`.    DCD    6291680
        0x00007140:    00300070    p.0.    DCD    3145840
        0x00007144:    20182038    8 .     DCD    538452024
        0x00007148:    180c101c    ....    DCD    403443740
        0x0000714c:    00001ffe    ....    DCD    8190
        0x00007150:    00000000    ....    DCD    0
        0x00007154:    00000000    ....    DCD    0
        0x00007158:    00000000    ....    DCD    0
        0x0000715c:    3fc00000    ...?    DCD    1069547520
        0x00007160:    00400040    @.@.    DCD    4194368
        0x00007164:    00400040    @.@.    DCD    4194368
        0x00007168:    00400040    @.@.    DCD    4194368
        0x0000716c:    00400040    @.@.    DCD    4194368
        0x00007170:    00400040    @.@.    DCD    4194368
        0x00007174:    00400040    @.@.    DCD    4194368
        0x00007178:    00400040    @.@.    DCD    4194368
        0x0000717c:    00400040    @.@.    DCD    4194368
        0x00007180:    00400040    @.@.    DCD    4194368
        0x00007184:    00400040    @.@.    DCD    4194368
        0x00007188:    00400040    @.@.    DCD    4194368
        0x0000718c:    00400040    @.@.    DCD    4194368
        0x00007190:    3fc00040    @..?    DCD    1069547584
        0x00007194:    00000000    ....    DCD    0
        0x00007198:    00000000    ....    DCD    0
        0x0000719c:    00000000    ....    DCD    0
        0x000071a0:    00080000    ....    DCD    524288
        0x000071a4:    00180018    ....    DCD    1572888
        0x000071a8:    00300010    ..0.    DCD    3145744
        0x000071ac:    00600020     .`.    DCD    6291488
        0x000071b0:    00400060    `.@.    DCD    4194400
        0x000071b4:    008000c0    ....    DCD    8388800
        0x000071b8:    01800180    ....    DCD    25166208
        0x000071bc:    03000100    ....    DCD    50331904
        0x000071c0:    06000200    ....    DCD    100663808
        0x000071c4:    04000600    ....    DCD    67110400
        0x000071c8:    08000c00    ....    DCD    134220800
        0x000071cc:    18001800    ....    DCD    402659328
        0x000071d0:    30001000    ...0    DCD    805310464
        0x000071d4:    00002000    . ..    DCD    8192
        0x000071d8:    00000000    ....    DCD    0
        0x000071dc:    03fc0000    ....    DCD    66846720
        0x000071e0:    02000200    ....    DCD    33554944
        0x000071e4:    02000200    ....    DCD    33554944
        0x000071e8:    02000200    ....    DCD    33554944
        0x000071ec:    02000200    ....    DCD    33554944
        0x000071f0:    02000200    ....    DCD    33554944
        0x000071f4:    02000200    ....    DCD    33554944
        0x000071f8:    02000200    ....    DCD    33554944
        0x000071fc:    02000200    ....    DCD    33554944
        0x00007200:    02000200    ....    DCD    33554944
        0x00007204:    02000200    ....    DCD    33554944
        0x00007208:    02000200    ....    DCD    33554944
        0x0000720c:    02000200    ....    DCD    33554944
        0x00007210:    03fc0200    ....    DCD    66847232
        0x00007214:    00000000    ....    DCD    0
        0x00007218:    00000000    ....    DCD    0
        0x0000721c:    07800000    ....    DCD    125829120
        0x00007220:    082006c0    .. .    DCD    136316608
        0x00007224:    00001010    ....    DCD    4112
        0x00007228:    00000000    ....    DCD    0
        0x0000722c:    00000000    ....    DCD    0
        0x00007230:    00000000    ....    DCD    0
        0x00007234:    00000000    ....    DCD    0
        0x00007238:    00000000    ....    DCD    0
        0x0000723c:    00000000    ....    DCD    0
        0x00007240:    00000000    ....    DCD    0
        0x00007244:    00000000    ....    DCD    0
        0x00007248:    00000000    ....    DCD    0
        0x0000724c:    00000000    ....    DCD    0
        0x00007250:    00000000    ....    DCD    0
        0x00007254:    00000000    ....    DCD    0
        0x00007258:    00000000    ....    DCD    0
        0x0000725c:    00000000    ....    DCD    0
        0x00007260:    00000000    ....    DCD    0
        0x00007264:    00000000    ....    DCD    0
        0x00007268:    00000000    ....    DCD    0
        0x0000726c:    00000000    ....    DCD    0
        0x00007270:    00000000    ....    DCD    0
        0x00007274:    00000000    ....    DCD    0
        0x00007278:    00000000    ....    DCD    0
        0x0000727c:    00000000    ....    DCD    0
        0x00007280:    00000000    ....    DCD    0
        0x00007284:    00000000    ....    DCD    0
        0x00007288:    00000000    ....    DCD    0
        0x0000728c:    00000000    ....    DCD    0
        0x00007290:    00000000    ....    DCD    0
        0x00007294:    ffff0000    ....    DCD    4294901760
        0x00007298:    00000000    ....    DCD    0
        0x0000729c:    00780000    ..x.    DCD    7864320
        0x000072a0:    010000c0    ....    DCD    16777408
        0x000072a4:    00000000    ....    DCD    0
        0x000072a8:    00000000    ....    DCD    0
        0x000072ac:    00000000    ....    DCD    0
        0x000072b0:    00000000    ....    DCD    0
        0x000072b4:    00000000    ....    DCD    0
        0x000072b8:    00000000    ....    DCD    0
        0x000072bc:    00000000    ....    DCD    0
        0x000072c0:    00000000    ....    DCD    0
        0x000072c4:    00000000    ....    DCD    0
        0x000072c8:    00000000    ....    DCD    0
        0x000072cc:    00000000    ....    DCD    0
        0x000072d0:    00000000    ....    DCD    0
        0x000072d4:    00000000    ....    DCD    0
        0x000072d8:    00000000    ....    DCD    0
        0x000072dc:    00000000    ....    DCD    0
        0x000072e0:    00000000    ....    DCD    0
        0x000072e4:    00000000    ....    DCD    0
        0x000072e8:    00000000    ....    DCD    0
        0x000072ec:    00000000    ....    DCD    0
        0x000072f0:    03f00000    ....    DCD    66060288
        0x000072f4:    0c0c0618    ....    DCD    202114584
        0x000072f8:    0c000c0c    ....    DCD    201329676
        0x000072fc:    0c700f80    ..p.    DCD    208670592
        0x00007300:    0c0c0c1c    ....    DCD    202116124
        0x00007304:    0c060c06    ....    DCD    201722886
        0x00007308:    4f0c4c06    .L.O    DCD    1326205958
        0x0000730c:    000038f8    .8..    DCD    14584
        0x00007310:    00000000    ....    DCD    0
        0x00007314:    00000000    ....    DCD    0
        0x00007318:    00000000    ....    DCD    0
        0x0000731c:    00000000    ....    DCD    0
        0x00007320:    00100000    ....    DCD    1048576
        0x00007324:    0018001e    ....    DCD    1572894
        0x00007328:    00180018    ....    DCD    1572888
        0x0000732c:    00180018    ....    DCD    1572888
        0x00007330:    0f180018    ....    DCD    253231128
        0x00007334:    303818d8    ..80    DCD    808982744
        0x00007338:    60186038    8`.`    DCD    1612210232
        0x0000733c:    60186018    .`.`    DCD    1612210200
        0x00007340:    60186018    .`.`    DCD    1612210200
        0x00007344:    20186018    .`.     DCD    538468376
        0x00007348:    18783038    80x.    DCD    410529848
        0x0000734c:    000007c8    ....    DCD    1992
        0x00007350:    00000000    ....    DCD    0
        0x00007354:    00000000    ....    DCD    0
        0x00007358:    00000000    ....    DCD    0
        0x0000735c:    00000000    ....    DCD    0
        0x00007360:    00000000    ....    DCD    0
        0x00007364:    00000000    ....    DCD    0
        0x00007368:    00000000    ....    DCD    0
        0x0000736c:    00000000    ....    DCD    0
        0x00007370:    07c00000    ....    DCD    130023424
        0x00007374:    18180c70    p...    DCD    404229232
        0x00007378:    180c1818    ....    DCD    403445784
        0x0000737c:    000c000c    ....    DCD    786444
        0x00007380:    000c000c    ....    DCD    786444
        0x00007384:    2018200c    . .     DCD    538451980
        0x00007388:    08301018    ..0.    DCD    137367576
        0x0000738c:    000007c0    ....    DCD    1984
        0x00007390:    00000000    ....    DCD    0
        0x00007394:    00000000    ....    DCD    0
        0x00007398:    00000000    ....    DCD    0
        0x0000739c:    00000000    ....    DCD    0
        0x000073a0:    10000000    ....    DCD    268435456
        0x000073a4:    18001e00    ....    DCD    402660864
        0x000073a8:    18001800    ....    DCD    402659328
        0x000073ac:    18001800    ....    DCD    402659328
        0x000073b0:    1be01800    ....    DCD    467671040
        0x000073b4:    18181c30    0...    DCD    404233264
        0x000073b8:    180c1818    ....    DCD    403445784
        0x000073bc:    180c180c    ....    DCD    403445772
        0x000073c0:    180c180c    ....    DCD    403445772
        0x000073c4:    1808180c    ....    DCD    403183628
        0x000073c8:    7a301c18    ..0z    DCD    2049973272
        0x000073cc:    000009e0    ....    DCD    2528
        0x000073d0:    00000000    ....    DCD    0
        0x000073d4:    00000000    ....    DCD    0
        0x000073d8:    00000000    ....    DCD    0
        0x000073dc:    00000000    ....    DCD    0
        0x000073e0:    00000000    ....    DCD    0
        0x000073e4:    00000000    ....    DCD    0
        0x000073e8:    00000000    ....    DCD    0
        0x000073ec:    00000000    ....    DCD    0
        0x000073f0:    07c00000    ....    DCD    130023424
        0x000073f4:    18180c30    0...    DCD    404229168
        0x000073f8:    300c1008    ...0    DCD    806096904
        0x000073fc:    3ffc300c    .0.?    DCD    1073491980
        0x00007400:    000c000c    ....    DCD    786444
        0x00007404:    2018000c    ...     DCD    538443788
        0x00007408:    18701018    ..p.    DCD    409997336
        0x0000740c:    000007c0    ....    DCD    1984
        0x00007410:    00000000    ....    DCD    0
        0x00007414:    00000000    ....    DCD    0
        0x00007418:    00000000    ....    DCD    0
        0x0000741c:    00000000    ....    DCD    0
        0x00007420:    00000000    ....    DCD    0
        0x00007424:    c3803e00    .>..    DCD    3279961600
        0x00007428:    c0c0c080    ....    DCD    3233857664
        0x0000742c:    00c000c0    ....    DCD    12583104
        0x00007430:    1ffc00c0    ....    DCD    536608960
        0x00007434:    00c000c0    ....    DCD    12583104
        0x00007438:    00c000c0    ....    DCD    12583104
        0x0000743c:    00c000c0    ....    DCD    12583104
        0x00007440:    00c000c0    ....    DCD    12583104
        0x00007444:    00c000c0    ....    DCD    12583104
        0x00007448:    00c000c0    ....    DCD    12583104
        0x0000744c:    00000ff8    ....    DCD    4088
        0x00007450:    00000000    ....    DCD    0
        0x00007454:    00000000    ....    DCD    0
        0x00007458:    00000000    ....    DCD    0
        0x0000745c:    00000000    ....    DCD    0
        0x00007460:    00000000    ....    DCD    0
        0x00007464:    00000000    ....    DCD    0
        0x00007468:    00000000    ....    DCD    0
        0x0000746c:    00000000    ....    DCD    0
        0x00007470:    77c00000    ...w    DCD    2009071616
        0x00007474:    18106c30    0l..    DCD    403729456
        0x00007478:    18181818    ....    DCD    404232216
        0x0000747c:    18101818    ....    DCD    403707928
        0x00007480:    07f00c30    0...    DCD    133172272
        0x00007484:    00180018    ....    DCD    1572888
        0x00007488:    3ff00ff0    ...?    DCD    1072697328
        0x0000748c:    600c7008    .p.`    DCD    1611427848
        0x00007490:    600c600c    .`.`    DCD    1611423756
        0x00007494:    0fe03838    88..    DCD    266352696
        0x00007498:    00000000    ....    DCD    0
        0x0000749c:    00000000    ....    DCD    0
        0x000074a0:    00100000    ....    DCD    1048576
        0x000074a4:    0018001e    ....    DCD    1572894
        0x000074a8:    00180018    ....    DCD    1572888
        0x000074ac:    00180018    ....    DCD    1572888
        0x000074b0:    0f980018    ....    DCD    261619736
        0x000074b4:    303818d8    ..80    DCD    808982744
        0x000074b8:    30183018    .0.0    DCD    806891544
        0x000074bc:    30183018    .0.0    DCD    806891544
        0x000074c0:    30183018    .0.0    DCD    806891544
        0x000074c4:    30183018    .0.0    DCD    806891544
        0x000074c8:    30183018    .0.0    DCD    806891544
        0x000074cc:    0000fc7e    ~...    DCD    64638
        0x000074d0:    00000000    ....    DCD    0
        0x000074d4:    00000000    ....    DCD    0
        0x000074d8:    00000000    ....    DCD    0
        0x000074dc:    00000000    ....    DCD    0
        0x000074e0:    00000000    ....    DCD    0
        0x000074e4:    03800380    ....    DCD    58721152
        0x000074e8:    00000380    ....    DCD    896
        0x000074ec:    00000000    ....    DCD    0
        0x000074f0:    01f80100    ....    DCD    33030400
        0x000074f4:    01800180    ....    DCD    25166208
        0x000074f8:    01800180    ....    DCD    25166208
        0x000074fc:    01800180    ....    DCD    25166208
        0x00007500:    01800180    ....    DCD    25166208
        0x00007504:    01800180    ....    DCD    25166208
        0x00007508:    01800180    ....    DCD    25166208
        0x0000750c:    00001ff8    ....    DCD    8184
        0x00007510:    00000000    ....    DCD    0
        0x00007514:    00000000    ....    DCD    0
        0x00007518:    00000000    ....    DCD    0
        0x0000751c:    00000000    ....    DCD    0
        0x00007520:    00000000    ....    DCD    0
        0x00007524:    38003800    .8.8    DCD    939538432
        0x00007528:    00003800    .8..    DCD    14336
        0x0000752c:    00000000    ....    DCD    0
        0x00007530:    1f801000    ....    DCD    528486400
        0x00007534:    18001800    ....    DCD    402659328
        0x00007538:    18001800    ....    DCD    402659328
        0x0000753c:    18001800    ....    DCD    402659328
        0x00007540:    18001800    ....    DCD    402659328
        0x00007544:    18001800    ....    DCD    402659328
        0x00007548:    18001800    ....    DCD    402659328
        0x0000754c:    18001800    ....    DCD    402659328
        0x00007550:    0c181800    ....    DCD    202905600
        0x00007554:    03f00618    ....    DCD    66061848
        0x00007558:    00000000    ....    DCD    0
        0x0000755c:    00000000    ....    DCD    0
        0x00007560:    00100000    ....    DCD    1048576
        0x00007564:    0018001e    ....    DCD    1572894
        0x00007568:    00180018    ....    DCD    1572888
        0x0000756c:    00180018    ....    DCD    1572888
        0x00007570:    3e180018    ...>    DCD    1041760280
        0x00007574:    06180c18    ....    DCD    102239256
        0x00007578:    01180318    ....    DCD    18350872
        0x0000757c:    01d80198    ....    DCD    30933400
        0x00007580:    07180338    8...    DCD    119014200
        0x00007584:    0c180618    ....    DCD    202901016
        0x00007588:    18181c18    ....    DCD    404233240
        0x0000758c:    00007c7e    ~|..    DCD    31870
        0x00007590:    00000000    ....    DCD    0
        0x00007594:    00000000    ....    DCD    0
        0x00007598:    00000000    ....    DCD    0
        0x0000759c:    00000000    ....    DCD    0
        0x000075a0:    01000000    ....    DCD    16777216
        0x000075a4:    018001f8    ....    DCD    25166328
        0x000075a8:    01800180    ....    DCD    25166208
        0x000075ac:    01800180    ....    DCD    25166208
        0x000075b0:    01800180    ....    DCD    25166208
        0x000075b4:    01800180    ....    DCD    25166208
        0x000075b8:    01800180    ....    DCD    25166208
        0x000075bc:    01800180    ....    DCD    25166208
        0x000075c0:    01800180    ....    DCD    25166208
        0x000075c4:    01800180    ....    DCD    25166208
        0x000075c8:    01800180    ....    DCD    25166208
        0x000075cc:    00001ff8    ....    DCD    8184
        0x000075d0:    00000000    ....    DCD    0
        0x000075d4:    00000000    ....    DCD    0
        0x000075d8:    00000000    ....    DCD    0
        0x000075dc:    00000000    ....    DCD    0
        0x000075e0:    00000000    ....    DCD    0
        0x000075e4:    00000000    ....    DCD    0
        0x000075e8:    00000000    ....    DCD    0
        0x000075ec:    00000000    ....    DCD    0
        0x000075f0:    1cee0008    ....    DCD    485359624
        0x000075f4:    318c339c    .3.1    DCD    831271836
        0x000075f8:    318c318c    .1.1    DCD    831271308
        0x000075fc:    318c318c    .1.1    DCD    831271308
        0x00007600:    318c318c    .1.1    DCD    831271308
        0x00007604:    318c318c    .1.1    DCD    831271308
        0x00007608:    318c318c    .1.1    DCD    831271308
        0x0000760c:    00007bde    .{..    DCD    31710
        0x00007610:    00000000    ....    DCD    0
        0x00007614:    00000000    ....    DCD    0
        0x00007618:    00000000    ....    DCD    0
        0x0000761c:    00000000    ....    DCD    0
        0x00007620:    00000000    ....    DCD    0
        0x00007624:    00000000    ....    DCD    0
        0x00007628:    00000000    ....    DCD    0
        0x0000762c:    00000000    ....    DCD    0
        0x00007630:    0f1e0010    ....    DCD    253624336
        0x00007634:    303818d8    ..80    DCD    808982744
        0x00007638:    30183018    .0.0    DCD    806891544
        0x0000763c:    30183018    .0.0    DCD    806891544
        0x00007640:    30183018    .0.0    DCD    806891544
        0x00007644:    30183018    .0.0    DCD    806891544
        0x00007648:    30183018    .0.0    DCD    806891544
        0x0000764c:    0000fc7e    ~...    DCD    64638
        0x00007650:    00000000    ....    DCD    0
        0x00007654:    00000000    ....    DCD    0
        0x00007658:    00000000    ....    DCD    0
        0x0000765c:    00000000    ....    DCD    0
        0x00007660:    00000000    ....    DCD    0
        0x00007664:    00000000    ....    DCD    0
        0x00007668:    00000000    ....    DCD    0
        0x0000766c:    00000000    ....    DCD    0
        0x00007670:    07c00000    ....    DCD    130023424
        0x00007674:    30101c70    p..0    DCD    806362224
        0x00007678:    600c3018    .0.`    DCD    1611411480
        0x0000767c:    600c600c    .`.`    DCD    1611423756
        0x00007680:    600c600c    .`.`    DCD    1611423756
        0x00007684:    3018600c    .`.0    DCD    806903820
        0x00007688:    18303018    .00.    DCD    405811224
        0x0000768c:    000007c0    ....    DCD    1984
        0x00007690:    00000000    ....    DCD    0
        0x00007694:    00000000    ....    DCD    0
        0x00007698:    00000000    ....    DCD    0
        0x0000769c:    00000000    ....    DCD    0
        0x000076a0:    00000000    ....    DCD    0
        0x000076a4:    00000000    ....    DCD    0
        0x000076a8:    00000000    ....    DCD    0
        0x000076ac:    00000000    ....    DCD    0
        0x000076b0:    0f9e0010    ....    DCD    262012944
        0x000076b4:    30381858    X.80    DCD    808982616
        0x000076b8:    60182018    . .`    DCD    1612193816
        0x000076bc:    60186018    .`.`    DCD    1612210200
        0x000076c0:    60186018    .`.`    DCD    1612210200
        0x000076c4:    30186018    .`.0    DCD    806903832
        0x000076c8:    18783038    80x.    DCD    410529848
        0x000076cc:    00180798    ....    DCD    1574808
        0x000076d0:    00180018    ....    DCD    1572888
        0x000076d4:    007e0018    ..~.    DCD    8257560
        0x000076d8:    00000000    ....    DCD    0
        0x000076dc:    00000000    ....    DCD    0
        0x000076e0:    00000000    ....    DCD    0
        0x000076e4:    00000000    ....    DCD    0
        0x000076e8:    00000000    ....    DCD    0
        0x000076ec:    00000000    ....    DCD    0
        0x000076f0:    23c00000    ...#    DCD    599785472
        0x000076f4:    38183c30    0<.8    DCD    941112368
        0x000076f8:    300c3018    .0.0    DCD    806105112
        0x000076fc:    300c300c    .0.0    DCD    806105100
        0x00007700:    300c300c    .0.0    DCD    806105100
        0x00007704:    3008300c    .0.0    DCD    805842956
        0x00007708:    3c303818    .80<    DCD    1009793048
        0x0000770c:    300033e0    .3.0    DCD    805319648
        0x00007710:    30003000    .0.0    DCD    805318656
        0x00007714:    fc003000    .0..    DCD    4227870720
        0x00007718:    00000000    ....    DCD    0
        0x0000771c:    00000000    ....    DCD    0
        0x00007720:    00000000    ....    DCD    0
        0x00007724:    00000000    ....    DCD    0
        0x00007728:    00000000    ....    DCD    0
        0x0000772c:    00000000    ....    DCD    0
        0x00007730:    3c7e0060    `.~<    DCD    1014890592
        0x00007734:    61606660    `f`a    DCD    1633707616
        0x00007738:    00e000e0    ....    DCD    14680288
        0x0000773c:    00600060    `.`.    DCD    6291552
        0x00007740:    00600060    `.`.    DCD    6291552
        0x00007744:    00600060    `.`.    DCD    6291552
        0x00007748:    00600060    `.`.    DCD    6291552
        0x0000774c:    000007fe    ....    DCD    2046
        0x00007750:    00000000    ....    DCD    0
        0x00007754:    00000000    ....    DCD    0
        0x00007758:    00000000    ....    DCD    0
        0x0000775c:    00000000    ....    DCD    0
        0x00007760:    00000000    ....    DCD    0
        0x00007764:    00000000    ....    DCD    0
        0x00007768:    00000000    ....    DCD    0
        0x0000776c:    00000000    ....    DCD    0
        0x00007770:    27e00000    ...'    DCD    668991488
        0x00007774:    30183830    08.0    DCD    806893616
        0x00007778:    00182018    . ..    DCD    1581080
        0x0000777c:    03e00070    p...    DCD    65011824
        0x00007780:    1c000f80    ....    DCD    469766016
        0x00007784:    30043004    .0.0    DCD    805580804
        0x00007788:    181c300c    .0..    DCD    404500492
        0x0000778c:    00000fec    ....    DCD    4076
        0x00007790:    00000000    ....    DCD    0
        0x00007794:    00000000    ....    DCD    0
        0x00007798:    00000000    ....    DCD    0
        0x0000779c:    00000000    ....    DCD    0
        0x000077a0:    00000000    ....    DCD    0
        0x000077a4:    00000000    ....    DCD    0
        0x000077a8:    00800080    ....    DCD    8388736
        0x000077ac:    00c00080    ....    DCD    12583040
        0x000077b0:    1ffc00e0    ....    DCD    536608992
        0x000077b4:    00c000c0    ....    DCD    12583104
        0x000077b8:    00c000c0    ....    DCD    12583104
        0x000077bc:    00c000c0    ....    DCD    12583104
        0x000077c0:    00c000c0    ....    DCD    12583104
        0x000077c4:    20c000c0    ...     DCD    549454016
        0x000077c8:    118020c0    . ..    DCD    293609664
        0x000077cc:    00000f00    ....    DCD    3840
        0x000077d0:    00000000    ....    DCD    0
        0x000077d4:    00000000    ....    DCD    0
        0x000077d8:    00000000    ....    DCD    0
        0x000077dc:    00000000    ....    DCD    0
        0x000077e0:    00000000    ....    DCD    0
        0x000077e4:    00000000    ....    DCD    0
        0x000077e8:    00000000    ....    DCD    0
        0x000077ec:    00000000    ....    DCD    0
        0x000077f0:    3c1e2010    . .<    DCD    1008607248
        0x000077f4:    30183018    .0.0    DCD    806891544
        0x000077f8:    30183018    .0.0    DCD    806891544
        0x000077fc:    30183018    .0.0    DCD    806891544
        0x00007800:    30183018    .0.0    DCD    806891544
        0x00007804:    30183018    .0.0    DCD    806891544
        0x00007808:    f4303818    .80.    DCD    4096800792
        0x0000780c:    000013e0    ....    DCD    5088
        0x00007810:    00000000    ....    DCD    0
        0x00007814:    00000000    ....    DCD    0
        0x00007818:    00000000    ....    DCD    0
        0x0000781c:    00000000    ....    DCD    0
        0x00007820:    00000000    ....    DCD    0
        0x00007824:    00000000    ....    DCD    0
        0x00007828:    00000000    ....    DCD    0
        0x0000782c:    00000000    ....    DCD    0
        0x00007830:    3c7e0000    ..~<    DCD    1014890496
        0x00007834:    08181818    ....    DCD    135796760
        0x00007838:    04300838    8.0.    DCD    70256696
        0x0000783c:    02700430    0.p.    DCD    40895536
        0x00007840:    02600260    `.`.    DCD    39846496
        0x00007844:    01c001e0    ....    DCD    29360608
        0x00007848:    00c001c0    ....    DCD    12583360
        0x0000784c:    00000080    ....    DCD    128
        0x00007850:    00000000    ....    DCD    0
        0x00007854:    00000000    ....    DCD    0
        0x00007858:    00000000    ....    DCD    0
        0x0000785c:    00000000    ....    DCD    0
        0x00007860:    00000000    ....    DCD    0
        0x00007864:    00000000    ....    DCD    0
        0x00007868:    00000000    ....    DCD    0
        0x0000786c:    00000000    ....    DCD    0
        0x00007870:    f7df0000    ....    DCD    4158586880
        0x00007874:    230c638e    .c.#    DCD    588014478
        0x00007878:    238c238c    .#.#    DCD    596386700
        0x0000787c:    13981398    ....    DCD    328733592
        0x00007880:    16581658    X.X.    DCD    374871640
        0x00007884:    0e700e70    p.p.    DCD    242224752
        0x00007888:    04200e70    p. .    DCD    69209712
        0x0000788c:    00000420     ...    DCD    1056
        0x00007890:    00000000    ....    DCD    0
        0x00007894:    00000000    ....    DCD    0
        0x00007898:    00000000    ....    DCD    0
        0x0000789c:    00000000    ....    DCD    0
        0x000078a0:    00000000    ....    DCD    0
        0x000078a4:    00000000    ....    DCD    0
        0x000078a8:    00000000    ....    DCD    0
        0x000078ac:    00000000    ....    DCD    0
        0x000078b0:    3efc0000    ...>    DCD    1056702464
        0x000078b4:    04700870    p.p.    DCD    74451056
        0x000078b8:    02c004e0    ....    DCD    46138592
        0x000078bc:    038001c0    ....    DCD    58720704
        0x000078c0:    07400380    ..@.    DCD    121635712
        0x000078c4:    0c200660    `. .    DCD    203425376
        0x000078c8:    18180c10    ....    DCD    404229136
        0x000078cc:    00007e3e    >~..    DCD    32318
        0x000078d0:    00000000    ....    DCD    0
        0x000078d4:    00000000    ....    DCD    0
        0x000078d8:    00000000    ....    DCD    0
        0x000078dc:    00000000    ....    DCD    0
        0x000078e0:    00000000    ....    DCD    0
        0x000078e4:    00000000    ....    DCD    0
        0x000078e8:    00000000    ....    DCD    0
        0x000078ec:    00000000    ....    DCD    0
        0x000078f0:    7c7e0000    ..~|    DCD    2088632320
        0x000078f4:    08181818    ....    DCD    135796760
        0x000078f8:    08300830    0.0.    DCD    137365552
        0x000078fc:    04600430    0.`.    DCD    73401392
        0x00007900:    02c00460    `...    DCD    46138464
        0x00007904:    02c002c0    ....    DCD    46138048
        0x00007908:    01800180    ....    DCD    25166208
        0x0000790c:    00800180    ....    DCD    8388992
        0x00007910:    00800080    ....    DCD    8388736
        0x00007914:    003c004c    L.<.    DCD    3932236
        0x00007918:    00000000    ....    DCD    0
        0x0000791c:    00000000    ....    DCD    0
        0x00007920:    00000000    ....    DCD    0
        0x00007924:    00000000    ....    DCD    0
        0x00007928:    00000000    ....    DCD    0
        0x0000792c:    00000000    ....    DCD    0
        0x00007930:    1ffc0000    ....    DCD    536608768
        0x00007934:    0e040c0c    ....    DCD    235146252
        0x00007938:    03000604    ....    DCD    50333188
        0x0000793c:    01800380    ....    DCD    25166720
        0x00007940:    00e000c0    ....    DCD    14680256
        0x00007944:    20302070    p 0     DCD    540024944
        0x00007948:    181c3038    80..    DCD    404500536
        0x0000794c:    00001ffc    ....    DCD    8188
        0x00007950:    00000000    ....    DCD    0
        0x00007954:    00000000    ....    DCD    0
        0x00007958:    00000000    ....    DCD    0
        0x0000795c:    30000000    ...0    DCD    805306368
        0x00007960:    04000800    ....    DCD    67110912
        0x00007964:    04000400    ....    DCD    67109888
        0x00007968:    04000400    ....    DCD    67109888
        0x0000796c:    04000400    ....    DCD    67109888
        0x00007970:    04000400    ....    DCD    67109888
        0x00007974:    02000400    ....    DCD    33555456
        0x00007978:    02000180    ....    DCD    33554816
        0x0000797c:    04000400    ....    DCD    67109888
        0x00007980:    04000400    ....    DCD    67109888
        0x00007984:    04000400    ....    DCD    67109888
        0x00007988:    04000400    ....    DCD    67109888
        0x0000798c:    04000400    ....    DCD    67109888
        0x00007990:    08000400    ....    DCD    134218752
        0x00007994:    00003000    .0..    DCD    12288
        0x00007998:    01000100    ....    DCD    16777472
        0x0000799c:    01000100    ....    DCD    16777472
        0x000079a0:    01000100    ....    DCD    16777472
        0x000079a4:    01000100    ....    DCD    16777472
        0x000079a8:    01000100    ....    DCD    16777472
        0x000079ac:    01000100    ....    DCD    16777472
        0x000079b0:    01000100    ....    DCD    16777472
        0x000079b4:    01000100    ....    DCD    16777472
        0x000079b8:    01000100    ....    DCD    16777472
        0x000079bc:    01000100    ....    DCD    16777472
        0x000079c0:    01000100    ....    DCD    16777472
        0x000079c4:    01000100    ....    DCD    16777472
        0x000079c8:    01000100    ....    DCD    16777472
        0x000079cc:    01000100    ....    DCD    16777472
        0x000079d0:    01000100    ....    DCD    16777472
        0x000079d4:    01000100    ....    DCD    16777472
        0x000079d8:    00000000    ....    DCD    0
        0x000079dc:    000c0000    ....    DCD    786432
        0x000079e0:    00200010    .. .    DCD    2097168
        0x000079e4:    00200020     . .    DCD    2097184
        0x000079e8:    00200020     . .    DCD    2097184
        0x000079ec:    00200020     . .    DCD    2097184
        0x000079f0:    00200020     . .    DCD    2097184
        0x000079f4:    00400020     .@.    DCD    4194336
        0x000079f8:    00400180    ..@.    DCD    4194688
        0x000079fc:    00200020     . .    DCD    2097184
        0x00007a00:    00200020     . .    DCD    2097184
        0x00007a04:    00200020     . .    DCD    2097184
        0x00007a08:    00200020     . .    DCD    2097184
        0x00007a0c:    00200020     . .    DCD    2097184
        0x00007a10:    00100020     ...    DCD    1048608
        0x00007a14:    0000000c    ....    DCD    12
        0x00007a18:    00380000    ..8.    DCD    3670016
        0x00007a1c:    408600c4    ...@    DCD    1082523844
        0x00007a20:    22006102    .a."    DCD    570450178
        0x00007a24:    00001c00    ....    DCD    7168
        0x00007a28:    00000000    ....    DCD    0
        0x00007a2c:    00000000    ....    DCD    0
        0x00007a30:    00000000    ....    DCD    0
        0x00007a34:    00000000    ....    DCD    0
        0x00007a38:    00000000    ....    DCD    0
        0x00007a3c:    00000000    ....    DCD    0
        0x00007a40:    00000000    ....    DCD    0
        0x00007a44:    00000000    ....    DCD    0
        0x00007a48:    00000000    ....    DCD    0
        0x00007a4c:    00000000    ....    DCD    0
        0x00007a50:    00000000    ....    DCD    0
        0x00007a54:    00000000    ....    DCD    0
    .constdata
    fdiv_tab
        0x00007a58:    84838281    ....    DCD    2223211137
        0x00007a5c:    88878685    ....    DCD    2290583173
        0x00007a60:    8d8c8b89    ....    DCD    2374798217
        0x00007a64:    92918f8e    ....    DCD    2459013006
        0x00007a68:    97969593    ....    DCD    2543228307
        0x00007a6c:    9d9c9a99    ....    DCD    2644286105
        0x00007a70:    a3a2a09f    ....    DCD    2745344159
        0x00007a74:    aaa8a7a5    ....    DCD    2863179685
        0x00007a78:    b2b0aeac    ....    DCD    2997923500
        0x00007a7c:    b9b7b5b3    ....    DCD    3115824563
        0x00007a80:    c2c0bebc    ....    DCD    3267411644
        0x00007a84:    ccc9c7c5    ....    DCD    3435775941
        0x00007a88:    d7d4d1ce    ....    DCD    3621048782
        0x00007a8c:    e2dfdcd9    ....    DCD    3806321881
        0x00007a90:    f0ece9e6    ....    DCD    4042058214
        0x00007a94:    fefaf7f3    ....    DCD    4277860339
    .constdata
    tenpwrs_x
        0x00007a98:    00004002    .@..    DCD    16386
        0x00007a9c:    a0000000    ....    DCD    2684354560
        0x00007aa0:    00000000    ....    DCD    0
        0x00007aa4:    00004005    .@..    DCD    16389
        0x00007aa8:    c8000000    ....    DCD    3355443200
        0x00007aac:    00000000    ....    DCD    0
        0x00007ab0:    0000400c    .@..    DCD    16396
        0x00007ab4:    9c400000    ..@.    DCD    2621440000
        0x00007ab8:    00000000    ....    DCD    0
        0x00007abc:    00004019    .@..    DCD    16409
        0x00007ac0:    bebc2000    . ..    DCD    3200000000
        0x00007ac4:    00000000    ....    DCD    0
        0x00007ac8:    00004034    4@..    DCD    16436
        0x00007acc:    8e1bc9bf    ....    DCD    2384185791
        0x00007ad0:    04000000    ....    DCD    67108864
    tenpwrs_i
        0x00007ad4:    000040b5    .@..    DCD    16565
        0x00007ad8:    d0cf4b50    PK..    DCD    3503246160
        0x00007adc:    cfe20766    f...    DCD    3487696742
        0x00007ae0:    00000001    ....    DCD    1
        0x00007ae4:    0000416c    lA..    DCD    16748
        0x00007ae8:    aa51823e    >.Q.    DCD    2857468478
        0x00007aec:    34a7eedf    ...4    DCD    883420895
        0x00007af0:    00000001    ....    DCD    1
        0x00007af4:    000042d9    .B..    DCD    17113
        0x00007af8:    e2a0b5dc    ....    DCD    3802183132
        0x00007afc:    971f303a    :0..    DCD    2535403578
        0x00007b00:    ffffffff    ....    DCD    4294967295
        0x00007b04:    000045b4    .E..    DCD    17844
        0x00007b08:    c8a025fd    .%..    DCD    3365938685
        0x00007b0c:    4fc1a3e9    ...O    DCD    1338090473
        0x00007b10:    ffffffff    ....    DCD    4294967295
        0x00007b14:    00003fff    .?..    DCD    16383
        0x00007b18:    80000000    ....    DCD    2147483648
        0x00007b1c:    00000000    ....    DCD    0
        0x00007b20:    00003fff    .?..    DCD    16383
        0x00007b24:    80000000    ....    DCD    2147483648
        0x00007b28:    00000000    ....    DCD    0
    Region$$Table$$Base
        0x00007b2c:    00007b68    h{..    DCD    31592
        0x00007b30:    20000000    ...     DCD    536870912
        0x00007b34:    00000038    8...    DCD    56
        0x00007b38:    000000ec    ....    DCD    236
        0x00007b3c:    00007ba0    .{..    DCD    31648
        0x00007b40:    20000038    8..     DCD    536870968
        0x00007b44:    00000768    h...    DCD    1896
        0x00007b48:    00000108    ....    DCD    264
    locale$$data
    Region$$Table$$Limit
        0x00007b4c:    0000001c    ....    DCD    28
    __lcnum_c_name
        0x00007b50:    00000043    C...    DCD    67
        0x00007b54:    fffffff8    ....    DCD    4294967288
    __lcnum_c_start
        0x00007b58:    0000000c    ....    DCD    12
        0x00007b5c:    0000000e    ....    DCD    14
        0x00007b60:    0000000f    ....    DCD    15
    __lcnum_c_point
        0x00007b64:    002e        ..      DCW    46
    __lcnum_c_thousands
        0x00007b66:    00          .       DCB    0
    __lcnum_c_grouping
        0x00007b67:    00          .       DCB    0
    __lcnum_c_end

====================================

** Section #2

    Name        : RW_IRAM1
    Type        : SHT_PROGBITS (0x00000001)
    Flags       : SHF_ALLOC + SHF_WRITE (0x00000003)
    Addr        : 0x20000000
    File Offset : 31644 (0x7b9c)
    Size        : 56 bytes (0x38)
    Link        : SHN_UNDEF
    Info        : 0
    Alignment   : 4
    Entry Size  : 0


====================================

** Section #3

    Name        : RW_IRAM1
    Type        : SHT_NOBITS (0x00000008)
    Flags       : SHF_ALLOC + SHF_WRITE (0x00000003)
    Addr        : 0x20000038
    File Offset : 31700 (0x7bd4)
    Size        : 1896 bytes (0x768)
    Link        : SHN_UNDEF
    Info        : 0
    Alignment   : 8
    Entry Size  : 0


====================================

** Section #4

    Name        : .debug_abbrev
    Type        : SHT_PROGBITS (0x00000001)
    Flags       : None (0x00000000)
    Addr        : 0x00000000
    File Offset : 31700 (0x7bd4)
    Size        : 1476 bytes (0x5c4)
    Link        : SHN_UNDEF
    Info        : 0
    Alignment   : 1
    Entry Size  : 0


====================================

** Section #5

    Name        : .debug_frame
    Type        : SHT_PROGBITS (0x00000001)
    Flags       : None (0x00000000)
    Addr        : 0x00000000
    File Offset : 33176 (0x8198)
    Size        : 3640 bytes (0xe38)
    Link        : SHN_UNDEF
    Info        : 0
    Alignment   : 1
    Entry Size  : 0


====================================

** Section #6

    Name        : .debug_info
    Type        : SHT_PROGBITS (0x00000001)
    Flags       : None (0x00000000)
    Addr        : 0x00000000
    File Offset : 36816 (0x8fd0)
    Size        : 27900 bytes (0x6cfc)
    Link        : SHN_UNDEF
    Info        : 0
    Alignment   : 1
    Entry Size  : 0


====================================

** Section #7

    Name        : .debug_line
    Type        : SHT_PROGBITS (0x00000001)
    Flags       : None (0x00000000)
    Addr        : 0x00000000
    File Offset : 64716 (0xfccc)
    Size        : 14268 bytes (0x37bc)
    Link        : SHN_UNDEF
    Info        : 0
    Alignment   : 1
    Entry Size  : 0


====================================

** Section #8

    Name        : .debug_loc
    Type        : SHT_PROGBITS (0x00000001)
    Flags       : None (0x00000000)
    Addr        : 0x00000000
    File Offset : 78984 (0x13488)
    Size        : 7028 bytes (0x1b74)
    Link        : SHN_UNDEF
    Info        : 0
    Alignment   : 1
    Entry Size  : 0


====================================

** Section #9

    Name        : .debug_macinfo
    Type        : SHT_PROGBITS (0x00000001)
    Flags       : None (0x00000000)
    Addr        : 0x00000000
    File Offset : 86012 (0x14ffc)
    Size        : 34532 bytes (0x86e4)
    Link        : SHN_UNDEF
    Info        : 0
    Alignment   : 1
    Entry Size  : 0


====================================

** Section #10

    Name        : .debug_pubnames
    Type        : SHT_PROGBITS (0x00000001)
    Flags       : None (0x00000000)
    Addr        : 0x00000000
    File Offset : 120544 (0x1d6e0)
    Size        : 2991 bytes (0xbaf)
    Link        : SHN_UNDEF
    Info        : 0
    Alignment   : 1
    Entry Size  : 0


====================================

** Section #11

    Name        : .symtab
    Type        : SHT_SYMTAB (0x00000002)
    Flags       : None (0x00000000)
    Addr        : 0x00000000
    File Offset : 123536 (0x1e290)
    Size        : 12160 bytes (0x2f80)
    Link        : Section 12 (.strtab)
    Info        : Last local symbol no = 499
    Alignment   : 4
    Entry Size  : 16


====================================

** Section #12

    Name        : .strtab
    Type        : SHT_STRTAB (0x00000003)
    Flags       : None (0x00000000)
    Addr        : 0x00000000
    File Offset : 135696 (0x21210)
    Size        : 9424 bytes (0x24d0)
    Link        : SHN_UNDEF
    Info        : 0
    Alignment   : 1
    Entry Size  : 0


====================================

** Section #13

    Name        : .note
    Type        : SHT_NOTE (0x00000007)
    Flags       : None (0x00000000)
    Addr        : 0x00000000
    File Offset : 145120 (0x236e0)
    Size        : 28 bytes (0x1c)
    Link        : SHN_UNDEF
    Info        : 0
    Alignment   : 4
    Entry Size  : 0

        Section     Segment
    ====================================

              1           0
              2           0
              3           0

====================================

** Section #14

    Name        : .comment
    Type        : SHT_PROGBITS (0x00000001)
    Flags       : None (0x00000000)
    Addr        : 0x00000000
    File Offset : 145148 (0x236fc)
    Size        : 20480 bytes (0x5000)
    Link        : SHN_UNDEF
    Info        : 0
    Alignment   : 1
    Entry Size  : 0

    Component: ARM Compiler 5.06 update 7 (build 960) Tool: armlink [4d3601]
    ArmLink --strict --callgraph --load_addr_map_info --map --symbols --xref --diag_suppress=9931 --cpu=Cortex-M0 --list=.\Listings\hello.map --output=.\Objects\hello.axf --scatter=.\Objects\hello.sct --info=summarysizes,sizes,totals,unused,veneers

    D:\SOFTWARE_PRUDUCT\MDKARM\ARM\ARMCC\Bin\..\lib\armlib\c_p.l
    D:\SOFTWARE_PRUDUCT\MDKARM\ARM\ARMCC\Bin\..\lib\armlib\fz_ps.l
    D:\SOFTWARE_PRUDUCT\MDKARM\ARM\ARMCC\Bin\..\lib\armlib\h_p.l
    D:\SOFTWARE_PRUDUCT\MDKARM\ARM\ARMCC\Bin\..\lib\armlib\m_ps.l
    D:\SOFTWARE_PRUDUCT\MDKARM\ARM\ARMCC\Bin\..\lib\armlib\vfpsupport.l
    Input Comments:
    
    startup_meteo.o
    
    Component: ARM Compiler 5.06 update 7 (build 960) Tool: armasm [4d35fa]
    ArmAsm --debug --xref --diag_suppress=9931 --cpu=Cortex-M0 --apcs=interwork --depend=.\objects\startup_meteo.d  -I..\cmsis\Device\meteo\Include -I.\RTE\_Target_1 -ID:\SOFTWARE_PRUDUCT\MDKARM\Packs\ARM\CMSIS\5.9.0\CMSIS\Core\Include -ID
    
    
    led.o
    
    Component: ARM Compiler 5.06 update 7 (build 960) Tool: armlink [4d3601]
    armlink --partial --no_add_relocs_to_undefined --no_generate_mapping_symbols --diag_suppress=9931,9931,6642 --cpu=Cortex-M0 --fpu=SoftVFP --output=.\objects\led.o --vfemode=force

    Input Comments:
    
    p1570-3
    
    Component: ARM Compiler 5.06 update 7 (build 960) Tool: armasm [4d35fa]
    armasm --debug --diag_suppress=9931,9931,1602,1073 --cpu=Cortex-M0 --fpu=SoftVFP --apcs=/interwork/interwork --no_divide 
    led.o
    
    Component: ARM Compiler 5.06 update 7 (build 960) Tool: ArmCC [4d365d]
    ArmCC --split_sections --debug -c -o.\objects\led.o --depend=.\objects\led.d --cpu=Cortex-M0 --apcs=interwork -O1 --diag_suppress=9931 -I..\cmsis\CMSIS\Include -I..\cmsis\Device\meteo\Include -I..\hello\Include -I..\hardware\IIC -I..\hardware\MSI001 -I..\hardware\QN8027 -I..\sys\delay -I..\hardware\SYS -I..\hardware\SYS -I..\sys\system_gpio -I..\sys\system_gpio -I..\sys\cmsdk_drive -I..\sys\system_usart -I..\sys\system_usart -I..\hardware\Nixie_tube -I..\hardware\KEYBOARD -I..\hardware\OLED -I..\hardware\AT24Cxx -I..\hardware\LCD -I.\RTE\_Target_1 -ID:\SOFTWARE_PRUDUCT\MDKARM\Packs\ARM\CMSIS\5.9.0\CMSIS\Core\Include -ID:\SOFTWARE_PRUDUCT\MDKARM\Packs\ARM\CMSIS\5.9.0\Device\ARM\ARMCM0\Include -D__UVISION_VERSION=537 -D_RTE_ -DARMCM0 -D_RTE_ --omf_browse=.\objects\led.crf ..\hello\Source\LED.c
    
    
    
    main.o
    
    Component: ARM Compiler 5.06 update 7 (build 960) Tool: armlink [4d3601]
    armlink --partial --no_add_relocs_to_undefined --no_generate_mapping_symbols --diag_suppress=9931,9931,6642 --cpu=Cortex-M0 --fpu=SoftVFP --output=.\objects\main.o --vfemode=force

    Input Comments:
    
    p8b4-3
    
    Component: ARM Compiler 5.06 update 7 (build 960) Tool: armasm [4d35fa]
    armasm --debug --diag_suppress=9931,9931,1602,1073 --cpu=Cortex-M0 --fpu=SoftVFP --apcs=/interwork/interwork --no_divide 
    main.o
    
    Component: ARM Compiler 5.06 update 7 (build 960) Tool: ArmCC [4d365d]
    ArmCC --split_sections --debug -c -o.\objects\main.o --depend=.\objects\main.d --cpu=Cortex-M0 --apcs=interwork -O1 --diag_suppress=9931 -I..\cmsis\CMSIS\Include -I..\cmsis\Device\meteo\Include -I..\hello\Include -I..\hardware\IIC -I..\hardware\MSI001 -I..\hardware\QN8027 -I..\sys\delay -I..\hardware\SYS -I..\hardware\SYS -I..\sys\system_gpio -I..\sys\system_gpio -I..\sys\cmsdk_drive -I..\sys\system_usart -I..\sys\system_usart -I..\hardware\Nixie_tube -I..\hardware\KEYBOARD -I..\hardware\OLED -I..\hardware\AT24Cxx -I..\hardware\LCD -I.\RTE\_Target_1 -ID:\SOFTWARE_PRUDUCT\MDKARM\Packs\ARM\CMSIS\5.9.0\CMSIS\Core\Include -ID:\SOFTWARE_PRUDUCT\MDKARM\Packs\ARM\CMSIS\5.9.0\Device\ARM\ARMCM0\Include -D__UVISION_VERSION=537 -D_RTE_ -DARMCM0 -D_RTE_ --omf_browse=.\objects\main.crf ..\hello\Source\main.c
    
    
    system_meteo.o
    
    Component: ARM Compiler 5.06 update 7 (build 960) Tool: armlink [4d3601]
    armlink --partial --no_add_relocs_to_undefined --no_generate_mapping_symbols --diag_suppress=9931,9931,6642 --cpu=Cortex-M0 --fpu=SoftVFP --output=.\objects\system_meteo.o --vfemode=force

    Input Comments:
    
    p1814-3
    
    Component: ARM Compiler 5.06 update 7 (build 960) Tool: armasm [4d35fa]
    armasm --debug --diag_suppress=9931,9931,1602,1073 --cpu=Cortex-M0 --fpu=SoftVFP --apcs=/interwork/interwork --no_divide 
    system_meteo.o
    
    Component: ARM Compiler 5.06 update 7 (build 960) Tool: ArmCC [4d365d]
    ArmCC --split_sections --debug -c -o.\objects\system_meteo.o --depend=.\objects\system_meteo.d --cpu=Cortex-M0 --apcs=interwork -O1 --diag_suppress=9931 -I..\cmsis\CMSIS\Include -I..\cmsis\Device\meteo\Include -I..\hello\Include -I..\hardware\IIC -I..\hardware\MSI001 -I..\hardware\QN8027 -I..\sys\delay -I..\hardware\SYS -I..\hardware\SYS -I..\sys\system_gpio -I..\sys\system_gpio -I..\sys\cmsdk_drive -I..\sys\system_usart -I..\sys\system_usart -I..\hardware\Nixie_tube -I..\hardware\KEYBOARD -I..\hardware\OLED -I..\hardware\AT24Cxx -I..\hardware\LCD -I.\RTE\_Target_1 -ID:\SOFTWARE_PRUDUCT\MDKARM\Packs\ARM\CMSIS\5.9.0\CMSIS\Core\Include -ID:\SOFTWARE_PRUDUCT\MDKARM\Packs\ARM\CMSIS\5.9.0\Device\ARM\ARMCM0\Include -D__UVISION_VERSION=537 -D_RTE_ -DARMCM0 -D_RTE_ --omf_browse=.\objects\system_meteo.crf ..\cmsis\Device\meteo\Source\system_meteo.c
    
    
    
    
    system_gpio.o
    
    Component: ARM Compiler 5.06 update 7 (build 960) Tool: armlink [4d3601]
    armlink --partial --no_add_relocs_to_undefined --no_generate_mapping_symbols --diag_suppress=9931,9931,6642 --cpu=Cortex-M0 --fpu=SoftVFP --output=.\objects\system_gpio.o --vfemode=force

    Input Comments:
    
    p1c8c-3
    
    Component: ARM Compiler 5.06 update 7 (build 960) Tool: armasm [4d35fa]
    armasm --debug --diag_suppress=9931,9931,1602,1073 --cpu=Cortex-M0 --fpu=SoftVFP --apcs=/interwork/interwork --no_divide 
    system_gpio.o
    
    Component: ARM Compiler 5.06 update 7 (build 960) Tool: ArmCC [4d365d]
    ArmCC --split_sections --debug -c -o.\objects\system_gpio.o --depend=.\objects\system_gpio.d --cpu=Cortex-M0 --apcs=interwork -O1 --diag_suppress=9931 -I..\cmsis\CMSIS\Include -I..\cmsis\Device\meteo\Include -I..\hello\Include -I..\hardware\IIC -I..\hardware\MSI001 -I..\hardware\QN8027 -I..\sys\delay -I..\hardware\SYS -I..\hardware\SYS -I..\sys\system_gpio -I..\sys\system_gpio -I..\sys\cmsdk_drive -I..\sys\system_usart -I..\sys\system_usart -I..\hardware\Nixie_tube -I..\hardware\KEYBOARD -I..\hardware\OLED -I..\hardware\AT24Cxx -I..\hardware\LCD -I.\RTE\_Target_1 -ID:\SOFTWARE_PRUDUCT\MDKARM\Packs\ARM\CMSIS\5.9.0\CMSIS\Core\Include -ID:\SOFTWARE_PRUDUCT\MDKARM\Packs\ARM\CMSIS\5.9.0\Device\ARM\ARMCM0\Include -D__UVISION_VERSION=537 -D_RTE_ -DARMCM0 -D_RTE_ --omf_browse=.\objects\system_gpio.crf ..\sys\system_gpio\system_gpio.c
    
    
    
    
    system_usart.o
    
    Component: ARM Compiler 5.06 update 7 (build 960) Tool: armlink [4d3601]
    armlink --partial --no_add_relocs_to_undefined --no_generate_mapping_symbols --diag_suppress=9931,9931,6642 --cpu=Cortex-M0 --fpu=SoftVFP --output=.\objects\system_usart.o --vfemode=force

    Input Comments:
    
    p1d1c-3
    
    Component: ARM Compiler 5.06 update 7 (build 960) Tool: armasm [4d35fa]
    armasm --debug --diag_suppress=9931,9931,1602,1073 --cpu=Cortex-M0 --fpu=SoftVFP --apcs=/interwork/interwork --no_divide 
    system_usart.o
    
    Component: ARM Compiler 5.06 update 7 (build 960) Tool: ArmCC [4d365d]
    ArmCC --split_sections --debug -c -o.\objects\system_usart.o --depend=.\objects\system_usart.d --cpu=Cortex-M0 --apcs=interwork -O1 --diag_suppress=9931 -I..\cmsis\CMSIS\Include -I..\cmsis\Device\meteo\Include -I..\hello\Include -I..\hardware\IIC -I..\hardware\MSI001 -I..\hardware\QN8027 -I..\sys\delay -I..\hardware\SYS -I..\hardware\SYS -I..\sys\system_gpio -I..\sys\system_gpio -I..\sys\cmsdk_drive -I..\sys\system_usart -I..\sys\system_usart -I..\hardware\Nixie_tube -I..\hardware\KEYBOARD -I..\hardware\OLED -I..\hardware\AT24Cxx -I..\hardware\LCD -I.\RTE\_Target_1 -ID:\SOFTWARE_PRUDUCT\MDKARM\Packs\ARM\CMSIS\5.9.0\CMSIS\Core\Include -ID:\SOFTWARE_PRUDUCT\MDKARM\Packs\ARM\CMSIS\5.9.0\Device\ARM\ARMCM0\Include -D__UVISION_VERSION=537 -D_RTE_ -DARMCM0 -D_RTE_ --omf_browse=.\objects\system_usart.crf ..\sys\system_usart\system_usart.c
    
    
    
    
    
    msi001.o
    
    Component: ARM Compiler 5.06 update 7 (build 960) Tool: armlink [4d3601]
    armlink --partial --no_add_relocs_to_undefined --no_generate_mapping_symbols --diag_suppress=9931,9931,6642 --cpu=Cortex-M0 --fpu=SoftVFP --output=.\objects\msi001.o --vfemode=force

    Input Comments:
    
    p2b68-3
    
    Component: ARM Compiler 5.06 update 7 (build 960) Tool: armasm [4d35fa]
    armasm --debug --diag_suppress=9931,9931,1602,1073 --cpu=Cortex-M0 --fpu=SoftVFP --apcs=/interwork/interwork --no_divide 
    msi001.o
    
    Component: ARM Compiler 5.06 update 7 (build 960) Tool: ArmCC [4d365d]
    ArmCC --split_sections --debug -c -o.\objects\msi001.o --depend=.\objects\msi001.d --cpu=Cortex-M0 --apcs=interwork -O1 --diag_suppress=9931 -I..\cmsis\CMSIS\Include -I..\cmsis\Device\meteo\Include -I..\hello\Include -I..\hardware\IIC -I..\hardware\MSI001 -I..\hardware\QN8027 -I..\sys\delay -I..\hardware\SYS -I..\hardware\SYS -I..\sys\system_gpio -I..\sys\system_gpio -I..\sys\cmsdk_drive -I..\sys\system_usart -I..\sys\system_usart -I..\hardware\Nixie_tube -I..\hardware\KEYBOARD -I..\hardware\OLED -I..\hardware\AT24Cxx -I..\hardware\LCD -I.\RTE\_Target_1 -ID:\SOFTWARE_PRUDUCT\MDKARM\Packs\ARM\CMSIS\5.9.0\CMSIS\Core\Include -ID:\SOFTWARE_PRUDUCT\MDKARM\Packs\ARM\CMSIS\5.9.0\Device\ARM\ARMCM0\Include -D__UVISION_VERSION=537 -D_RTE_ -DARMCM0 -D_RTE_ --omf_browse=.\objects\msi001.crf ..\hardware\MSI001\msi001.c
    
    
    myiic.o
    
    Component: ARM Compiler 5.06 update 7 (build 960) Tool: armlink [4d3601]
    armlink --partial --no_add_relocs_to_undefined --no_generate_mapping_symbols --diag_suppress=9931,9931,6642 --cpu=Cortex-M0 --fpu=SoftVFP --output=.\objects\myiic.o --vfemode=force

    Input Comments:
    
    p24e0-3
    
    Component: ARM Compiler 5.06 update 7 (build 960) Tool: armasm [4d35fa]
    armasm --debug --diag_suppress=9931,9931,1602,1073 --cpu=Cortex-M0 --fpu=SoftVFP --apcs=/interwork/interwork --no_divide 
    myiic.o
    
    Component: ARM Compiler 5.06 update 7 (build 960) Tool: ArmCC [4d365d]
    ArmCC --split_sections --debug -c -o.\objects\myiic.o --depend=.\objects\myiic.d --cpu=Cortex-M0 --apcs=interwork -O1 --diag_suppress=9931 -I..\cmsis\CMSIS\Include -I..\cmsis\Device\meteo\Include -I..\hello\Include -I..\hardware\IIC -I..\hardware\MSI001 -I..\hardware\QN8027 -I..\sys\delay -I..\hardware\SYS -I..\hardware\SYS -I..\sys\system_gpio -I..\sys\system_gpio -I..\sys\cmsdk_drive -I..\sys\system_usart -I..\sys\system_usart -I..\hardware\Nixie_tube -I..\hardware\KEYBOARD -I..\hardware\OLED -I..\hardware\AT24Cxx -I..\hardware\LCD -I.\RTE\_Target_1 -ID:\SOFTWARE_PRUDUCT\MDKARM\Packs\ARM\CMSIS\5.9.0\CMSIS\Core\Include -ID:\SOFTWARE_PRUDUCT\MDKARM\Packs\ARM\CMSIS\5.9.0\Device\ARM\ARMCM0\Include -D__UVISION_VERSION=537 -D_RTE_ -DARMCM0 -D_RTE_ --omf_browse=.\objects\myiic.crf ..\hardware\IIC\myiic.c
    
    
    
    qn8027.o
    
    Component: ARM Compiler 5.06 update 7 (build 960) Tool: armlink [4d3601]
    armlink --partial --no_add_relocs_to_undefined --no_generate_mapping_symbols --diag_suppress=9931,9931,6642 --cpu=Cortex-M0 --fpu=SoftVFP --output=.\objects\qn8027.o --vfemode=force

    Input Comments:
    
    pa30-3
    
    Component: ARM Compiler 5.06 update 7 (build 960) Tool: armasm [4d35fa]
    armasm --debug --diag_suppress=9931,9931,1602,1073 --cpu=Cortex-M0 --fpu=SoftVFP --apcs=/interwork/interwork --no_divide 
    qn8027.o
    
    Component: ARM Compiler 5.06 update 7 (build 960) Tool: ArmCC [4d365d]
    ArmCC --split_sections --debug -c -o.\objects\qn8027.o --depend=.\objects\qn8027.d --cpu=Cortex-M0 --apcs=interwork -O1 --diag_suppress=9931 -I..\cmsis\CMSIS\Include -I..\cmsis\Device\meteo\Include -I..\hello\Include -I..\hardware\IIC -I..\hardware\MSI001 -I..\hardware\QN8027 -I..\sys\delay -I..\hardware\SYS -I..\hardware\SYS -I..\sys\system_gpio -I..\sys\system_gpio -I..\sys\cmsdk_drive -I..\sys\system_usart -I..\sys\system_usart -I..\hardware\Nixie_tube -I..\hardware\KEYBOARD -I..\hardware\OLED -I..\hardware\AT24Cxx -I..\hardware\LCD -I.\RTE\_Target_1 -ID:\SOFTWARE_PRUDUCT\MDKARM\Packs\ARM\CMSIS\5.9.0\CMSIS\Core\Include -ID:\SOFTWARE_PRUDUCT\MDKARM\Packs\ARM\CMSIS\5.9.0\Device\ARM\ARMCM0\Include -D__UVISION_VERSION=537 -D_RTE_ -DARMCM0 -D_RTE_ --omf_browse=.\objects\qn8027.crf ..\hardware\QN8027\qn8027.c
    
    
    
    nixie_tube.o
    
    Component: ARM Compiler 5.06 update 7 (build 960) Tool: armlink [4d3601]
    armlink --partial --no_add_relocs_to_undefined --no_generate_mapping_symbols --diag_suppress=9931,9931,6642 --cpu=Cortex-M0 --fpu=SoftVFP --output=.\objects\nixie_tube.o --vfemode=force

    Input Comments:
    
    p2008-3
    
    Component: ARM Compiler 5.06 update 7 (build 960) Tool: armasm [4d35fa]
    armasm --debug --diag_suppress=9931,9931,1602,1073 --cpu=Cortex-M0 --fpu=SoftVFP --apcs=/interwork/interwork --no_divide 
    nixie_tube.o
    
    Component: ARM Compiler 5.06 update 7 (build 960) Tool: ArmCC [4d365d]
    ArmCC --split_sections --debug -c -o.\objects\nixie_tube.o --depend=.\objects\nixie_tube.d --cpu=Cortex-M0 --apcs=interwork -O1 --diag_suppress=9931 -I..\cmsis\CMSIS\Include -I..\cmsis\Device\meteo\Include -I..\hello\Include -I..\hardware\IIC -I..\hardware\MSI001 -I..\hardware\QN8027 -I..\sys\delay -I..\hardware\SYS -I..\hardware\SYS -I..\sys\system_gpio -I..\sys\system_gpio -I..\sys\cmsdk_drive -I..\sys\system_usart -I..\sys\system_usart -I..\hardware\Nixie_tube -I..\hardware\KEYBOARD -I..\hardware\OLED -I..\hardware\AT24Cxx -I..\hardware\LCD -I.\RTE\_Target_1 -ID:\SOFTWARE_PRUDUCT\MDKARM\Packs\ARM\CMSIS\5.9.0\CMSIS\Core\Include -ID:\SOFTWARE_PRUDUCT\MDKARM\Packs\ARM\CMSIS\5.9.0\Device\ARM\ARMCM0\Include -D__UVISION_VERSION=537 -D_RTE_ -DARMCM0 -D_RTE_ --omf_browse=.\objects\nixie_tube.crf ..\hardware\Nixie_tube\Nixie_tube.c
    
    
    keyboard.o
    
    Component: ARM Compiler 5.06 update 7 (build 960) Tool: armlink [4d3601]
    armlink --partial --no_add_relocs_to_undefined --no_generate_mapping_symbols --diag_suppress=9931,9931,6642 --cpu=Cortex-M0 --fpu=SoftVFP --output=.\objects\keyboard.o --vfemode=force

    Input Comments:
    
    p138c-3
    
    Component: ARM Compiler 5.06 update 7 (build 960) Tool: armasm [4d35fa]
    armasm --debug --diag_suppress=9931,9931,1602,1073 --cpu=Cortex-M0 --fpu=SoftVFP --apcs=/interwork/interwork --no_divide 
    keyboard.o
    
    Component: ARM Compiler 5.06 update 7 (build 960) Tool: ArmCC [4d365d]
    ArmCC --split_sections --debug -c -o.\objects\keyboard.o --depend=.\objects\keyboard.d --cpu=Cortex-M0 --apcs=interwork -O1 --diag_suppress=9931 -I..\cmsis\CMSIS\Include -I..\cmsis\Device\meteo\Include -I..\hello\Include -I..\hardware\IIC -I..\hardware\MSI001 -I..\hardware\QN8027 -I..\sys\delay -I..\hardware\SYS -I..\hardware\SYS -I..\sys\system_gpio -I..\sys\system_gpio -I..\sys\cmsdk_drive -I..\sys\system_usart -I..\sys\system_usart -I..\hardware\Nixie_tube -I..\hardware\KEYBOARD -I..\hardware\OLED -I..\hardware\AT24Cxx -I..\hardware\LCD -I.\RTE\_Target_1 -ID:\SOFTWARE_PRUDUCT\MDKARM\Packs\ARM\CMSIS\5.9.0\CMSIS\Core\Include -ID:\SOFTWARE_PRUDUCT\MDKARM\Packs\ARM\CMSIS\5.9.0\Device\ARM\ARMCM0\Include -D__UVISION_VERSION=537 -D_RTE_ -DARMCM0 -D_RTE_ --omf_browse=.\objects\keyboard.crf ..\hardware\KEYBOARD\keyboard.c
    
    
    
    
    oled.o
    
    Component: ARM Compiler 5.06 update 7 (build 960) Tool: armlink [4d3601]
    armlink --partial --no_add_relocs_to_undefined --no_generate_mapping_symbols --diag_suppress=9931,9931,6642 --cpu=Cortex-M0 --fpu=SoftVFP --output=.\objects\oled.o --vfemode=force

    Input Comments:
    
    p1a60-3
    
    Component: ARM Compiler 5.06 update 7 (build 960) Tool: armasm [4d35fa]
    armasm --debug --diag_suppress=9931,9931,1602,1073 --cpu=Cortex-M0 --fpu=SoftVFP --apcs=/interwork/interwork --no_divide 
    oled.o
    
    Component: ARM Compiler 5.06 update 7 (build 960) Tool: ArmCC [4d365d]
    ArmCC --split_sections --debug -c -o.\objects\oled.o --depend=.\objects\oled.d --cpu=Cortex-M0 --apcs=interwork -O1 --diag_suppress=9931 -I..\cmsis\CMSIS\Include -I..\cmsis\Device\meteo\Include -I..\hello\Include -I..\hardware\IIC -I..\hardware\MSI001 -I..\hardware\QN8027 -I..\sys\delay -I..\hardware\SYS -I..\hardware\SYS -I..\sys\system_gpio -I..\sys\system_gpio -I..\sys\cmsdk_drive -I..\sys\system_usart -I..\sys\system_usart -I..\hardware\Nixie_tube -I..\hardware\KEYBOARD -I..\hardware\OLED -I..\hardware\AT24Cxx -I..\hardware\LCD -I.\RTE\_Target_1 -ID:\SOFTWARE_PRUDUCT\MDKARM\Packs\ARM\CMSIS\5.9.0\CMSIS\Core\Include -ID:\SOFTWARE_PRUDUCT\MDKARM\Packs\ARM\CMSIS\5.9.0\Device\ARM\ARMCM0\Include -D__UVISION_VERSION=537 -D_RTE_ -DARMCM0 -D_RTE_ --omf_browse=.\objects\oled.crf ..\hardware\OLED\oled.c
    
    
    
    
    24cxx.o
    
    Component: ARM Compiler 5.06 update 7 (build 960) Tool: armlink [4d3601]
    armlink --partial --no_add_relocs_to_undefined --no_generate_mapping_symbols --diag_suppress=9931,9931,6642 --cpu=Cortex-M0 --fpu=SoftVFP --output=.\objects\24cxx.o --vfemode=force

    Input Comments:
    
    p1530-3
    
    Component: ARM Compiler 5.06 update 7 (build 960) Tool: armasm [4d35fa]
    armasm --debug --diag_suppress=9931,9931,1602,1073 --cpu=Cortex-M0 --fpu=SoftVFP --apcs=/interwork/interwork --no_divide 
    24cxx.o
    
    Component: ARM Compiler 5.06 update 7 (build 960) Tool: ArmCC [4d365d]
    ArmCC --split_sections --debug -c -o.\objects\24cxx.o --depend=.\objects\24cxx.d --cpu=Cortex-M0 --apcs=interwork -O1 --diag_suppress=9931 -I..\cmsis\CMSIS\Include -I..\cmsis\Device\meteo\Include -I..\hello\Include -I..\hardware\IIC -I..\hardware\MSI001 -I..\hardware\QN8027 -I..\sys\delay -I..\hardware\SYS -I..\hardware\SYS -I..\sys\system_gpio -I..\sys\system_gpio -I..\sys\cmsdk_drive -I..\sys\system_usart -I..\sys\system_usart -I..\hardware\Nixie_tube -I..\hardware\KEYBOARD -I..\hardware\OLED -I..\hardware\AT24Cxx -I..\hardware\LCD -I.\RTE\_Target_1 -ID:\SOFTWARE_PRUDUCT\MDKARM\Packs\ARM\CMSIS\5.9.0\CMSIS\Core\Include -ID:\SOFTWARE_PRUDUCT\MDKARM\Packs\ARM\CMSIS\5.9.0\Device\ARM\ARMCM0\Include -D__UVISION_VERSION=537 -D_RTE_ -DARMCM0 -D_RTE_ --omf_browse=.\objects\24cxx.crf ..\hardware\AT24Cxx\24cxx.c
    
    
    
    lcd.o
    
    Component: ARM Compiler 5.06 update 7 (build 960) Tool: armlink [4d3601]
    armlink --partial --no_add_relocs_to_undefined --no_generate_mapping_symbols --diag_suppress=9931,9931,6642 --cpu=Cortex-M0 --fpu=SoftVFP --output=.\objects\lcd.o --vfemode=force

    Input Comments:
    
    p2de0-3
    
    Component: ARM Compiler 5.06 update 7 (build 960) Tool: armasm [4d35fa]
    armasm --debug --diag_suppress=9931,9931,1602,1073 --cpu=Cortex-M0 --fpu=SoftVFP --apcs=/interwork/interwork --no_divide 
    lcd.o
    
    Component: ARM Compiler 5.06 update 7 (build 960) Tool: ArmCC [4d365d]
    ArmCC --split_sections --debug -c -o.\objects\lcd.o --depend=.\objects\lcd.d --cpu=Cortex-M0 --apcs=interwork -O1 --diag_suppress=9931 -I..\cmsis\CMSIS\Include -I..\cmsis\Device\meteo\Include -I..\hello\Include -I..\hardware\IIC -I..\hardware\MSI001 -I..\hardware\QN8027 -I..\sys\delay -I..\hardware\SYS -I..\hardware\SYS -I..\sys\system_gpio -I..\sys\system_gpio -I..\sys\cmsdk_drive -I..\sys\system_usart -I..\sys\system_usart -I..\hardware\Nixie_tube -I..\hardware\KEYBOARD -I..\hardware\OLED -I..\hardware\AT24Cxx -I..\hardware\LCD -I.\RTE\_Target_1 -ID:\SOFTWARE_PRUDUCT\MDKARM\Packs\ARM\CMSIS\5.9.0\CMSIS\Core\Include -ID:\SOFTWARE_PRUDUCT\MDKARM\Packs\ARM\CMSIS\5.9.0\Device\ARM\ARMCM0\Include -D__UVISION_VERSION=537 -D_RTE_ -DARMCM0 -D_RTE_ --omf_browse=.\objects\lcd.crf ..\hardware\LCD\lcd.c
    
    
    
    delay.o
    
    Component: ARM Compiler 5.06 update 7 (build 960) Tool: armlink [4d3601]
    armlink --partial --no_add_relocs_to_undefined --no_generate_mapping_symbols --diag_suppress=9931,9931,6642 --cpu=Cortex-M0 --fpu=SoftVFP --output=.\objects\delay.o --vfemode=force

    Input Comments:
    
    pf6c-3
    
    Component: ARM Compiler 5.06 update 7 (build 960) Tool: armasm [4d35fa]
    armasm --debug --diag_suppress=9931,9931,1602,1073 --cpu=Cortex-M0 --fpu=SoftVFP --apcs=/interwork/interwork --no_divide 
    delay.o
    
    Component: ARM Compiler 5.06 update 7 (build 960) Tool: ArmCC [4d365d]
    ArmCC --split_sections --debug -c -o.\objects\delay.o --depend=.\objects\delay.d --cpu=Cortex-M0 --apcs=interwork -O1 --diag_suppress=9931 -I..\cmsis\CMSIS\Include -I..\cmsis\Device\meteo\Include -I..\hello\Include -I..\hardware\IIC -I..\hardware\MSI001 -I..\hardware\QN8027 -I..\sys\delay -I..\hardware\SYS -I..\hardware\SYS -I..\sys\system_gpio -I..\sys\system_gpio -I..\sys\cmsdk_drive -I..\sys\system_usart -I..\sys\system_usart -I..\hardware\Nixie_tube -I..\hardware\KEYBOARD -I..\hardware\OLED -I..\hardware\AT24Cxx -I..\hardware\LCD -I.\RTE\_Target_1 -ID:\SOFTWARE_PRUDUCT\MDKARM\Packs\ARM\CMSIS\5.9.0\CMSIS\Core\Include -ID:\SOFTWARE_PRUDUCT\MDKARM\Packs\ARM\CMSIS\5.9.0\Device\ARM\ARMCM0\Include -D__UVISION_VERSION=537 -D_RTE_ -DARMCM0 -D_RTE_ --omf_browse=.\objects\delay.crf ..\sys\delay\delay.c
    
    
    
    
    

====================================

** Section #15

    Name        : .shstrtab
    Type        : SHT_STRTAB (0x00000003)
    Flags       : None (0x00000000)
    Addr        : 0x00000000
    File Offset : 165628 (0x286fc)
    Size        : 156 bytes (0x9c)
    Link        : SHN_UNDEF
    Info        : 0
    Alignment   : 1
    Entry Size  : 0


====================================

